Microchip MPLAB XC8 Compiler V1.12 ()

Linker command line:

--edf=/opt/microchip/xc8/v1.12/dat/en_msgs.txt -cs \
  -h+dist/default/production/switchpods_proj.X.production.sym -z -Q18F65K22 \
  -ol.obj -Mdist/default/production/switchpods_proj.X.production.map -E1 \
  -ver=XC8 -ACODE=00h-07FFFh -ACONST=00h-07FFFh \
  -ASMALLCONST=0800h-08FFhx120 -AMEDIUMCONST=0800h-07FFFh -ACOMRAM=01h-05Fh \
  -AABS1=00h-07FFh -ABIGRAM=01h-07FFh -ARAM=060h-0FFh,0100h-01FFhx7 \
  -ABANK0=060h-0FFh -ABANK1=0100h-01FFh -ABANK2=0200h-02FFh \
  -ABANK3=0300h-03FFh -ABANK4=0400h-04FFh -ABANK5=0500h-05FFh \
  -ABANK6=0600h-06FFh -ABANK7=0700h-07FFh -ASFR=0F16h-0F5Fh,0F60h-0FFFh \
  -preset_vec=00h,intcode,intcodelo,powerup,init,end_init -pramtop=0800h \
  -psmallconst=SMALLCONST -pmediumconst=MEDIUMCONST -pconst=CONST \
  -AFARRAM=00h-00h -ACONFIG=0300000h-030000Dh -pconfig=CONFIG \
  -AIDLOC=0200000h-0200007h -pidloc=IDLOC -AEEDATA=0F00000h-0F003FFh \
  -peeprom_data=EEDATA \
  -prdata=COMRAM,nvrram=COMRAM,nvbit=COMRAM,rbss=COMRAM,rbit=COMRAM \
  -pfarbss=FARRAM,fardata=FARRAM \
  -pintsave_regs=BIGRAM,bigbss=BIGRAM,bigdata=BIGRAM -pbss=RAM \
  -pidata=CODE,irdata=CODE,ibigdata=CODE,ifardata=CODE /tmp/cgt31QOvq.obj \
  dist/default/production/switchpods_proj.X.production.obj 

Object code version is 3.10

Machine type is 18F65K22

Call graph: (short form)




                Name                               Link     Load   Length Selector   Space Scale
/tmp/cgt31QOvq.obj
                end_init                              0        0        4        0       0
                idloc                            200000   200000        8   200000       0
                config                           300000   300000        E   300000       0
dist/default/production/switchpods_proj.X.production.obj
                text8                              7198     7198      116     38CC       0
                text7                              6EB6     6EB6        E     375B       0
                text6                              6EF0     6EF0       48     3778       0
                text5                              7048     7048       74     3824       0
                text4                              70BC     70BC       DC     385E       0
                text3                              6F80     6F80       5E     37C0       0
                text2                              6ED6     6ED6       1A     376B       0
                text1                              72AE     72AE      11E     3957       0
                text0                              73CC     73CC      C34     39E6       0
                cstackCOMRAM                         25       25       1B        1       1
                cstackBANK1                         100      100       A6      100       1
                dataBANK1                           1A6      1A6       48      100       1
                bssBANK1                            1EE      1EE       12      100       1
                bssBANK0                             60       60       12       60       1
                dataCOMRAM                           40       40       12        1       1
                bssCOMRAM                             1        1       24        1       1
                cinit                              6FDE     6FDE       6A     37EF       0
                idataBANK1                         6F38     6F38       48     6F38       0
                idataCOMRAM                        6EC4     6EC4       12     6EC4       0

TOTAL           Name                               Link     Load   Length     Space
        CLASS   CODE           
                end_init                              0        0        4         0
                text8                              7198     7198      116         0
                text7                              6EB6     6EB6        E         0
                text6                              6EF0     6EF0       48         0
                text5                              7048     7048       74         0
                text4                              70BC     70BC       DC         0
                text3                              6F80     6F80       5E         0
                text2                              6ED6     6ED6       1A         0
                text1                              72AE     72AE      11E         0
                text0                              73CC     73CC      C34         0
                cinit                              6FDE     6FDE       6A         0
                idataBANK1                         6F38     6F38       48         0
                idataCOMRAM                        6EC4     6EC4       12         0

        CLASS   CONST          

        CLASS   SMALLCONST     

        CLASS   MEDIUMCONST    

        CLASS   COMRAM         
                cstackCOMRAM                         25       25       1B         1
                dataCOMRAM                           40       40       12         1
                bssCOMRAM                             1        1       24         1

        CLASS   ABS1           

        CLASS   BIGRAM         

        CLASS   RAM            

        CLASS   BANK0          
                bssBANK0                             60       60       12         1

        CLASS   BANK1          
                cstackBANK1                         100      100       A6         1
                dataBANK1                           1A6      1A6       48         1
                bssBANK1                            1EE      1EE       12         1

        CLASS   BANK2          

        CLASS   BANK3          

        CLASS   BANK4          

        CLASS   BANK5          

        CLASS   BANK6          

        CLASS   BANK7          

        CLASS   SFR            

        CLASS   FARRAM         

        CLASS   CONFIG         
                config                           300000   300000        E         0

        CLASS   IDLOC          
                idloc                            200000   200000        8         0

        CLASS   EEDATA         



SEGMENTS        Name                           Load    Length   Top    Selector   Space  Class

                reset_vec                      000000  000004  000004         0       0  CODE    
                bssCOMRAM                      000001  000051  000052         1       1  COMRAM  
                bssBANK0                       000060  000012  000072        60       1  BANK0   
                cstackBANK1                    000100  000100  000200       100       1  BANK1   
                text7                          006EB6  00000E  006EC4      375B       0  CODE    
                idataCOMRAM                    006EC4  000012  006ED6      6EC4       0  CODE    
                text2                          006ED6  00001A  006EF0      376B       0  CODE    
                text6                          006EF0  000048  006F38      3778       0  CODE    
                idataBANK1                     006F38  000048  006F80      6F38       0  CODE    
                text3                          006F80  00005E  006FDE      37C0       0  CODE    
                cinit                          006FDE  00006A  007048      37EF       0  CODE    
                text5                          007048  000074  0070BC      3824       0  CODE    
                text4                          0070BC  0000DC  007198      385E       0  CODE    
                text8                          007198  000116  0072AE      38CC       0  CODE    
                text1                          0072AE  00011E  0073CC      3957       0  CODE    
                text0                          0073CC  000C34  008000      39E6       0  CODE    
                idloc                          200000  000008  200008    200000       0  IDLOC   
                config                         300000  00000E  30000E    300000       0  CONFIG  


UNUSED ADDRESS RANGES

        Name                Unused          Largest block    Delta
        BANK0            000072-0000FF               8E
        BANK2            000200-0002FF              100
        BANK3            000300-0003FF              100
        BANK4            000400-0004FF              100
        BANK5            000500-0005FF              100
        BANK6            000600-0006FF              100
        BANK7            000700-0007FF              100
        BIGRAM           000052-00005F                E
                         000072-0000FF               8E
                         000200-0007FF              600
        CODE             000004-006EB5             6EB2
        COMRAM           000052-00005F                E
        CONST            000004-006EB5             6EB2
        EEDATA           F00000-F003FF              400
        MEDIUMCONST      000800-006EB5             66B6
        RAM              000072-0000FF               8E
                         000200-0007FF              100
        SFR              000F16-000FFF               4A
        SMALLCONST       000800-006EB5              100

                                  Symbol Table

?_Read_b_eep             cstackCOMRAM 000025
?_Write_b_eep            cstackCOMRAM 000025
?__delay_ms              cstackCOMRAM 000025
?_checkButton            cstackCOMRAM 000025
?_setOutput              cstackCOMRAM 000025
?_setOutputs             cstackCOMRAM 00002E
?_setupIO                cstackCOMRAM 000025
Read_b_eep@badd          cstackCOMRAM 000025
Write_b_eep@GIE_BIT_VAL  cstackCOMRAM 000029
Write_b_eep@badd         cstackCOMRAM 000025
Write_b_eep@bdat         cstackCOMRAM 000027
_ANCON0                  (abs)        000F25
_ANCON1                  (abs)        000F24
_Busy_eep                text7        006EB6
_EEADR                   (abs)        000F62
_EEADRH                  (abs)        000F63
_EECON1bits              (abs)        000F7F
_EECON2                  (abs)        000F7E
_EEDATA                  (abs)        000F61
_INTCONbits              (abs)        000FF2
_LATA                    (abs)        000F89
_LATB                    (abs)        000F8A
_LATC                    (abs)        000F8B
_LATD                    (abs)        000F8C
_LATE                    (abs)        000F8D
_LATF                    (abs)        000F8E
_LATG                    (abs)        000F8F
_PORTA                   (abs)        000F80
_PORTB                   (abs)        000F81
_PORTC                   (abs)        000F82
_PORTD                   (abs)        000F83
_PORTE                   (abs)        000F84
_PORTF                   (abs)        000F85
_PORTG                   (abs)        000F86
_Read_b_eep              text2        006ED6
_TRISA                   (abs)        000F92
_TRISB                   (abs)        000F93
_TRISC                   (abs)        000F94
_TRISD                   (abs)        000F95
_TRISE                   (abs)        000F96
_TRISF                   (abs)        000F97
_TRISG                   (abs)        000F98
_Write_b_eep             text6        006EF0
__CFG_BBSIZ$BB2K         (abs)        000000
__CFG_BOREN$SBORDIS      (abs)        000000
__CFG_BORPWR$ZPBORMV     (abs)        000000
__CFG_BORV$0             (abs)        000000
__CFG_CCP2MX$PORTC       (abs)        000000
__CFG_CP0$OFF            (abs)        000000
__CFG_CP1$OFF            (abs)        000000
__CFG_CP2$OFF            (abs)        000000
__CFG_CP3$OFF            (abs)        000000
__CFG_CPB$OFF            (abs)        000000
__CFG_CPD$OFF            (abs)        000000
__CFG_EBRT0$OFF          (abs)        000000
__CFG_EBRT1$OFF          (abs)        000000
__CFG_EBRT2$OFF          (abs)        000000
__CFG_EBRT3$OFF          (abs)        000000
__CFG_EBRTB$OFF          (abs)        000000
__CFG_FCMEN$OFF          (abs)        000000
__CFG_FOSC$INTIO2        (abs)        000000
__CFG_IESO$OFF           (abs)        000000
__CFG_INTOSCSEL$HIGH     (abs)        000000
__CFG_MCLRE$ON           (abs)        000000
__CFG_MSSPMSK$MSK7       (abs)        000000
__CFG_PLLCFG$OFF         (abs)        000000
__CFG_PWRTEN$OFF         (abs)        000000
__CFG_RETEN$ON           (abs)        000000
__CFG_RTCOSC$SOSCREF     (abs)        000000
__CFG_SOSCSEL$DIG        (abs)        000000
__CFG_STVREN$ON          (abs)        000000
__CFG_WDTEN$OFF          (abs)        000000
__CFG_WDTPS$1048576      (abs)        000000
__CFG_WRT0$OFF           (abs)        000000
__CFG_WRT1$OFF           (abs)        000000
__CFG_WRT2$OFF           (abs)        000000
__CFG_WRT3$OFF           (abs)        000000
__CFG_WRTB$OFF           (abs)        000000
__CFG_WRTC$OFF           (abs)        000000
__CFG_WRTD$OFF           (abs)        000000
__CFG_XINST$OFF          (abs)        000000
__HRAM                   (abs)        000000
__Habs1                  abs1         000000
__Hbank0                 bank0        000000
__Hbank1                 bank1        000000
__Hbank2                 bank2        000000
__Hbank3                 bank3        000000
__Hbank4                 bank4        000000
__Hbank5                 bank5        000000
__Hbank6                 bank6        000000
__Hbank7                 bank7        000000
__Hbigbss                bigbss       000000
__Hbigdata               bigdata      000000
__Hbigram                bigram       000000
__Hbss                   bss          000000
__HbssBANK0              bssBANK0     000000
__HbssBANK1              bssBANK1     000000
__HbssCOMRAM             bssCOMRAM    000000
__Hcinit                 cinit        000000
__Hclrtext               clrtext      000000
__Hcomram                comram       000000
__Hconfig                config       30000E
__Hconst                 const        000000
__HcstackBANK1           cstackBANK1  000000
__HcstackCOMRAM          cstackCOMRAM 000000
__Hdata                  data         000000
__HdataBANK1             dataBANK1    000000
__HdataCOMRAM            dataCOMRAM   000000
__Heeprom_data           eeprom_data  000000
__Hend_init              end_init     000004
__Hfarbss                farbss       000000
__Hfardata               fardata      000000
__Hibigdata              ibigdata     000000
__Hidata                 idata        000000
__HidataBANK1            idataBANK1   000000
__HidataCOMRAM           idataCOMRAM  000000
__Hidloc                 idloc        200008
__Hifardata              ifardata     000000
__Hinit                  init         000000
__Hintcode               intcode      000000
__Hintcode_body          intcode_body 000000
__Hintcodelo             intcodelo    000000
__Hintentry              intentry     000000
__Hintret                intret       000000
__Hintsave_regs          intsave_regs 000000
__Hirdata                irdata       000000
__Hmediumconst           mediumconst  000000
__Hnvbit                 nvbit        000000
__Hnvrram                nvrram       000000
__Hparam                 rparam       000000
__Hpowerup               powerup      000000
__Hram                   ram          000000
__Hramtop                ramtop       000800
__Hrbit                  rbit         000000
__Hrbss                  rbss         000000
__Hrdata                 rdata        000000
__Hreset_vec             reset_vec    000000
__Hrparam                rparam       000000
__Hsfr                   sfr          000000
__Hsmallconst            smallconst   000000
__Hstruct                struct       000000
__Htemp                  temp         000000
__Htext                  text         000000
__Htext0                 text0        000000
__Htext1                 text1        000000
__Htext2                 text2        000000
__Htext3                 text3        000000
__Htext4                 text4        000000
__Htext5                 text5        000000
__Htext6                 text6        000000
__Htext7                 text7        000000
__Htext8                 text8        000000
__Htext9                 text9        000000
__LRAM                   (abs)        000001
__Labs1                  abs1         000000
__Lbank0                 bank0        000000
__Lbank1                 bank1        000000
__Lbank2                 bank2        000000
__Lbank3                 bank3        000000
__Lbank4                 bank4        000000
__Lbank5                 bank5        000000
__Lbank6                 bank6        000000
__Lbank7                 bank7        000000
__Lbigbss                bigbss       000000
__Lbigdata               bigdata      000000
__Lbigram                bigram       000000
__Lbss                   bss          000000
__LbssBANK0              bssBANK0     000000
__LbssBANK1              bssBANK1     000000
__LbssCOMRAM             bssCOMRAM    000000
__Lcinit                 cinit        000000
__Lclrtext               clrtext      000000
__Lcomram                comram       000000
__Lconfig                config       300000
__Lconst                 const        000000
__LcstackBANK1           cstackBANK1  000000
__LcstackCOMRAM          cstackCOMRAM 000000
__Ldata                  data         000000
__LdataBANK1             dataBANK1    000000
__LdataCOMRAM            dataCOMRAM   000000
__Leeprom_data           eeprom_data  000000
__Lend_init              end_init     000000
__Lfarbss                farbss       000000
__Lfardata               fardata      000000
__Libigdata              ibigdata     000000
__Lidata                 idata        000000
__LidataBANK1            idataBANK1   000000
__LidataCOMRAM           idataCOMRAM  000000
__Lidloc                 idloc        200000
__Lifardata              ifardata     000000
__Linit                  init         000000
__Lintcode               intcode      000000
__Lintcode_body          intcode_body 000000
__Lintcodelo             intcodelo    000000
__Lintentry              intentry     000000
__Lintret                intret       000000
__Lintsave_regs          intsave_regs 000000
__Lirdata                irdata       000000
__Lmediumconst           mediumconst  000000
__Lnvbit                 nvbit        000000
__Lnvrram                nvrram       000000
__Lparam                 rparam       000000
__Lpowerup               powerup      000000
__Lram                   ram          000000
__Lramtop                ramtop       000800
__Lrbit                  rbit         000000
__Lrbss                  rbss         000000
__Lrdata                 rdata        000000
__Lreset_vec             reset_vec    000000
__Lrparam                rparam       000000
__Lsfr                   sfr          000000
__Lsmallconst            smallconst   000000
__Lstruct                struct       000000
__Ltemp                  temp         000000
__Ltext                  text         000000
__Ltext0                 text0        000000
__Ltext1                 text1        000000
__Ltext2                 text2        000000
__Ltext3                 text3        000000
__Ltext4                 text4        000000
__Ltext5                 text5        000000
__Ltext6                 text6        000000
__Ltext7                 text7        000000
__Ltext8                 text8        000000
__Ltext9                 text9        000000
__S0                     (abs)        30000E
__S1                     (abs)        000200
__accesstop              (abs)        000060
__activetblptr           (abs)        000000
__delay_ms               text3        006F80
__delay_ms@i             cstackCOMRAM 000027
__delay_ms@j             cstackCOMRAM 000029
__delay_ms@ms            cstackCOMRAM 000025
__end_of_Busy_eep        text7        006EC4
__end_of_Read_b_eep      text2        006EF0
__end_of_Write_b_eep     text6        006F38
__end_of__delay_ms       text3        006FDE
__end_of__initialization cinit        007042
__end_of_checkButton     text4        007198
__end_of_main            text0        008000
__end_of_setOutput       text8        0072AE
__end_of_setOutputs      text5        0070BC
__end_of_setupIO         text1        0073CC
__initialization         cinit        006FDE
__mediumconst            mediumconst  000000
__pbssBANK0              bssBANK0     000060
__pbssBANK1              bssBANK1     0001EE
__pbssCOMRAM             bssCOMRAM    000001
__pcinit                 cinit        006FDE
__pcstackBANK1           cstackBANK1  000100
__pcstackCOMRAM          cstackCOMRAM 000025
__pdataBANK1             dataBANK1    0001A6
__pdataCOMRAM            dataCOMRAM   000040
__pidataBANK1            idataBANK1   006F38
__pidataCOMRAM           idataCOMRAM  006EC4
__ptext0                 text0        0073CC
__ptext1                 text1        0072AE
__ptext2                 text2        006ED6
__ptext3                 text3        006F80
__ptext4                 text4        0070BC
__ptext5                 text5        007048
__ptext6                 text6        006EF0
__ptext7                 text7        006EB6
__ptext8                 text8        007198
__ptext9                 text9        000000
__ramtop                 ramtop       000800
__size_of_Busy_eep       (abs)        000000
__size_of_Read_b_eep     (abs)        000000
__size_of_Write_b_eep    (abs)        000000
__size_of__delay_ms      (abs)        000000
__size_of_checkButton    (abs)        000000
__size_of_main           (abs)        000000
__size_of_setOutput      (abs)        000000
__size_of_setOutputs     (abs)        000000
__size_of_setupIO        (abs)        000000
__smallconst             smallconst   000000
_checkButton             text4        0070BC
_main                    text0        0073CC
_setOutput               text8        007198
_setOutputs              text5        007048
_setupIO                 text1        0072AE
checkButton@mask         cstackCOMRAM 00002D
checkButton@port         cstackCOMRAM 000029
checkButton@row          cstackCOMRAM 000025
checkButton@state        cstackCOMRAM 00002B
end_of_initialization    cinit        007042
intlevel0                text         000000
intlevel1                text         000000
intlevel2                text         000000
intlevel3                text         000000
main@F7908               dataBANK1    0001A6
main@F7910               dataBANK1    0001B8
main@F7912               dataBANK1    0001CA
main@F7914               dataBANK1    0001DC
main@F7916               bssBANK1     0001EE
main@F7918               bssCOMRAM    000001
main@F7920               bssCOMRAM    000013
main@F7922               dataCOMRAM   000040
main@F7924               bssBANK0     000060
main@buttonDown          cstackBANK1  000124
main@buttonEventDown     cstackBANK1  000190
main@buttonEventUp       cstackBANK1  00015A
main@buttonLatch         cstackBANK1  00017E
main@buttonMask          cstackBANK1  000100
main@buttonState         cstackBANK1  00016C
main@i                   cstackBANK1  0001A4
main@leftLEDMask         cstackBANK1  000136
main@programState        cstackBANK1  0001A2
main@relayMask           cstackBANK1  000112
main@rightLEDMask        cstackBANK1  000148
setOutput@mask           cstackCOMRAM 00002D
setOutput@port           cstackCOMRAM 00002B
setOutput@row            cstackCOMRAM 000025
setOutput@value          cstackCOMRAM 000027
setOutputs@alwayson      cstackCOMRAM 00002E
setOutputs@leftled       cstackCOMRAM 000030
setOutputs@relay         cstackCOMRAM 000034
setOutputs@rightled      cstackCOMRAM 000032
setOutputs@value         cstackCOMRAM 000036
setupIO@direction        cstackCOMRAM 000027
setupIO@mask             cstackCOMRAM 00002F
setupIO@port             cstackCOMRAM 00002D
setupIO@row              cstackCOMRAM 000025
setupIO@state            cstackCOMRAM 00002B
start                    init         000000
start_initialization     cinit        006FDE


FUNCTION INFORMATION:

 *************** function _main *****************
 Defined at:
		line 13 in file "../switch_pods.c"
 Parameters:    Size  Location     Type
		None
 Auto vars:     Size  Location     Type
  buttonEventD   18  144[BANK1 ] volatile unsigned int [9
  buttonLatch    18  126[BANK1 ] volatile unsigned int [9
  buttonState    18  108[BANK1 ] volatile unsigned int [9
  buttonEventU   18   90[BANK1 ] volatile unsigned int [9
  rightLEDMask   18   72[BANK1 ] volatile unsigned int [9
  leftLEDMask    18   54[BANK1 ] volatile unsigned int [9
  buttonDown     18   36[BANK1 ] volatile unsigned int [9
  relayMask      18   18[BANK1 ] volatile unsigned int [9
  buttonMask     18    0[BANK1 ] volatile unsigned int [9
  i               2  164[BANK1 ] volatile unsigned int 
  programState    2  162[BANK1 ] volatile unsigned int 
 Return value:  Size  Location     Type
                  2   62[COMRAM] unsigned int 
 Registers used:
		wreg, fsr1l, fsr1h, fsr2l, fsr2h, status,2, status,0, cstack
 Tracked objects:
		On entry : 
		On exit  : 
		Unchanged: 
 Data sizes:     COMRAM   BANK0   BANK1   BANK2   BANK3   BANK4   BANK5   BANK6   BANK7
      Params:         0       0       0       0       0       0       0       0       0
      Locals:         0       0     166       0       0       0       0       0       0
      Temps:          8       0       0       0       0       0       0       0       0
      Totals:         8       0     166       0       0       0       0       0       0
Total ram usage:      174 bytes
 Hardware stack levels required when called:    2
 This function calls:
		_setupIO
		_Read_b_eep
		__delay_ms
		_checkButton
		_setOutputs
		_Write_b_eep
		_Busy_eep
 This function is called by:
		Startup code after reset
 This function uses a non-reentrant model


 *************** function _setupIO *****************
 Defined at:
		line 214 in file "../switch_pods.c"
 Parameters:    Size  Location     Type
  row             2    0[COMRAM] unsigned int 
  direction       2    2[COMRAM] unsigned int 
 Auto vars:     Size  Location     Type
  port            2    8[COMRAM] volatile unsigned int 
  state           2    6[COMRAM] volatile unsigned int 
  mask            1   10[COMRAM] volatile unsigned char 
 Return value:  Size  Location     Type
		None               void
 Registers used:
		wreg, status,2, status,0
 Tracked objects:
		On entry : 
		On exit  : 
		Unchanged: 
 Data sizes:     COMRAM   BANK0   BANK1   BANK2   BANK3   BANK4   BANK5   BANK6   BANK7
      Params:         4       0       0       0       0       0       0       0       0
      Locals:         5       0       0       0       0       0       0       0       0
      Temps:          2       0       0       0       0       0       0       0       0
      Totals:        11       0       0       0       0       0       0       0       0
Total ram usage:       11 bytes
 Hardware stack levels used:    1
 This function calls:
		Nothing
 This function is called by:
		_main
 This function uses a non-reentrant model


 *************** function _Read_b_eep *****************
 Defined at:
		line 36 in file "plib/EEP/read_B.c"
 Parameters:    Size  Location     Type
  badd            2    0[COMRAM] unsigned int 
 Auto vars:     Size  Location     Type
		None
 Return value:  Size  Location     Type
                  1    wreg      unsigned char 
 Registers used:
		wreg, status,2, status,0
 Tracked objects:
		On entry : 
		On exit  : 
		Unchanged: 
 Data sizes:     COMRAM   BANK0   BANK1   BANK2   BANK3   BANK4   BANK5   BANK6   BANK7
      Params:         2       0       0       0       0       0       0       0       0
      Locals:         0       0       0       0       0       0       0       0       0
      Temps:          0       0       0       0       0       0       0       0       0
      Totals:         2       0       0       0       0       0       0       0       0
Total ram usage:        2 bytes
 Hardware stack levels used:    1
 This function calls:
		Nothing
 This function is called by:
		_main
 This function uses a non-reentrant model


 *************** function __delay_ms *****************
 Defined at:
		line 206 in file "../switch_pods.c"
 Parameters:    Size  Location     Type
  ms              2    0[COMRAM] unsigned int 
 Auto vars:     Size  Location     Type
  j               2    4[COMRAM] int 
  i               2    2[COMRAM] int 
 Return value:  Size  Location     Type
		None               void
 Registers used:
		wreg, status,2, status,0
 Tracked objects:
		On entry : 
		On exit  : 
		Unchanged: 
 Data sizes:     COMRAM   BANK0   BANK1   BANK2   BANK3   BANK4   BANK5   BANK6   BANK7
      Params:         2       0       0       0       0       0       0       0       0
      Locals:         4       0       0       0       0       0       0       0       0
      Temps:          0       0       0       0       0       0       0       0       0
      Totals:         6       0       0       0       0       0       0       0       0
Total ram usage:        6 bytes
 Hardware stack levels used:    1
 This function calls:
		Nothing
 This function is called by:
		_main
 This function uses a non-reentrant model


 *************** function _checkButton *****************
 Defined at:
		line 252 in file "../switch_pods.c"
 Parameters:    Size  Location     Type
  row             2    0[COMRAM] unsigned int 
 Auto vars:     Size  Location     Type
  state           2    6[COMRAM] volatile unsigned int 
  port            2    4[COMRAM] volatile unsigned int 
  mask            1    8[COMRAM] volatile unsigned char 
 Return value:  Size  Location     Type
                  1    wreg      unsigned char 
 Registers used:
		wreg, status,2, status,0
 Tracked objects:
		On entry : 
		On exit  : 
		Unchanged: 
 Data sizes:     COMRAM   BANK0   BANK1   BANK2   BANK3   BANK4   BANK5   BANK6   BANK7
      Params:         2       0       0       0       0       0       0       0       0
      Locals:         5       0       0       0       0       0       0       0       0
      Temps:          2       0       0       0       0       0       0       0       0
      Totals:         9       0       0       0       0       0       0       0       0
Total ram usage:        9 bytes
 Hardware stack levels used:    1
 This function calls:
		Nothing
 This function is called by:
		_main
 This function uses a non-reentrant model


 *************** function _setOutputs *****************
 Defined at:
		line 329 in file "../switch_pods.c"
 Parameters:    Size  Location     Type
  alwayson        2    9[COMRAM] unsigned int 
  leftled         2   11[COMRAM] unsigned int 
  rightled        2   13[COMRAM] unsigned int 
  relay           2   15[COMRAM] unsigned int 
  value           2   17[COMRAM] unsigned int 
 Auto vars:     Size  Location     Type
		None
 Return value:  Size  Location     Type
		None               void
 Registers used:
		wreg, status,2, status,0, cstack
 Tracked objects:
		On entry : 
		On exit  : 
		Unchanged: 
 Data sizes:     COMRAM   BANK0   BANK1   BANK2   BANK3   BANK4   BANK5   BANK6   BANK7
      Params:        10       0       0       0       0       0       0       0       0
      Locals:         0       0       0       0       0       0       0       0       0
      Temps:          0       0       0       0       0       0       0       0       0
      Totals:        10       0       0       0       0       0       0       0       0
Total ram usage:       10 bytes
 Hardware stack levels used:    1
 Hardware stack levels required when called:    1
 This function calls:
		_setOutput
 This function is called by:
		_main
 This function uses a non-reentrant model


 *************** function _Write_b_eep *****************
 Defined at:
		line 50 in file "plib/EEP/write_B.c"
 Parameters:    Size  Location     Type
  badd            2    0[COMRAM] unsigned int 
  bdat            1    2[COMRAM] unsigned char 
 Auto vars:     Size  Location     Type
  GIE_BIT_VAL     1    4[COMRAM] unsigned char 
 Return value:  Size  Location     Type
		None               void
 Registers used:
		wreg, status,2, status,0
 Tracked objects:
		On entry : 
		On exit  : 
		Unchanged: 
 Data sizes:     COMRAM   BANK0   BANK1   BANK2   BANK3   BANK4   BANK5   BANK6   BANK7
      Params:         3       0       0       0       0       0       0       0       0
      Locals:         1       0       0       0       0       0       0       0       0
      Temps:          1       0       0       0       0       0       0       0       0
      Totals:         5       0       0       0       0       0       0       0       0
Total ram usage:        5 bytes
 Hardware stack levels used:    1
 This function calls:
		Nothing
 This function is called by:
		_main
 This function uses a non-reentrant model


 *************** function _Busy_eep *****************
 Defined at:
		line 13 in file "plib/EEP/busy_eep.c"
 Parameters:    Size  Location     Type
		None
 Auto vars:     Size  Location     Type
		None
 Return value:  Size  Location     Type
		None               void
 Registers used:
		None
 Tracked objects:
		On entry : 
		On exit  : 
		Unchanged: 
 Data sizes:     COMRAM   BANK0   BANK1   BANK2   BANK3   BANK4   BANK5   BANK6   BANK7
      Params:         0       0       0       0       0       0       0       0       0
      Locals:         0       0       0       0       0       0       0       0       0
      Temps:          0       0       0       0       0       0       0       0       0
      Totals:         0       0       0       0       0       0       0       0       0
Total ram usage:        0 bytes
 Hardware stack levels used:    1
 This function calls:
		Nothing
 This function is called by:
		_main
 This function uses a non-reentrant model


 *************** function _setOutput *****************
 Defined at:
		line 292 in file "../switch_pods.c"
 Parameters:    Size  Location     Type
  row             2    0[COMRAM] unsigned int 
  value           2    2[COMRAM] unsigned int 
 Auto vars:     Size  Location     Type
  port            2    6[COMRAM] volatile unsigned int 
  mask            1    8[COMRAM] volatile unsigned char 
 Return value:  Size  Location     Type
		None               void
 Registers used:
		wreg, status,2, status,0
 Tracked objects:
		On entry : 
		On exit  : 
		Unchanged: 
 Data sizes:     COMRAM   BANK0   BANK1   BANK2   BANK3   BANK4   BANK5   BANK6   BANK7
      Params:         4       0       0       0       0       0       0       0       0
      Locals:         3       0       0       0       0       0       0       0       0
      Temps:          2       0       0       0       0       0       0       0       0
      Totals:         9       0       0       0       0       0       0       0       0
Total ram usage:        9 bytes
 Hardware stack levels used:    1
 This function calls:
		Nothing
 This function is called by:
		_setOutputs
 This function uses a non-reentrant model



MODULE INFORMATION

Module		Function		Class		Link	Load	Size
shared
		__initializatio		CODE           	6FDE	0000	100

shared estimated size: 100

plib/EEP/busy_eep.c
		_Busy_eep      		CODE           	6EB6	0000	14

plib/EEP/busy_eep.c estimated size: 14

plib/EEP/write_B.c
		_Write_b_eep   		CODE           	6EF0	0000	72

plib/EEP/write_B.c estimated size: 72

../switch_pods.c
		_setupIO       		CODE           	72AE	0000	286
		_main          		CODE           	73CC	0000	3124
		_setOutput     		CODE           	7198	0000	278
		_setOutputs    		CODE           	7048	0000	116
		__delay_ms     		CODE           	6F80	0000	94
		_checkButton   		CODE           	70BC	0000	220

../switch_pods.c estimated size: 4118

plib/EEP/read_B.c
		_Read_b_eep    		CODE           	6ED6	0000	26

plib/EEP/read_B.c estimated size: 26

