

Microchip Technology PIC18 LITE Macro Assembler V1.12 build 49521 
                                                                                               Mon Sep  2 18:03:43 2013

HI-TECH Software Omniscient Code Generator (Lite mode) build 49521
     1  0000                     opt subtitle "HI-TECH Software Omniscient Code Generator (Lite mode) build 49521"
     2                           opt subtitle "HI-TECH Software Omniscient Code Generator (Lite mode) build 49521"
     3                           
     4                           opt pagewidth 120
     5                           
     6                           	opt lm
     7                           
     8  0000                     porta	equ	0F80h
     9  0000                     portb	equ	0F81h
    10  0000                     portc	equ	0F82h
    11  0000                     portd	equ	0F83h
    12  0000                     porte	equ	0F84h
    13  0000                     lata	equ	0F89h
    14  0000                     latb	equ	0F8Ah
    15  0000                     latc	equ	0F8Bh
    16  0000                     latd	equ	0F8Ch
    17  0000                     late	equ	0F8Dh
    18  0000                     trisa	equ	0F92h
    19  0000                     trisb	equ	0F93h
    20  0000                     trisc	equ	0F94h
    21  0000                     trisd	equ	0F95h
    22  0000                     trise	equ	0F96h
    23  0000                     pie1	equ	0F9Dh
    24  0000                     pir1	equ	0F9Eh
    25  0000                     ipr1	equ	0F9Fh
    26  0000                     pie2	equ	0FA0h
    27  0000                     pir2	equ	0FA1h
    28  0000                     ipr2	equ	0FA2h
    29  0000                     t3con	equ	0FB1h
    30  0000                     tmr3l	equ	0FB2h
    31  0000                     tmr3h	equ	0FB3h
    32  0000                     ccp1con	equ	0FBDh
    33  0000                     ccpr1l	equ	0FBEh
    34  0000                     ccpr1h	equ	0FBFh
    35  0000                     adcon1	equ	0FC1h
    36  0000                     adcon0	equ	0FC2h
    37  0000                     adresl	equ	0FC3h
    38  0000                     adresh	equ	0FC4h
    39  0000                     sspcon2	equ	0FC5h
    40  0000                     sspcon1	equ	0FC6h
    41  0000                     sspstat	equ	0FC7h
    42  0000                     sspadd	equ	0FC8h
    43  0000                     sspbuf	equ	0FC9h
    44  0000                     t2con	equ	0FCAh
    45  0000                     pr2	equ	0FCBh
    46  0000                     tmr2	equ	0FCCh
    47  0000                     t1con	equ	0FCDh
    48  0000                     tmr1l	equ	0FCEh
    49  0000                     tmr1h	equ	0FCFh
    50  0000                     rcon	equ	0FD0h
    51  0000                     wdtcon	equ	0FD1h
    52  0000                     lvdcon	equ	0FD2h
    53  0000                     osccon	equ	0FD3h
    54  0000                     t0con	equ	0FD5h
    55  0000                     tmr0l	equ	0FD6h
    56  0000                     tmr0h	equ	0FD7h
    57  0000                     status	equ	0FD8h
    58  0000                     fsr2	equ	0FD9h
    59  0000                     fsr2l	equ	0FD9h
    60  0000                     fsr2h	equ	0FDAh
    61  0000                     plusw2	equ	0FDBh
    62  0000                     preinc2	equ	0FDCh
    63  0000                     postdec2	equ	0FDDh
    64  0000                     postinc2	equ	0FDEh
    65  0000                     indf2	equ	0FDFh
    66  0000                     bsr	equ	0FE0h
    67  0000                     fsr1	equ	0FE1h
    68  0000                     fsr1l	equ	0FE1h
    69  0000                     fsr1h	equ	0FE2h
    70  0000                     plusw1	equ	0FE3h
    71  0000                     preinc1	equ	0FE4h
    72  0000                     postdec1	equ	0FE5h
    73  0000                     postinc1	equ	0FE6h
    74  0000                     indf1	equ	0FE7h
    75  0000                     wreg	equ	0FE8h
    76  0000                     fsr0	equ	0FE9h
    77  0000                     fsr0l	equ	0FE9h
    78  0000                     fsr0h	equ	0FEAh
    79  0000                     plusw0	equ	0FEBh
    80  0000                     preinc0	equ	0FECh
    81  0000                     postdec0	equ	0FEDh
    82  0000                     postinc0	equ	0FEEh
    83  0000                     indf0	equ	0FEFh
    84  0000                     intcon3	equ	0FF0h
    85  0000                     intcon2	equ	0FF1h
    86  0000                     intcon	equ	0FF2h
    87  0000                     prod	equ	0FF3h
    88  0000                     prodl	equ	0FF3h
    89  0000                     prodh	equ	0FF4h
    90  0000                     tablat	equ	0FF5h
    91  0000                     tblptr	equ	0FF6h
    92  0000                     tblptrl	equ	0FF6h
    93  0000                     tblptrh	equ	0FF7h
    94  0000                     tblptru	equ	0FF8h
    95  0000                     pcl	equ	0FF9h
    96  0000                     pclat	equ	0FFAh
    97  0000                     pclath	equ	0FFAh
    98  0000                     pclatu	equ	0FFBh
    99  0000                     stkptr	equ	0FFCh
   100  0000                     tosl	equ	0FFDh
   101  0000                     tosh	equ	0FFEh
   102  0000                     tosu	equ	0FFFh
   103                           opt subtitle "HI-TECH Software Omniscient Code Generator (Lite mode) build 49521"
   104                           
   105  0000                     	endm
   106                           opt subtitle "HI-TECH Software Omniscient Code Generator (Lite mode) build 49521"
   107                           
   108                           opt pagewidth 120
   109  0000                     PMD3 equ 0F16h ;# 
   110                           opt subtitle "HI-TECH Software Omniscient Code Generator (Lite mode) build 49521"
   111  0000                     PMD2 equ 0F17h ;# 
   112                           opt subtitle "HI-TECH Software Omniscient Code Generator (Lite mode) build 49521"
   113  0000                     PMD1 equ 0F18h ;# 
   114                           opt subtitle "HI-TECH Software Omniscient Code Generator (Lite mode) build 49521"
   115  0000                     PMD0 equ 0F19h ;# 
   116                           opt subtitle "HI-TECH Software Omniscient Code Generator (Lite mode) build 49521"
   117  0000                     PSTR3CON equ 0F1Ah ;# 
   118                           opt subtitle "HI-TECH Software Omniscient Code Generator (Lite mode) build 49521"
   119  0000                     PSTR2CON equ 0F1Bh ;# 
   120                           opt subtitle "HI-TECH Software Omniscient Code Generator (Lite mode) build 49521"
   121  0000                     TXREG2 equ 0F1Ch ;# 
   122                           opt subtitle "HI-TECH Software Omniscient Code Generator (Lite mode) build 49521"
   123  0000                     RCREG2 equ 0F1Dh ;# 
   124                           opt subtitle "HI-TECH Software Omniscient Code Generator (Lite mode) build 49521"
   125  0000                     SPBRG2 equ 0F1Eh ;# 
   126                           opt subtitle "HI-TECH Software Omniscient Code Generator (Lite mode) build 49521"
   127  0000                     SPBRGH2 equ 0F1Fh ;# 
   128                           opt subtitle "HI-TECH Software Omniscient Code Generator (Lite mode) build 49521"
   129  0000                     BAUDCON2 equ 0F20h ;# 
   130                           opt subtitle "HI-TECH Software Omniscient Code Generator (Lite mode) build 49521"
   131  0000                     TXSTA2 equ 0F21h ;# 
   132                           opt subtitle "HI-TECH Software Omniscient Code Generator (Lite mode) build 49521"
   133  0000                     RCSTA2 equ 0F22h ;# 
   134                           opt subtitle "HI-TECH Software Omniscient Code Generator (Lite mode) build 49521"
   135  0000                     ANCON2 equ 0F23h ;# 
   136                           opt subtitle "HI-TECH Software Omniscient Code Generator (Lite mode) build 49521"
   137  0000                     ANCON1 equ 0F24h ;# 
   138                           opt subtitle "HI-TECH Software Omniscient Code Generator (Lite mode) build 49521"
   139  0000                     ANCON0 equ 0F25h ;# 
   140                           opt subtitle "HI-TECH Software Omniscient Code Generator (Lite mode) build 49521"
   141  0000                     ODCON3 equ 0F27h ;# 
   142                           opt subtitle "HI-TECH Software Omniscient Code Generator (Lite mode) build 49521"
   143  0000                     ODCON2 equ 0F28h ;# 
   144                           opt subtitle "HI-TECH Software Omniscient Code Generator (Lite mode) build 49521"
   145  0000                     ODCON1 equ 0F29h ;# 
   146                           opt subtitle "HI-TECH Software Omniscient Code Generator (Lite mode) build 49521"
   147  0000                     REFOCON equ 0F2Ah ;# 
   148                           opt subtitle "HI-TECH Software Omniscient Code Generator (Lite mode) build 49521"
   149  0000                     CCPTMRS2 equ 0F2Bh ;# 
   150                           opt subtitle "HI-TECH Software Omniscient Code Generator (Lite mode) build 49521"
   151  0000                     CCPTMRS1 equ 0F2Ch ;# 
   152                           opt subtitle "HI-TECH Software Omniscient Code Generator (Lite mode) build 49521"
   153  0000                     CCPTMRS0 equ 0F2Dh ;# 
   154                           opt subtitle "HI-TECH Software Omniscient Code Generator (Lite mode) build 49521"
   155  0000                     CM3CON equ 0F2Eh ;# 
   156                           opt subtitle "HI-TECH Software Omniscient Code Generator (Lite mode) build 49521"
   157  0000                     CM3CON1 equ 0F2Eh ;# 
   158                           opt subtitle "HI-TECH Software Omniscient Code Generator (Lite mode) build 49521"
   159  0000                     CM2CON equ 0F2Fh ;# 
   160                           opt subtitle "HI-TECH Software Omniscient Code Generator (Lite mode) build 49521"
   161  0000                     CM2CON1 equ 0F2Fh ;# 
   162                           opt subtitle "HI-TECH Software Omniscient Code Generator (Lite mode) build 49521"
   163  0000                     T8CON equ 0F36h ;# 
   164                           opt subtitle "HI-TECH Software Omniscient Code Generator (Lite mode) build 49521"
   165  0000                     PR8 equ 0F37h ;# 
   166                           opt subtitle "HI-TECH Software Omniscient Code Generator (Lite mode) build 49521"
   167  0000                     TMR8 equ 0F38h ;# 
   168                           opt subtitle "HI-TECH Software Omniscient Code Generator (Lite mode) build 49521"
   169  0000                     T6CON equ 0F39h ;# 
   170                           opt subtitle "HI-TECH Software Omniscient Code Generator (Lite mode) build 49521"
   171  0000                     PR6 equ 0F3Ah ;# 
   172                           opt subtitle "HI-TECH Software Omniscient Code Generator (Lite mode) build 49521"
   173  0000                     TMR6 equ 0F3Bh ;# 
   174                           opt subtitle "HI-TECH Software Omniscient Code Generator (Lite mode) build 49521"
   175  0000                     CCP8CON equ 0F46h ;# 
   176                           opt subtitle "HI-TECH Software Omniscient Code Generator (Lite mode) build 49521"
   177  0000                     CCPR8 equ 0F47h ;# 
   178                           opt subtitle "HI-TECH Software Omniscient Code Generator (Lite mode) build 49521"
   179  0000                     CCPR8L equ 0F47h ;# 
   180                           opt subtitle "HI-TECH Software Omniscient Code Generator (Lite mode) build 49521"
   181  0000                     CCPR8H equ 0F48h ;# 
   182                           opt subtitle "HI-TECH Software Omniscient Code Generator (Lite mode) build 49521"
   183  0000                     CCP3CON equ 0F49h ;# 
   184                           opt subtitle "HI-TECH Software Omniscient Code Generator (Lite mode) build 49521"
   185  0000                     CCPR3 equ 0F4Ah ;# 
   186                           opt subtitle "HI-TECH Software Omniscient Code Generator (Lite mode) build 49521"
   187  0000                     CCPR3L equ 0F4Ah ;# 
   188                           opt subtitle "HI-TECH Software Omniscient Code Generator (Lite mode) build 49521"
   189  0000                     CCPR3H equ 0F4Bh ;# 
   190                           opt subtitle "HI-TECH Software Omniscient Code Generator (Lite mode) build 49521"
   191  0000                     ECCP3DEL equ 0F4Ch ;# 
   192                           opt subtitle "HI-TECH Software Omniscient Code Generator (Lite mode) build 49521"
   193  0000                     ECCP3AS equ 0F4Dh ;# 
   194                           opt subtitle "HI-TECH Software Omniscient Code Generator (Lite mode) build 49521"
   195  0000                     CCP2CON equ 0F4Eh ;# 
   196                           opt subtitle "HI-TECH Software Omniscient Code Generator (Lite mode) build 49521"
   197  0000                     ECCP2CON equ 0F4Eh ;# 
   198                           opt subtitle "HI-TECH Software Omniscient Code Generator (Lite mode) build 49521"
   199  0000                     CCPR2 equ 0F4Fh ;# 
   200                           opt subtitle "HI-TECH Software Omniscient Code Generator (Lite mode) build 49521"
   201  0000                     CCPR2L equ 0F4Fh ;# 
   202                           opt subtitle "HI-TECH Software Omniscient Code Generator (Lite mode) build 49521"
   203  0000                     CCPR2H equ 0F50h ;# 
   204                           opt subtitle "HI-TECH Software Omniscient Code Generator (Lite mode) build 49521"
   205  0000                     ECCP2DEL equ 0F51h ;# 
   206                           opt subtitle "HI-TECH Software Omniscient Code Generator (Lite mode) build 49521"
   207  0000                     PWM2CON equ 0F51h ;# 
   208                           opt subtitle "HI-TECH Software Omniscient Code Generator (Lite mode) build 49521"
   209  0000                     ECCP2AS equ 0F52h ;# 
   210                           opt subtitle "HI-TECH Software Omniscient Code Generator (Lite mode) build 49521"
   211  0000                     PADCFG1 equ 0F53h ;# 
   212                           opt subtitle "HI-TECH Software Omniscient Code Generator (Lite mode) build 49521"
   213  0000                     CM1CON equ 0F54h ;# 
   214                           opt subtitle "HI-TECH Software Omniscient Code Generator (Lite mode) build 49521"
   215  0000                     CM1CON1 equ 0F54h ;# 
   216                           opt subtitle "HI-TECH Software Omniscient Code Generator (Lite mode) build 49521"
   217  0000                     CTMUICON equ 0F55h ;# 
   218                           opt subtitle "HI-TECH Software Omniscient Code Generator (Lite mode) build 49521"
   219  0000                     CTMUCONL equ 0F56h ;# 
   220                           opt subtitle "HI-TECH Software Omniscient Code Generator (Lite mode) build 49521"
   221  0000                     CTMUCONH equ 0F57h ;# 
   222                           opt subtitle "HI-TECH Software Omniscient Code Generator (Lite mode) build 49521"
   223  0000                     ALRMVAL equ 0F58h ;# 
   224                           opt subtitle "HI-TECH Software Omniscient Code Generator (Lite mode) build 49521"
   225  0000                     ALRMVALL equ 0F58h ;# 
   226                           opt subtitle "HI-TECH Software Omniscient Code Generator (Lite mode) build 49521"
   227  0000                     ALRMVALH equ 0F59h ;# 
   228                           opt subtitle "HI-TECH Software Omniscient Code Generator (Lite mode) build 49521"
   229  0000                     ALRMRPT equ 0F5Ah ;# 
   230                           opt subtitle "HI-TECH Software Omniscient Code Generator (Lite mode) build 49521"
   231  0000                     ALRMCFG equ 0F5Bh ;# 
   232                           opt subtitle "HI-TECH Software Omniscient Code Generator (Lite mode) build 49521"
   233  0000                     RTCVAL equ 0F5Ch ;# 
   234                           opt subtitle "HI-TECH Software Omniscient Code Generator (Lite mode) build 49521"
   235  0000                     RTCVALL equ 0F5Ch ;# 
   236                           opt subtitle "HI-TECH Software Omniscient Code Generator (Lite mode) build 49521"
   237  0000                     RTCVALH equ 0F5Dh ;# 
   238                           opt subtitle "HI-TECH Software Omniscient Code Generator (Lite mode) build 49521"
   239  0000                     RTCCAL equ 0F5Eh ;# 
   240                           opt subtitle "HI-TECH Software Omniscient Code Generator (Lite mode) build 49521"
   241  0000                     RTCCFG equ 0F5Fh ;# 
   242                           opt subtitle "HI-TECH Software Omniscient Code Generator (Lite mode) build 49521"
   243  0000                     PIE6 equ 0F60h ;# 
   244                           opt subtitle "HI-TECH Software Omniscient Code Generator (Lite mode) build 49521"
   245  0000                     EEDATA equ 0F61h ;# 
   246                           opt subtitle "HI-TECH Software Omniscient Code Generator (Lite mode) build 49521"
   247  0000                     EEADR equ 0F62h ;# 
   248                           opt subtitle "HI-TECH Software Omniscient Code Generator (Lite mode) build 49521"
   249  0000                     EEADRH equ 0F63h ;# 
   250                           opt subtitle "HI-TECH Software Omniscient Code Generator (Lite mode) build 49521"
   251  0000                     OSCCON2 equ 0F64h ;# 
   252                           opt subtitle "HI-TECH Software Omniscient Code Generator (Lite mode) build 49521"
   253  0000                     BAUDCON1 equ 0F65h ;# 
   254                           opt subtitle "HI-TECH Software Omniscient Code Generator (Lite mode) build 49521"
   255  0000                     BAUDCTL equ 0F65h ;# 
   256                           opt subtitle "HI-TECH Software Omniscient Code Generator (Lite mode) build 49521"
   257  0000                     BAUDCON equ 0F65h ;# 
   258                           opt subtitle "HI-TECH Software Omniscient Code Generator (Lite mode) build 49521"
   259  0000                     SSP2CON2 equ 0F66h ;# 
   260                           opt subtitle "HI-TECH Software Omniscient Code Generator (Lite mode) build 49521"
   261  0000                     SSP2CON1 equ 0F67h ;# 
   262                           opt subtitle "HI-TECH Software Omniscient Code Generator (Lite mode) build 49521"
   263  0000                     SSP2STAT equ 0F68h ;# 
   264                           opt subtitle "HI-TECH Software Omniscient Code Generator (Lite mode) build 49521"
   265  0000                     SSP2ADD equ 0F69h ;# 
   266                           opt subtitle "HI-TECH Software Omniscient Code Generator (Lite mode) build 49521"
   267  0000                     SSP2MSK equ 0F69h ;# 
   268                           opt subtitle "HI-TECH Software Omniscient Code Generator (Lite mode) build 49521"
   269  0000                     SSP2BUF equ 0F6Ah ;# 
   270                           opt subtitle "HI-TECH Software Omniscient Code Generator (Lite mode) build 49521"
   271  0000                     T4CON equ 0F6Bh ;# 
   272                           opt subtitle "HI-TECH Software Omniscient Code Generator (Lite mode) build 49521"
   273  0000                     PR4 equ 0F6Ch ;# 
   274                           opt subtitle "HI-TECH Software Omniscient Code Generator (Lite mode) build 49521"
   275  0000                     TMR4 equ 0F6Dh ;# 
   276                           opt subtitle "HI-TECH Software Omniscient Code Generator (Lite mode) build 49521"
   277  0000                     CCP7CON equ 0F6Eh ;# 
   278                           opt subtitle "HI-TECH Software Omniscient Code Generator (Lite mode) build 49521"
   279  0000                     CCPR7 equ 0F6Fh ;# 
   280                           opt subtitle "HI-TECH Software Omniscient Code Generator (Lite mode) build 49521"
   281  0000                     CCPR7L equ 0F6Fh ;# 
   282                           opt subtitle "HI-TECH Software Omniscient Code Generator (Lite mode) build 49521"
   283  0000                     CCPR7H equ 0F70h ;# 
   284                           opt subtitle "HI-TECH Software Omniscient Code Generator (Lite mode) build 49521"
   285  0000                     CCP6CON equ 0F71h ;# 
   286                           opt subtitle "HI-TECH Software Omniscient Code Generator (Lite mode) build 49521"
   287  0000                     CCPR6 equ 0F72h ;# 
   288                           opt subtitle "HI-TECH Software Omniscient Code Generator (Lite mode) build 49521"
   289  0000                     CCPR6L equ 0F72h ;# 
   290                           opt subtitle "HI-TECH Software Omniscient Code Generator (Lite mode) build 49521"
   291  0000                     CCPR6H equ 0F73h ;# 
   292                           opt subtitle "HI-TECH Software Omniscient Code Generator (Lite mode) build 49521"
   293  0000                     CCP5CON equ 0F74h ;# 
   294                           opt subtitle "HI-TECH Software Omniscient Code Generator (Lite mode) build 49521"
   295  0000                     CCPR5 equ 0F75h ;# 
   296                           opt subtitle "HI-TECH Software Omniscient Code Generator (Lite mode) build 49521"
   297  0000                     CCPR5L equ 0F75h ;# 
   298                           opt subtitle "HI-TECH Software Omniscient Code Generator (Lite mode) build 49521"
   299  0000                     CCPR5H equ 0F76h ;# 
   300                           opt subtitle "HI-TECH Software Omniscient Code Generator (Lite mode) build 49521"
   301  0000                     CCP4CON equ 0F77h ;# 
   302                           opt subtitle "HI-TECH Software Omniscient Code Generator (Lite mode) build 49521"
   303  0000                     CCPR4 equ 0F78h ;# 
   304                           opt subtitle "HI-TECH Software Omniscient Code Generator (Lite mode) build 49521"
   305  0000                     CCPR4L equ 0F78h ;# 
   306                           opt subtitle "HI-TECH Software Omniscient Code Generator (Lite mode) build 49521"
   307  0000                     CCPR4H equ 0F79h ;# 
   308                           opt subtitle "HI-TECH Software Omniscient Code Generator (Lite mode) build 49521"
   309  0000                     T5GCON equ 0F7Ah ;# 
   310                           opt subtitle "HI-TECH Software Omniscient Code Generator (Lite mode) build 49521"
   311  0000                     T5CON equ 0F7Bh ;# 
   312                           opt subtitle "HI-TECH Software Omniscient Code Generator (Lite mode) build 49521"
   313  0000                     TMR5 equ 0F7Ch ;# 
   314                           opt subtitle "HI-TECH Software Omniscient Code Generator (Lite mode) build 49521"
   315  0000                     TMR5L equ 0F7Ch ;# 
   316                           opt subtitle "HI-TECH Software Omniscient Code Generator (Lite mode) build 49521"
   317  0000                     TMR5H equ 0F7Dh ;# 
   318                           opt subtitle "HI-TECH Software Omniscient Code Generator (Lite mode) build 49521"
   319  0000                     EECON2 equ 0F7Eh ;# 
   320                           opt subtitle "HI-TECH Software Omniscient Code Generator (Lite mode) build 49521"
   321  0000                     EECON1 equ 0F7Fh ;# 
   322                           opt subtitle "HI-TECH Software Omniscient Code Generator (Lite mode) build 49521"
   323  0000                     PORTA equ 0F80h ;# 
   324                           opt subtitle "HI-TECH Software Omniscient Code Generator (Lite mode) build 49521"
   325  0000                     PORTB equ 0F81h ;# 
   326                           opt subtitle "HI-TECH Software Omniscient Code Generator (Lite mode) build 49521"
   327  0000                     PORTC equ 0F82h ;# 
   328                           opt subtitle "HI-TECH Software Omniscient Code Generator (Lite mode) build 49521"
   329  0000                     PORTD equ 0F83h ;# 
   330                           opt subtitle "HI-TECH Software Omniscient Code Generator (Lite mode) build 49521"
   331  0000                     PORTE equ 0F84h ;# 
   332                           opt subtitle "HI-TECH Software Omniscient Code Generator (Lite mode) build 49521"
   333  0000                     PORTF equ 0F85h ;# 
   334                           opt subtitle "HI-TECH Software Omniscient Code Generator (Lite mode) build 49521"
   335  0000                     PORTG equ 0F86h ;# 
   336                           opt subtitle "HI-TECH Software Omniscient Code Generator (Lite mode) build 49521"
   337  0000                     LATA equ 0F89h ;# 
   338                           opt subtitle "HI-TECH Software Omniscient Code Generator (Lite mode) build 49521"
   339  0000                     LATB equ 0F8Ah ;# 
   340                           opt subtitle "HI-TECH Software Omniscient Code Generator (Lite mode) build 49521"
   341  0000                     LATC equ 0F8Bh ;# 
   342                           opt subtitle "HI-TECH Software Omniscient Code Generator (Lite mode) build 49521"
   343  0000                     LATD equ 0F8Ch ;# 
   344                           opt subtitle "HI-TECH Software Omniscient Code Generator (Lite mode) build 49521"
   345  0000                     LATE equ 0F8Dh ;# 
   346                           opt subtitle "HI-TECH Software Omniscient Code Generator (Lite mode) build 49521"
   347  0000                     LATF equ 0F8Eh ;# 
   348                           opt subtitle "HI-TECH Software Omniscient Code Generator (Lite mode) build 49521"
   349  0000                     LATG equ 0F8Fh ;# 
   350                           opt subtitle "HI-TECH Software Omniscient Code Generator (Lite mode) build 49521"
   351  0000                     TRISA equ 0F92h ;# 
   352                           opt subtitle "HI-TECH Software Omniscient Code Generator (Lite mode) build 49521"
   353  0000                     TRISB equ 0F93h ;# 
   354                           opt subtitle "HI-TECH Software Omniscient Code Generator (Lite mode) build 49521"
   355  0000                     TRISC equ 0F94h ;# 
   356                           opt subtitle "HI-TECH Software Omniscient Code Generator (Lite mode) build 49521"
   357  0000                     TRISD equ 0F95h ;# 
   358                           opt subtitle "HI-TECH Software Omniscient Code Generator (Lite mode) build 49521"
   359  0000                     TRISE equ 0F96h ;# 
   360                           opt subtitle "HI-TECH Software Omniscient Code Generator (Lite mode) build 49521"
   361  0000                     TRISF equ 0F97h ;# 
   362                           opt subtitle "HI-TECH Software Omniscient Code Generator (Lite mode) build 49521"
   363  0000                     TRISG equ 0F98h ;# 
   364                           opt subtitle "HI-TECH Software Omniscient Code Generator (Lite mode) build 49521"
   365  0000                     OSCTUNE equ 0F9Bh ;# 
   366                           opt subtitle "HI-TECH Software Omniscient Code Generator (Lite mode) build 49521"
   367  0000                     PSTR1CON equ 0F9Ch ;# 
   368                           opt subtitle "HI-TECH Software Omniscient Code Generator (Lite mode) build 49521"
   369  0000                     PIE1 equ 0F9Dh ;# 
   370                           opt subtitle "HI-TECH Software Omniscient Code Generator (Lite mode) build 49521"
   371  0000                     PIR1 equ 0F9Eh ;# 
   372                           opt subtitle "HI-TECH Software Omniscient Code Generator (Lite mode) build 49521"
   373  0000                     IPR1 equ 0F9Fh ;# 
   374                           opt subtitle "HI-TECH Software Omniscient Code Generator (Lite mode) build 49521"
   375  0000                     PIE2 equ 0FA0h ;# 
   376                           opt subtitle "HI-TECH Software Omniscient Code Generator (Lite mode) build 49521"
   377  0000                     PIR2 equ 0FA1h ;# 
   378                           opt subtitle "HI-TECH Software Omniscient Code Generator (Lite mode) build 49521"
   379  0000                     IPR2 equ 0FA2h ;# 
   380                           opt subtitle "HI-TECH Software Omniscient Code Generator (Lite mode) build 49521"
   381  0000                     PIE3 equ 0FA3h ;# 
   382                           opt subtitle "HI-TECH Software Omniscient Code Generator (Lite mode) build 49521"
   383  0000                     PIR3 equ 0FA4h ;# 
   384                           opt subtitle "HI-TECH Software Omniscient Code Generator (Lite mode) build 49521"
   385  0000                     IPR3 equ 0FA5h ;# 
   386                           opt subtitle "HI-TECH Software Omniscient Code Generator (Lite mode) build 49521"
   387  0000                     PIR6 equ 0FA6h ;# 
   388                           opt subtitle "HI-TECH Software Omniscient Code Generator (Lite mode) build 49521"
   389  0000                     PSPCON equ 0FA7h ;# 
   390                           opt subtitle "HI-TECH Software Omniscient Code Generator (Lite mode) build 49521"
   391  0000                     HLVDCON equ 0FA8h ;# 
   392                           opt subtitle "HI-TECH Software Omniscient Code Generator (Lite mode) build 49521"
   393  0000                     IPR6 equ 0FA9h ;# 
   394                           opt subtitle "HI-TECH Software Omniscient Code Generator (Lite mode) build 49521"
   395  0000                     T1GCON equ 0FAAh ;# 
   396                           opt subtitle "HI-TECH Software Omniscient Code Generator (Lite mode) build 49521"
   397  0000                     RCSTA1 equ 0FABh ;# 
   398                           opt subtitle "HI-TECH Software Omniscient Code Generator (Lite mode) build 49521"
   399  0000                     RCSTA equ 0FABh ;# 
   400                           opt subtitle "HI-TECH Software Omniscient Code Generator (Lite mode) build 49521"
   401  0000                     TXSTA1 equ 0FACh ;# 
   402                           opt subtitle "HI-TECH Software Omniscient Code Generator (Lite mode) build 49521"
   403  0000                     TXSTA equ 0FACh ;# 
   404                           opt subtitle "HI-TECH Software Omniscient Code Generator (Lite mode) build 49521"
   405  0000                     TXREG1 equ 0FADh ;# 
   406                           opt subtitle "HI-TECH Software Omniscient Code Generator (Lite mode) build 49521"
   407  0000                     TXREG equ 0FADh ;# 
   408                           opt subtitle "HI-TECH Software Omniscient Code Generator (Lite mode) build 49521"
   409  0000                     RCREG1 equ 0FAEh ;# 
   410                           opt subtitle "HI-TECH Software Omniscient Code Generator (Lite mode) build 49521"
   411  0000                     RCREG equ 0FAEh ;# 
   412                           opt subtitle "HI-TECH Software Omniscient Code Generator (Lite mode) build 49521"
   413  0000                     SPBRG1 equ 0FAFh ;# 
   414                           opt subtitle "HI-TECH Software Omniscient Code Generator (Lite mode) build 49521"
   415  0000                     SPBRG equ 0FAFh ;# 
   416                           opt subtitle "HI-TECH Software Omniscient Code Generator (Lite mode) build 49521"
   417  0000                     T3GCON equ 0FB0h ;# 
   418                           opt subtitle "HI-TECH Software Omniscient Code Generator (Lite mode) build 49521"
   419  0000                     T3CON equ 0FB1h ;# 
   420                           opt subtitle "HI-TECH Software Omniscient Code Generator (Lite mode) build 49521"
   421  0000                     TMR3 equ 0FB2h ;# 
   422                           opt subtitle "HI-TECH Software Omniscient Code Generator (Lite mode) build 49521"
   423  0000                     TMR3L equ 0FB2h ;# 
   424                           opt subtitle "HI-TECH Software Omniscient Code Generator (Lite mode) build 49521"
   425  0000                     TMR3H equ 0FB3h ;# 
   426                           opt subtitle "HI-TECH Software Omniscient Code Generator (Lite mode) build 49521"
   427  0000                     CMSTAT equ 0FB4h ;# 
   428                           opt subtitle "HI-TECH Software Omniscient Code Generator (Lite mode) build 49521"
   429  0000                     CMSTATUS equ 0FB4h ;# 
   430                           opt subtitle "HI-TECH Software Omniscient Code Generator (Lite mode) build 49521"
   431  0000                     CVRCON equ 0FB5h ;# 
   432                           opt subtitle "HI-TECH Software Omniscient Code Generator (Lite mode) build 49521"
   433  0000                     PIE4 equ 0FB6h ;# 
   434                           opt subtitle "HI-TECH Software Omniscient Code Generator (Lite mode) build 49521"
   435  0000                     PIR4 equ 0FB7h ;# 
   436                           opt subtitle "HI-TECH Software Omniscient Code Generator (Lite mode) build 49521"
   437  0000                     IPR4 equ 0FB8h ;# 
   438                           opt subtitle "HI-TECH Software Omniscient Code Generator (Lite mode) build 49521"
   439  0000                     PIE5 equ 0FB9h ;# 
   440                           opt subtitle "HI-TECH Software Omniscient Code Generator (Lite mode) build 49521"
   441  0000                     PIR5 equ 0FBAh ;# 
   442                           opt subtitle "HI-TECH Software Omniscient Code Generator (Lite mode) build 49521"
   443  0000                     CCP1CON equ 0FBBh ;# 
   444                           opt subtitle "HI-TECH Software Omniscient Code Generator (Lite mode) build 49521"
   445  0000                     ECCP1CON equ 0FBBh ;# 
   446                           opt subtitle "HI-TECH Software Omniscient Code Generator (Lite mode) build 49521"
   447  0000                     CCPR1 equ 0FBCh ;# 
   448                           opt subtitle "HI-TECH Software Omniscient Code Generator (Lite mode) build 49521"
   449  0000                     CCPR1L equ 0FBCh ;# 
   450                           opt subtitle "HI-TECH Software Omniscient Code Generator (Lite mode) build 49521"
   451  0000                     CCPR1H equ 0FBDh ;# 
   452                           opt subtitle "HI-TECH Software Omniscient Code Generator (Lite mode) build 49521"
   453  0000                     ECCP1DEL equ 0FBEh ;# 
   454                           opt subtitle "HI-TECH Software Omniscient Code Generator (Lite mode) build 49521"
   455  0000                     PWM1CON equ 0FBEh ;# 
   456                           opt subtitle "HI-TECH Software Omniscient Code Generator (Lite mode) build 49521"
   457  0000                     ECCP1AS equ 0FBFh ;# 
   458                           opt subtitle "HI-TECH Software Omniscient Code Generator (Lite mode) build 49521"
   459  0000                     ADCON2 equ 0FC0h ;# 
   460                           opt subtitle "HI-TECH Software Omniscient Code Generator (Lite mode) build 49521"
   461  0000                     ADCON1 equ 0FC1h ;# 
   462                           opt subtitle "HI-TECH Software Omniscient Code Generator (Lite mode) build 49521"
   463  0000                     ADCON0 equ 0FC2h ;# 
   464                           opt subtitle "HI-TECH Software Omniscient Code Generator (Lite mode) build 49521"
   465  0000                     ADRES equ 0FC3h ;# 
   466                           opt subtitle "HI-TECH Software Omniscient Code Generator (Lite mode) build 49521"
   467  0000                     ADRESL equ 0FC3h ;# 
   468                           opt subtitle "HI-TECH Software Omniscient Code Generator (Lite mode) build 49521"
   469  0000                     ADRESH equ 0FC4h ;# 
   470                           opt subtitle "HI-TECH Software Omniscient Code Generator (Lite mode) build 49521"
   471  0000                     SSP1CON2 equ 0FC5h ;# 
   472                           opt subtitle "HI-TECH Software Omniscient Code Generator (Lite mode) build 49521"
   473  0000                     SSPCON2 equ 0FC5h ;# 
   474                           opt subtitle "HI-TECH Software Omniscient Code Generator (Lite mode) build 49521"
   475  0000                     SSP1CON1 equ 0FC6h ;# 
   476                           opt subtitle "HI-TECH Software Omniscient Code Generator (Lite mode) build 49521"
   477  0000                     SSPCON1 equ 0FC6h ;# 
   478                           opt subtitle "HI-TECH Software Omniscient Code Generator (Lite mode) build 49521"
   479  0000                     SSP1STAT equ 0FC7h ;# 
   480                           opt subtitle "HI-TECH Software Omniscient Code Generator (Lite mode) build 49521"
   481  0000                     SSPSTAT equ 0FC7h ;# 
   482                           opt subtitle "HI-TECH Software Omniscient Code Generator (Lite mode) build 49521"
   483  0000                     SSP1ADD equ 0FC8h ;# 
   484                           opt subtitle "HI-TECH Software Omniscient Code Generator (Lite mode) build 49521"
   485  0000                     SSPADD equ 0FC8h ;# 
   486                           opt subtitle "HI-TECH Software Omniscient Code Generator (Lite mode) build 49521"
   487  0000                     SSP1MSK equ 0FC8h ;# 
   488                           opt subtitle "HI-TECH Software Omniscient Code Generator (Lite mode) build 49521"
   489  0000                     SSP1BUF equ 0FC9h ;# 
   490                           opt subtitle "HI-TECH Software Omniscient Code Generator (Lite mode) build 49521"
   491  0000                     SSPBUF equ 0FC9h ;# 
   492                           opt subtitle "HI-TECH Software Omniscient Code Generator (Lite mode) build 49521"
   493  0000                     T2CON equ 0FCAh ;# 
   494                           opt subtitle "HI-TECH Software Omniscient Code Generator (Lite mode) build 49521"
   495  0000                     PR2 equ 0FCBh ;# 
   496                           opt subtitle "HI-TECH Software Omniscient Code Generator (Lite mode) build 49521"
   497  0000                     MEMCON equ 0FCBh ;# 
   498                           opt subtitle "HI-TECH Software Omniscient Code Generator (Lite mode) build 49521"
   499  0000                     TMR2 equ 0FCCh ;# 
   500                           opt subtitle "HI-TECH Software Omniscient Code Generator (Lite mode) build 49521"
   501  0000                     T1CON equ 0FCDh ;# 
   502                           opt subtitle "HI-TECH Software Omniscient Code Generator (Lite mode) build 49521"
   503  0000                     TMR1 equ 0FCEh ;# 
   504                           opt subtitle "HI-TECH Software Omniscient Code Generator (Lite mode) build 49521"
   505  0000                     TMR1L equ 0FCEh ;# 
   506                           opt subtitle "HI-TECH Software Omniscient Code Generator (Lite mode) build 49521"
   507  0000                     TMR1H equ 0FCFh ;# 
   508                           opt subtitle "HI-TECH Software Omniscient Code Generator (Lite mode) build 49521"
   509  0000                     RCON equ 0FD0h ;# 
   510                           opt subtitle "HI-TECH Software Omniscient Code Generator (Lite mode) build 49521"
   511  0000                     WDTCON equ 0FD1h ;# 
   512                           opt subtitle "HI-TECH Software Omniscient Code Generator (Lite mode) build 49521"
   513  0000                     IPR5 equ 0FD2h ;# 
   514                           opt subtitle "HI-TECH Software Omniscient Code Generator (Lite mode) build 49521"
   515  0000                     OSCCON equ 0FD3h ;# 
   516                           opt subtitle "HI-TECH Software Omniscient Code Generator (Lite mode) build 49521"
   517  0000                     SPBRGH1 equ 0FD4h ;# 
   518                           opt subtitle "HI-TECH Software Omniscient Code Generator (Lite mode) build 49521"
   519  0000                     T0CON equ 0FD5h ;# 
   520                           opt subtitle "HI-TECH Software Omniscient Code Generator (Lite mode) build 49521"
   521  0000                     TMR0 equ 0FD6h ;# 
   522                           opt subtitle "HI-TECH Software Omniscient Code Generator (Lite mode) build 49521"
   523  0000                     TMR0L equ 0FD6h ;# 
   524                           opt subtitle "HI-TECH Software Omniscient Code Generator (Lite mode) build 49521"
   525  0000                     TMR0H equ 0FD7h ;# 
   526                           opt subtitle "HI-TECH Software Omniscient Code Generator (Lite mode) build 49521"
   527  0000                     STATUS equ 0FD8h ;# 
   528                           opt subtitle "HI-TECH Software Omniscient Code Generator (Lite mode) build 49521"
   529  0000                     FSR2 equ 0FD9h ;# 
   530                           opt subtitle "HI-TECH Software Omniscient Code Generator (Lite mode) build 49521"
   531  0000                     FSR2L equ 0FD9h ;# 
   532                           opt subtitle "HI-TECH Software Omniscient Code Generator (Lite mode) build 49521"
   533  0000                     FSR2H equ 0FDAh ;# 
   534                           opt subtitle "HI-TECH Software Omniscient Code Generator (Lite mode) build 49521"
   535  0000                     PLUSW2 equ 0FDBh ;# 
   536                           opt subtitle "HI-TECH Software Omniscient Code Generator (Lite mode) build 49521"
   537  0000                     PREINC2 equ 0FDCh ;# 
   538                           opt subtitle "HI-TECH Software Omniscient Code Generator (Lite mode) build 49521"
   539  0000                     POSTDEC2 equ 0FDDh ;# 
   540                           opt subtitle "HI-TECH Software Omniscient Code Generator (Lite mode) build 49521"
   541  0000                     POSTINC2 equ 0FDEh ;# 
   542                           opt subtitle "HI-TECH Software Omniscient Code Generator (Lite mode) build 49521"
   543  0000                     INDF2 equ 0FDFh ;# 
   544                           opt subtitle "HI-TECH Software Omniscient Code Generator (Lite mode) build 49521"
   545  0000                     BSR equ 0FE0h ;# 
   546                           opt subtitle "HI-TECH Software Omniscient Code Generator (Lite mode) build 49521"
   547  0000                     FSR1 equ 0FE1h ;# 
   548                           opt subtitle "HI-TECH Software Omniscient Code Generator (Lite mode) build 49521"
   549  0000                     FSR1L equ 0FE1h ;# 
   550                           opt subtitle "HI-TECH Software Omniscient Code Generator (Lite mode) build 49521"
   551  0000                     FSR1H equ 0FE2h ;# 
   552                           opt subtitle "HI-TECH Software Omniscient Code Generator (Lite mode) build 49521"
   553  0000                     PLUSW1 equ 0FE3h ;# 
   554                           opt subtitle "HI-TECH Software Omniscient Code Generator (Lite mode) build 49521"
   555  0000                     PREINC1 equ 0FE4h ;# 
   556                           opt subtitle "HI-TECH Software Omniscient Code Generator (Lite mode) build 49521"
   557  0000                     POSTDEC1 equ 0FE5h ;# 
   558                           opt subtitle "HI-TECH Software Omniscient Code Generator (Lite mode) build 49521"
   559  0000                     POSTINC1 equ 0FE6h ;# 
   560                           opt subtitle "HI-TECH Software Omniscient Code Generator (Lite mode) build 49521"
   561  0000                     INDF1 equ 0FE7h ;# 
   562                           opt subtitle "HI-TECH Software Omniscient Code Generator (Lite mode) build 49521"
   563  0000                     WREG equ 0FE8h ;# 
   564                           opt subtitle "HI-TECH Software Omniscient Code Generator (Lite mode) build 49521"
   565  0000                     FSR0 equ 0FE9h ;# 
   566                           opt subtitle "HI-TECH Software Omniscient Code Generator (Lite mode) build 49521"
   567  0000                     FSR0L equ 0FE9h ;# 
   568                           opt subtitle "HI-TECH Software Omniscient Code Generator (Lite mode) build 49521"
   569  0000                     FSR0H equ 0FEAh ;# 
   570                           opt subtitle "HI-TECH Software Omniscient Code Generator (Lite mode) build 49521"
   571  0000                     PLUSW0 equ 0FEBh ;# 
   572                           opt subtitle "HI-TECH Software Omniscient Code Generator (Lite mode) build 49521"
   573  0000                     PREINC0 equ 0FECh ;# 
   574                           opt subtitle "HI-TECH Software Omniscient Code Generator (Lite mode) build 49521"
   575  0000                     POSTDEC0 equ 0FEDh ;# 
   576                           opt subtitle "HI-TECH Software Omniscient Code Generator (Lite mode) build 49521"
   577  0000                     POSTINC0 equ 0FEEh ;# 
   578                           opt subtitle "HI-TECH Software Omniscient Code Generator (Lite mode) build 49521"
   579  0000                     INDF0 equ 0FEFh ;# 
   580                           opt subtitle "HI-TECH Software Omniscient Code Generator (Lite mode) build 49521"
   581  0000                     INTCON3 equ 0FF0h ;# 
   582                           opt subtitle "HI-TECH Software Omniscient Code Generator (Lite mode) build 49521"
   583  0000                     INTCON2 equ 0FF1h ;# 
   584                           opt subtitle "HI-TECH Software Omniscient Code Generator (Lite mode) build 49521"
   585  0000                     INTCON equ 0FF2h ;# 
   586                           opt subtitle "HI-TECH Software Omniscient Code Generator (Lite mode) build 49521"
   587  0000                     PROD equ 0FF3h ;# 
   588                           opt subtitle "HI-TECH Software Omniscient Code Generator (Lite mode) build 49521"
   589  0000                     PRODL equ 0FF3h ;# 
   590                           opt subtitle "HI-TECH Software Omniscient Code Generator (Lite mode) build 49521"
   591  0000                     PRODH equ 0FF4h ;# 
   592                           opt subtitle "HI-TECH Software Omniscient Code Generator (Lite mode) build 49521"
   593  0000                     TABLAT equ 0FF5h ;# 
   594                           opt subtitle "HI-TECH Software Omniscient Code Generator (Lite mode) build 49521"
   595  0000                     TBLPTR equ 0FF6h ;# 
   596                           opt subtitle "HI-TECH Software Omniscient Code Generator (Lite mode) build 49521"
   597  0000                     TBLPTRL equ 0FF6h ;# 
   598                           opt subtitle "HI-TECH Software Omniscient Code Generator (Lite mode) build 49521"
   599  0000                     TBLPTRH equ 0FF7h ;# 
   600                           opt subtitle "HI-TECH Software Omniscient Code Generator (Lite mode) build 49521"
   601  0000                     TBLPTRU equ 0FF8h ;# 
   602                           opt subtitle "HI-TECH Software Omniscient Code Generator (Lite mode) build 49521"
   603  0000                     PCLAT equ 0FF9h ;# 
   604                           opt subtitle "HI-TECH Software Omniscient Code Generator (Lite mode) build 49521"
   605  0000                     PC equ 0FF9h ;# 
   606                           opt subtitle "HI-TECH Software Omniscient Code Generator (Lite mode) build 49521"
   607  0000                     PCL equ 0FF9h ;# 
   608                           opt subtitle "HI-TECH Software Omniscient Code Generator (Lite mode) build 49521"
   609  0000                     PCLATH equ 0FFAh ;# 
   610                           opt subtitle "HI-TECH Software Omniscient Code Generator (Lite mode) build 49521"
   611  0000                     PCLATU equ 0FFBh ;# 
   612                           opt subtitle "HI-TECH Software Omniscient Code Generator (Lite mode) build 49521"
   613  0000                     STKPTR equ 0FFCh ;# 
   614                           opt subtitle "HI-TECH Software Omniscient Code Generator (Lite mode) build 49521"
   615  0000                     TOS equ 0FFDh ;# 
   616                           opt subtitle "HI-TECH Software Omniscient Code Generator (Lite mode) build 49521"
   617  0000                     TOSL equ 0FFDh ;# 
   618                           opt subtitle "HI-TECH Software Omniscient Code Generator (Lite mode) build 49521"
   619  0000                     TOSH equ 0FFEh ;# 
   620                           opt subtitle "HI-TECH Software Omniscient Code Generator (Lite mode) build 49521"
   621  0000                     TOSU equ 0FFFh ;# 
   622                           opt subtitle "HI-TECH Software Omniscient Code Generator (Lite mode) build 49521"
   623                           
   624                           opt pagewidth 120
   625                           
   626                           	opt lm
   627                           
   628                           	processor	18F65K22
   629                           porta	equ	0F80h
   630                           portb	equ	0F81h
   631                           portc	equ	0F82h
   632                           portd	equ	0F83h
   633                           porte	equ	0F84h
   634                           lata	equ	0F89h
   635                           latb	equ	0F8Ah
   636                           latc	equ	0F8Bh
   637                           latd	equ	0F8Ch
   638                           late	equ	0F8Dh
   639                           trisa	equ	0F92h
   640                           trisb	equ	0F93h
   641                           trisc	equ	0F94h
   642                           trisd	equ	0F95h
   643                           trise	equ	0F96h
   644                           pie1	equ	0F9Dh
   645                           pir1	equ	0F9Eh
   646                           ipr1	equ	0F9Fh
   647                           pie2	equ	0FA0h
   648                           pir2	equ	0FA1h
   649  001576                     __pidataCOMRAM:
   650                           opt subtitle "HI-TECH Software Omniscient Code Generator (Lite mode) build 49521"
   651                           
   652                           opt pagewidth 120
   653                           
   654  001576  0280               	dw	(0280h)&0ffffh
   655  001578  0240               	dw	(0240h)&0ffffh
   656  00157A  0201               	dw	(0201h)&0ffffh
   657  00157C  0202               	dw	(0202h)&0ffffh
   658  00157E  0010               	dw	(010h)&0ffffh
   659  001580  0020               	dw	(020h)&0ffffh
   660  001582  0002               	dw	(02h)&0ffffh
   661  001584  0004               	dw	(04h)&0ffffh
   662  001586  0008               	dw	(08h)&0ffffh
   663                           opt subtitle "HI-TECH Software Omniscient Code Generator (Lite mode) build 49521"
   664                           
   665                           opt pagewidth 120
   666  001588  0100               	dw	(0100h)&0ffffh
   667                           opt subtitle "HI-TECH Software Omniscient Code Generator (Lite mode) build 49521"
   668                           
   669  0014F2                     __pidataBANK0:
   670                           opt subtitle "HI-TECH Software Omniscient Code Generator (Lite mode) build 49521"
   671                           
   672                           opt pagewidth 120
   673  0014F2  0308               	dw	(0308h)&0ffffh
   674  0014F4  0310               	dw	(0310h)&0ffffh
   675  0014F6  0320               	dw	(0320h)&0ffffh
   676  0014F8  0340               	dw	(0340h)&0ffffh
   677  0014FA  0380               	dw	(0380h)&0ffffh
   678  0014FC  0101               	dw	(0101h)&0ffffh
   679  0014FE  0102               	dw	(0102h)&0ffffh
   680  001500  0104               	dw	(0104h)&0ffffh
   681  001502  0108               	dw	(0108h)&0ffffh
   682                           opt subtitle "HI-TECH Software Omniscient Code Generator (Lite mode) build 49521"
   683                           
   684                           opt pagewidth 120
   685  001504  0402               	dw	(0402h)&0ffffh
   686  001506  0401               	dw	(0401h)&0ffffh
   687  001508  0601               	dw	(0601h)&0ffffh
   688  00150A  0602               	dw	(0602h)&0ffffh
   689  00150C  0604               	dw	(0604h)&0ffffh
   690  00150E  0608               	dw	(0608h)&0ffffh
   691  001510  0610               	dw	(0610h)&0ffffh
   692  001512  0580               	dw	(0580h)&0ffffh
   693  001514  0540               	dw	(0540h)&0ffffh
   694                           opt subtitle "HI-TECH Software Omniscient Code Generator (Lite mode) build 49521"
   695                           
   696  001516                     __pidataBANK1:
   697                           opt subtitle "HI-TECH Software Omniscient Code Generator (Lite mode) build 49521"
   698                           
   699                           opt pagewidth 120
   700  001516  0304               	dw	(0304h)&0ffffh
   701  001518  0302               	dw	(0302h)&0ffffh
   702  00151A  0301               	dw	(0301h)&0ffffh
   703  00151C  0480               	dw	(0480h)&0ffffh
   704  00151E  0440               	dw	(0440h)&0ffffh
   705  001520  0420               	dw	(0420h)&0ffffh
   706  001522  0410               	dw	(0410h)&0ffffh
   707  001524  0408               	dw	(0408h)&0ffffh
   708  001526  0404               	dw	(0404h)&0ffffh
   709                           opt subtitle "HI-TECH Software Omniscient Code Generator (Lite mode) build 49521"
   710                           
   711                           opt pagewidth 120
   712  001528  0001               	dw	(01h)&0ffffh
   713  00152A  0001               	dw	(01h)&0ffffh
   714  00152C  0001               	dw	(01h)&0ffffh
   715  00152E  0001               	dw	(01h)&0ffffh
   716  001530  0001               	dw	(01h)&0ffffh
   717  001532  0001               	dw	(01h)&0ffffh
   718  001534  0001               	dw	(01h)&0ffffh
   719  001536  0001               	dw	(01h)&0ffffh
   720  001538  0001               	dw	(01h)&0ffffh
   721                           opt subtitle "HI-TECH Software Omniscient Code Generator (Lite mode) build 49521"
   722                           
   723                           opt pagewidth 120
   724                           
   725                           	opt lm
   726                           
   727                           	processor	18F65K22
   728                           porta	equ	0F80h
   729  0000                     _ADCON0	set	0xFC2
   730                           opt subtitle "HI-TECH Software Omniscient Code Generator (Lite mode) build 49521"
   731  0000                     _ADCON0bits	set	0xFC2
   732                           opt subtitle "HI-TECH Software Omniscient Code Generator (Lite mode) build 49521"
   733  0000                     _ADCON1	set	0xFC1
   734                           opt subtitle "HI-TECH Software Omniscient Code Generator (Lite mode) build 49521"
   735  0000                     _ADCON2	set	0xFC0
   736                           opt subtitle "HI-TECH Software Omniscient Code Generator (Lite mode) build 49521"
   737  0000                     _ADRESH	set	0xFC4
   738                           opt subtitle "HI-TECH Software Omniscient Code Generator (Lite mode) build 49521"
   739  0000                     _ADRESL	set	0xFC3
   740                           opt subtitle "HI-TECH Software Omniscient Code Generator (Lite mode) build 49521"
   741  0000                     _ANCON0	set	0xF25
   742                           opt subtitle "HI-TECH Software Omniscient Code Generator (Lite mode) build 49521"
   743  0000                     _ANCON1	set	0xF24
   744                           opt subtitle "HI-TECH Software Omniscient Code Generator (Lite mode) build 49521"
   745  0000                     _ANCON2	set	0xF23
   746                           opt subtitle "HI-TECH Software Omniscient Code Generator (Lite mode) build 49521"
   747  0000                     _EEADR	set	0xF62
   748                           opt subtitle "HI-TECH Software Omniscient Code Generator (Lite mode) build 49521"
   749  0000                     _EEADRH	set	0xF63
   750                           opt subtitle "HI-TECH Software Omniscient Code Generator (Lite mode) build 49521"
   751  0000                     _EECON1bits	set	0xF7F
   752                           opt subtitle "HI-TECH Software Omniscient Code Generator (Lite mode) build 49521"
   753  0000                     _EECON2	set	0xF7E
   754                           opt subtitle "HI-TECH Software Omniscient Code Generator (Lite mode) build 49521"
   755  0000                     _EEDATA	set	0xF61
   756                           opt subtitle "HI-TECH Software Omniscient Code Generator (Lite mode) build 49521"
   757  0000                     _INTCONbits	set	0xFF2
   758                           opt subtitle "HI-TECH Software Omniscient Code Generator (Lite mode) build 49521"
   759  0000                     _LATA	set	0xF89
   760                           opt subtitle "HI-TECH Software Omniscient Code Generator (Lite mode) build 49521"
   761  0000                     _LATB	set	0xF8A
   762                           opt subtitle "HI-TECH Software Omniscient Code Generator (Lite mode) build 49521"
   763  0000                     _LATC	set	0xF8B
   764                           opt subtitle "HI-TECH Software Omniscient Code Generator (Lite mode) build 49521"
   765  0000                     _LATD	set	0xF8C
   766                           opt subtitle "HI-TECH Software Omniscient Code Generator (Lite mode) build 49521"
   767  0000                     _LATE	set	0xF8D
   768                           opt subtitle "HI-TECH Software Omniscient Code Generator (Lite mode) build 49521"
   769  0000                     _LATF	set	0xF8E
   770                           opt subtitle "HI-TECH Software Omniscient Code Generator (Lite mode) build 49521"
   771  0000                     _LATG	set	0xF8F
   772                           opt subtitle "HI-TECH Software Omniscient Code Generator (Lite mode) build 49521"
   773  0000                     _PORTA	set	0xF80
   774                           opt subtitle "HI-TECH Software Omniscient Code Generator (Lite mode) build 49521"
   775  0000                     _PORTB	set	0xF81
   776                           opt subtitle "HI-TECH Software Omniscient Code Generator (Lite mode) build 49521"
   777  0000                     _PORTC	set	0xF82
   778                           opt subtitle "HI-TECH Software Omniscient Code Generator (Lite mode) build 49521"
   779  0000                     _PORTD	set	0xF83
   780                           opt subtitle "HI-TECH Software Omniscient Code Generator (Lite mode) build 49521"
   781  0000                     _PORTE	set	0xF84
   782                           opt subtitle "HI-TECH Software Omniscient Code Generator (Lite mode) build 49521"
   783  0000                     _PORTF	set	0xF85
   784                           opt subtitle "HI-TECH Software Omniscient Code Generator (Lite mode) build 49521"
   785  0000                     _PORTG	set	0xF86
   786                           opt subtitle "HI-TECH Software Omniscient Code Generator (Lite mode) build 49521"
   787  0000                     _T0CON	set	0xFD5
   788                           opt subtitle "HI-TECH Software Omniscient Code Generator (Lite mode) build 49521"
   789  0000                     _T0CONbits	set	0xFD5
   790                           opt subtitle "HI-TECH Software Omniscient Code Generator (Lite mode) build 49521"
   791  0000                     _TMR0H	set	0xFD7
   792                           opt subtitle "HI-TECH Software Omniscient Code Generator (Lite mode) build 49521"
   793  0000                     _TMR0L	set	0xFD6
   794                           opt subtitle "HI-TECH Software Omniscient Code Generator (Lite mode) build 49521"
   795  0000                     _TRISA	set	0xF92
   796                           opt subtitle "HI-TECH Software Omniscient Code Generator (Lite mode) build 49521"
   797  0000                     _TRISB	set	0xF93
   798                           opt subtitle "HI-TECH Software Omniscient Code Generator (Lite mode) build 49521"
   799  0000                     _TRISC	set	0xF94
   800                           opt subtitle "HI-TECH Software Omniscient Code Generator (Lite mode) build 49521"
   801  0000                     _TRISD	set	0xF95
   802                           opt subtitle "HI-TECH Software Omniscient Code Generator (Lite mode) build 49521"
   803  0000                     _TRISE	set	0xF96
   804                           opt subtitle "HI-TECH Software Omniscient Code Generator (Lite mode) build 49521"
   805  0000                     _TRISF	set	0xF97
   806                           opt subtitle "HI-TECH Software Omniscient Code Generator (Lite mode) build 49521"
   807  0000                     _TRISG	set	0xF98
   808                           opt subtitle "HI-TECH Software Omniscient Code Generator (Lite mode) build 49521"
   809  0000                     _TMR0IE	set	0x7F95
   810                           opt subtitle "HI-TECH Software Omniscient Code Generator (Lite mode) build 49521"
   811  0000                     _TMR0IF	set	0x7F92
   812                           opt subtitle "HI-TECH Software Omniscient Code Generator (Lite mode) build 49521"
   813                           
   814  0000                     __CFG_INTOSCSEL$HIGH equ 0x0
   815                           opt subtitle "HI-TECH Software Omniscient Code Generator (Lite mode) build 49521"
   816  0000                     __CFG_SOSCSEL$DIG equ 0x0
   817                           opt subtitle "HI-TECH Software Omniscient Code Generator (Lite mode) build 49521"
   818  0000                     __CFG_XINST$OFF equ 0x0
   819                           opt subtitle "HI-TECH Software Omniscient Code Generator (Lite mode) build 49521"
   820  0000                     __CFG_RETEN$ON equ 0x0
   821                           opt subtitle "HI-TECH Software Omniscient Code Generator (Lite mode) build 49521"
   822  0000                     __CFG_IESO$OFF equ 0x0
   823                           opt subtitle "HI-TECH Software Omniscient Code Generator (Lite mode) build 49521"
   824  0000                     __CFG_FOSC$INTIO2 equ 0x0
   825                           opt subtitle "HI-TECH Software Omniscient Code Generator (Lite mode) build 49521"
   826  0000                     __CFG_FCMEN$OFF equ 0x0
   827                           opt subtitle "HI-TECH Software Omniscient Code Generator (Lite mode) build 49521"
   828  0000                     __CFG_PLLCFG$OFF equ 0x0
   829                           opt subtitle "HI-TECH Software Omniscient Code Generator (Lite mode) build 49521"
   830  0000                     __CFG_BOREN$SBORDIS equ 0x0
   831                           opt subtitle "HI-TECH Software Omniscient Code Generator (Lite mode) build 49521"
   832  0000                     __CFG_BORPWR$ZPBORMV equ 0x0
   833                           opt subtitle "HI-TECH Software Omniscient Code Generator (Lite mode) build 49521"
   834  0000                     __CFG_BORV$0 equ 0x0
   835                           opt subtitle "HI-TECH Software Omniscient Code Generator (Lite mode) build 49521"
   836  0000                     __CFG_PWRTEN$OFF equ 0x0
   837                           opt subtitle "HI-TECH Software Omniscient Code Generator (Lite mode) build 49521"
   838  0000                     __CFG_WDTPS$1048576 equ 0x0
   839                           opt subtitle "HI-TECH Software Omniscient Code Generator (Lite mode) build 49521"
   840  0000                     __CFG_WDTEN$OFF equ 0x0
   841                           opt subtitle "HI-TECH Software Omniscient Code Generator (Lite mode) build 49521"
   842  0000                     __CFG_RTCOSC$SOSCREF equ 0x0
   843                           opt subtitle "HI-TECH Software Omniscient Code Generator (Lite mode) build 49521"
   844  0000                     __CFG_CCP2MX$PORTC equ 0x0
   845                           opt subtitle "HI-TECH Software Omniscient Code Generator (Lite mode) build 49521"
   846  0000                     __CFG_MSSPMSK$MSK7 equ 0x0
   847                           opt subtitle "HI-TECH Software Omniscient Code Generator (Lite mode) build 49521"
   848  0000                     __CFG_MCLRE$ON equ 0x0
   849                           opt subtitle "HI-TECH Software Omniscient Code Generator (Lite mode) build 49521"
   850  0000                     __CFG_STVREN$ON equ 0x0
   851                           opt subtitle "HI-TECH Software Omniscient Code Generator (Lite mode) build 49521"
   852  0000                     __CFG_BBSIZ$BB2K equ 0x0
   853                           opt subtitle "HI-TECH Software Omniscient Code Generator (Lite mode) build 49521"
   854  0000                     __CFG_CP0$OFF equ 0x0
   855                           opt subtitle "HI-TECH Software Omniscient Code Generator (Lite mode) build 49521"
   856  0000                     __CFG_CP1$OFF equ 0x0
   857                           opt subtitle "HI-TECH Software Omniscient Code Generator (Lite mode) build 49521"
   858  0000                     __CFG_CP2$OFF equ 0x0
   859                           opt subtitle "HI-TECH Software Omniscient Code Generator (Lite mode) build 49521"
   860  0000                     __CFG_CP3$OFF equ 0x0
   861                           opt subtitle "HI-TECH Software Omniscient Code Generator (Lite mode) build 49521"
   862  0000                     __CFG_CPD$OFF equ 0x0
   863                           opt subtitle "HI-TECH Software Omniscient Code Generator (Lite mode) build 49521"
   864  0000                     __CFG_CPB$OFF equ 0x0
   865                           opt subtitle "HI-TECH Software Omniscient Code Generator (Lite mode) build 49521"
   866  0000                     __CFG_WRT0$OFF equ 0x0
   867                           opt subtitle "HI-TECH Software Omniscient Code Generator (Lite mode) build 49521"
   868  0000                     __CFG_WRT1$OFF equ 0x0
   869                           opt subtitle "HI-TECH Software Omniscient Code Generator (Lite mode) build 49521"
   870  0000                     __CFG_WRT2$OFF equ 0x0
   871                           opt subtitle "HI-TECH Software Omniscient Code Generator (Lite mode) build 49521"
   872  0000                     __CFG_WRT3$OFF equ 0x0
   873                           opt subtitle "HI-TECH Software Omniscient Code Generator (Lite mode) build 49521"
   874  0000                     __CFG_WRTB$OFF equ 0x0
   875                           opt subtitle "HI-TECH Software Omniscient Code Generator (Lite mode) build 49521"
   876  0000                     __CFG_WRTC$OFF equ 0x0
   877                           opt subtitle "HI-TECH Software Omniscient Code Generator (Lite mode) build 49521"
   878  0000                     __CFG_WRTD$OFF equ 0x0
   879                           opt subtitle "HI-TECH Software Omniscient Code Generator (Lite mode) build 49521"
   880  0000                     __CFG_EBRT0$OFF equ 0x0
   881                           opt subtitle "HI-TECH Software Omniscient Code Generator (Lite mode) build 49521"
   882  0000                     __CFG_EBRT1$OFF equ 0x0
   883                           opt subtitle "HI-TECH Software Omniscient Code Generator (Lite mode) build 49521"
   884  0000                     __CFG_EBRT2$OFF equ 0x0
   885                           opt subtitle "HI-TECH Software Omniscient Code Generator (Lite mode) build 49521"
   886  0000                     __CFG_EBRT3$OFF equ 0x0
   887                           opt subtitle "HI-TECH Software Omniscient Code Generator (Lite mode) build 49521"
   888  0000                     __CFG_EBRTB$OFF equ 0x0
   889                           opt subtitle "HI-TECH Software Omniscient Code Generator (Lite mode) build 49521"
   890                           
   891                           opt pagewidth 120
   892                           
   893  001372                     __pcinit:
   894                           opt subtitle "HI-TECH Software Omniscient Code Generator (Lite mode) build 49521"
   895  001372                     start_initialization:
   896                           opt subtitle "HI-TECH Software Omniscient Code Generator (Lite mode) build 49521"
   897                           
   898  001372                     __initialization:
   899                           opt subtitle "HI-TECH Software Omniscient Code Generator (Lite mode) build 49521"
   900                           
   901  00003D                     __pbssCOMRAM:
   902                           opt subtitle "HI-TECH Software Omniscient Code Generator (Lite mode) build 49521"
   903  00003D                     _outputAlwaysOnFlag:
   904  00003D                            ds      2
   905                           opt subtitle "HI-TECH Software Omniscient Code Generator (Lite mode) build 49521"
   906  00003F                     _outputPWMState:
   907  00003F                            ds      2
   908                           opt subtitle "HI-TECH Software Omniscient Code Generator (Lite mode) build 49521"
   909                           
   910  000029                     __pdataCOMRAM:
   911                           opt subtitle "HI-TECH Software Omniscient Code Generator (Lite mode) build 49521"
   912                           
   913                           opt pagewidth 120
   914  000029                     _leftLEDMask:
   915  000029                            ds      18
   916                           opt subtitle "HI-TECH Software Omniscient Code Generator (Lite mode) build 49521"
   917                           
   918                           opt pagewidth 120
   919                           
   920  00003B                     _outputHighLength:
   921  00003B                            ds      2
   922                           opt subtitle "HI-TECH Software Omniscient Code Generator (Lite mode) build 49521"
   923                           
   924  000084                     __pbssBANK0:
   925                           opt subtitle "HI-TECH Software Omniscient Code Generator (Lite mode) build 49521"
   926  000084                     _outputFlag:
   927  000084                            ds      18
   928                           opt subtitle "HI-TECH Software Omniscient Code Generator (Lite mode) build 49521"
   929                           
   930  000060                     __pdataBANK0:
   931                           opt subtitle "HI-TECH Software Omniscient Code Generator (Lite mode) build 49521"
   932                           
   933                           opt pagewidth 120
   934  000060                     _relayMask:
   935  000060                            ds      18
   936                           opt subtitle "HI-TECH Software Omniscient Code Generator (Lite mode) build 49521"
   937                           
   938                           opt pagewidth 120
   939                           
   940  000072                     _rightLEDMask:
   941  000072                            ds      18
   942                           opt subtitle "HI-TECH Software Omniscient Code Generator (Lite mode) build 49521"
   943                           
   944  000160                     __pbssBANK1:
   945  000160                     main@F7995:
   946  000160                            ds      18
   947  000172                     main@F7997:
   948  000172                            ds      18
   949  000184                     main@F7999:
   950  000184                            ds      18
   951  000196                     main@F8003:
   952  000196                            ds      18
   953                           opt subtitle "HI-TECH Software Omniscient Code Generator (Lite mode) build 49521"
   954                           
   955  0001A8                     __pdataBANK1:
   956                           opt subtitle "HI-TECH Software Omniscient Code Generator (Lite mode) build 49521"
   957                           
   958                           opt pagewidth 120
   959  0001A8                     _buttonMask:
   960  0001A8                            ds      18
   961                           opt subtitle "HI-TECH Software Omniscient Code Generator (Lite mode) build 49521"
   962                           
   963                           opt pagewidth 120
   964  0001BA                     main@F8001:
   965  0001BA                            ds      18
   966                           opt subtitle "HI-TECH Software Omniscient Code Generator (Lite mode) build 49521"
   967                           
   968                           opt pagewidth 120
   969  001372  EE01  F060         lfsr	0,__pbssBANK1
   970  001376  0E48               movlw	72
   971  001378                     clear_0:
   972  001378  6AEE               clrf	postinc0,c
   973  00137A  06E8               decf	wreg
   974  00137C  E1FD               bnz	clear_0
   975                           opt subtitle "HI-TECH Software Omniscient Code Generator (Lite mode) build 49521"
   976                           
   977  00137E  EE00  F084         lfsr	0,__pbssBANK0
   978  001382  0E12               movlw	18
   979  001384                     clear_1:
   980  001384  6AEE               clrf	postinc0,c
   981  001386  06E8               decf	wreg
   982  001388  E1FD               bnz	clear_1
   983                           opt subtitle "HI-TECH Software Omniscient Code Generator (Lite mode) build 49521"
   984                           
   985  00138A  6A40               clrf	(__pbssCOMRAM+3)&0xffh,c
   986  00138C  6A3F               clrf	(__pbssCOMRAM+2)&0xffh,c
   987  00138E  6A3E               clrf	(__pbssCOMRAM+1)&0xffh,c
   988  001390  6A3D               clrf	(__pbssCOMRAM+0)&0xffh,c
   989                           opt subtitle "HI-TECH Software Omniscient Code Generator (Lite mode) build 49521"
   990                           
   991                           opt pagewidth 120
   992  001392  0E16               	movlw	low (__pidataBANK1)
   993  001394  6EF6               	movwf	tblptrl
   994  001396  0E15               	movlw	high(__pidataBANK1)
   995  001398  6EF7               	movwf	tblptrh
   996  00139A  0E00               	movlw	low highword(__pidataBANK1)
   997  00139C  6EF8               	movwf	tblptru
   998  00139E  EE01  F0A8         	lfsr	0,__pdataBANK1
   999  0013A2  EE10 F024          	lfsr	1,36
  1000  0013A6                     	copy_data0:
  1001  0013A6  0009               	tblrd	*+
  1002  0013A8  CFF5 FFEE          	movff	tablat, postinc0
  1003  0013AC  50E5               	movf	postdec1,w
  1004  0013AE  50E1               	movf	fsr1l,w
  1005  0013B0  E1FA               	bnz	copy_data0
  1006                           opt subtitle "HI-TECH Software Omniscient Code Generator (Lite mode) build 49521"
  1007                           
  1008                           opt pagewidth 120
  1009  0013B2  0EF2               	movlw	low (__pidataBANK0)
  1010  0013B4  6EF6               	movwf	tblptrl
  1011  0013B6  0E14               	movlw	high(__pidataBANK0)
  1012  0013B8  6EF7               	movwf	tblptrh
  1013  0013BA  0E00               	movlw	low highword(__pidataBANK0)
  1014  0013BC  6EF8               	movwf	tblptru
  1015  0013BE  EE00  F060         	lfsr	0,__pdataBANK0
  1016  0013C2  EE10 F024          	lfsr	1,36
  1017  0013C6                     	copy_data1:
  1018  0013C6  0009               	tblrd	*+
  1019  0013C8  CFF5 FFEE          	movff	tablat, postinc0
  1020  0013CC  50E5               	movf	postdec1,w
  1021  0013CE  50E1               	movf	fsr1l,w
  1022  0013D0  E1FA               	bnz	copy_data1
  1023                           opt subtitle "HI-TECH Software Omniscient Code Generator (Lite mode) build 49521"
  1024                           
  1025                           opt pagewidth 120
  1026  0013D2  0E76               	movlw	low (__pidataCOMRAM)
  1027  0013D4  6EF6               	movwf	tblptrl
  1028  0013D6  0E15               	movlw	high(__pidataCOMRAM)
  1029  0013D8  6EF7               	movwf	tblptrh
  1030  0013DA  0E00               	movlw	low highword(__pidataCOMRAM)
  1031  0013DC  6EF8               	movwf	tblptru
  1032  0013DE  EE00  F029         	lfsr	0,__pdataCOMRAM
  1033  0013E2  EE10 F014          	lfsr	1,20
  1034  0013E6                     	copy_data2:
  1035  0013E6  0009               	tblrd	*+
  1036  0013E8  CFF5 FFEE          	movff	tablat, postinc0
  1037  0013EC  50E5               	movf	postdec1,w
  1038  0013EE  50E1               	movf	fsr1l,w
  1039  0013F0  E1FA               	bnz	copy_data2
  1040                           opt subtitle "HI-TECH Software Omniscient Code Generator (Lite mode) build 49521"
  1041                           
  1042                           opt pagewidth 120
  1043                           
  1044                           	opt lm
  1045  0013F2                     end_of_initialization:
  1046  0013F2                     __end_of__initialization:movlb 0
  1047  0013F4  EF10  F001         goto _main	;jump to C main() function
  1048                           opt subtitle "HI-TECH Software Omniscient Code Generator (Lite mode) build 49521"
  1049                           
  1050  000100                     __pcstackBANK1:
  1051                           opt subtitle "HI-TECH Software Omniscient Code Generator (Lite mode) build 49521"
  1052  000100                     main@buttonDown:	; 18 bytes @ 0x0
  1053  000100                     	ds   18
  1054                           opt subtitle "HI-TECH Software Omniscient Code Generator (Lite mode) build 49521"
  1055  000112                     main@buttonEventUp:	; 18 bytes @ 0x12
  1056  000112                     	ds   18
  1057                           opt subtitle "HI-TECH Software Omniscient Code Generator (Lite mode) build 49521"
  1058  000124                     main@buttonState:	; 18 bytes @ 0x24
  1059  000124                     	ds   18
  1060                           opt subtitle "HI-TECH Software Omniscient Code Generator (Lite mode) build 49521"
  1061  000136                     main@buttonLatch:	; 18 bytes @ 0x36
  1062  000136                     	ds   18
  1063                           opt subtitle "HI-TECH Software Omniscient Code Generator (Lite mode) build 49521"
  1064  000148                     main@buttonEventDown:	; 18 bytes @ 0x48
  1065  000148                     	ds   18
  1066                           opt subtitle "HI-TECH Software Omniscient Code Generator (Lite mode) build 49521"
  1067  00015A                     main@adcResult:	; 2 bytes @ 0x5A
  1068  00015A                     	ds   2
  1069                           opt subtitle "HI-TECH Software Omniscient Code Generator (Lite mode) build 49521"
  1070  00015C                     main@programState:	; 2 bytes @ 0x5C
  1071  00015C                     	ds   2
  1072                           opt subtitle "HI-TECH Software Omniscient Code Generator (Lite mode) build 49521"
  1073  00015E                     main@i:	; 2 bytes @ 0x5E
  1074  00015E                     	ds   2
  1075                           opt subtitle "HI-TECH Software Omniscient Code Generator (Lite mode) build 49521"
  1076                           
  1077  000096                     __pcstackBANK0:
  1078                           opt subtitle "HI-TECH Software Omniscient Code Generator (Lite mode) build 49521"
  1079  000096                     ?_setOutputs:	; 0 bytes @ 0x0
  1080                           opt subtitle "HI-TECH Software Omniscient Code Generator (Lite mode) build 49521"
  1081  000096                     setupIO@state:	; 2 bytes @ 0x0
  1082                           opt subtitle "HI-TECH Software Omniscient Code Generator (Lite mode) build 49521"
  1083  000096                     setOutputs@alwayson:	; 2 bytes @ 0x0
  1084  000096                     	ds   2
  1085                           opt subtitle "HI-TECH Software Omniscient Code Generator (Lite mode) build 49521"
  1086  000098                     setupIO@port:	; 2 bytes @ 0x2
  1087                           opt subtitle "HI-TECH Software Omniscient Code Generator (Lite mode) build 49521"
  1088  000098                     setOutputs@ledIndex:	; 2 bytes @ 0x2
  1089  000098                     	ds   2
  1090                           opt subtitle "HI-TECH Software Omniscient Code Generator (Lite mode) build 49521"
  1091  00009A                     setupIO@mask:	; 1 bytes @ 0x4
  1092                           opt subtitle "HI-TECH Software Omniscient Code Generator (Lite mode) build 49521"
  1093  00009A                     setOutputs@relay:	; 2 bytes @ 0x4
  1094  00009A                     	ds   2
  1095                           opt subtitle "HI-TECH Software Omniscient Code Generator (Lite mode) build 49521"
  1096  00009C                     setOutputs@value:	; 2 bytes @ 0x6
  1097  00009C                     	ds   2
  1098  00009E                     ??_setOutputs:	; 0 bytes @ 0x8
  1099  00009E                     	ds   2
  1100  0000A0                     ??_main:	; 0 bytes @ 0xA
  1101  0000A0                     	ds   4
  1102                           opt subtitle "HI-TECH Software Omniscient Code Generator (Lite mode) build 49521"
  1103                           
  1104  000001                     __pcstackCOMRAM:
  1105  000001                     ?_ConvertADC:	; 0 bytes @ 0x0
  1106  000001                     ?_Busy_eep:	; 0 bytes @ 0x0
  1107  000001                     ?_pwm_int:	; 0 bytes @ 0x0
  1108                           opt subtitle "HI-TECH Software Omniscient Code Generator (Lite mode) build 49521"
  1109  000001                     ?i2_setOutput:	; 0 bytes @ 0x0
  1110                           opt subtitle "HI-TECH Software Omniscient Code Generator (Lite mode) build 49521"
  1111  000001                     ?i2_WriteTimer0:	; 0 bytes @ 0x0
  1112  000001                     ?_BusyADC:	; 1 bytes @ 0x0
  1113  000001                     ?_main:	; 2 bytes @ 0x0
  1114                           opt subtitle "HI-TECH Software Omniscient Code Generator (Lite mode) build 49521"
  1115  000001                     i2setOutput@row:	; 2 bytes @ 0x0
  1116                           opt subtitle "HI-TECH Software Omniscient Code Generator (Lite mode) build 49521"
  1117  000001                     i2WriteTimer0@timer0:	; 2 bytes @ 0x0
  1118  000001                     	ds   2
  1119  000003                     ??i2_WriteTimer0:	; 0 bytes @ 0x2
  1120                           opt subtitle "HI-TECH Software Omniscient Code Generator (Lite mode) build 49521"
  1121  000003                     i2setOutput@value:	; 2 bytes @ 0x2
  1122                           opt subtitle "HI-TECH Software Omniscient Code Generator (Lite mode) build 49521"
  1123  000003                     i2WriteTimer0@timer:	; 2 bytes @ 0x2
  1124  000003                     	ds   2
  1125  000005                     ??i2_setOutput:	; 0 bytes @ 0x4
  1126  000005                     	ds   2
  1127                           opt subtitle "HI-TECH Software Omniscient Code Generator (Lite mode) build 49521"
  1128  000007                     i2setOutput@port:	; 2 bytes @ 0x6
  1129  000007                     	ds   2
  1130                           opt subtitle "HI-TECH Software Omniscient Code Generator (Lite mode) build 49521"
  1131  000009                     i2setOutput@mask:	; 1 bytes @ 0x8
  1132  000009                     	ds   1
  1133  00000A                     ??_pwm_int:	; 0 bytes @ 0x9
  1134  00000A                     	ds   20
  1135                           opt subtitle "HI-TECH Software Omniscient Code Generator (Lite mode) build 49521"
  1136  00001E                     pwm_int@i:	; 2 bytes @ 0x1D
  1137  00001E                     	ds   2
  1138                           opt subtitle "HI-TECH Software Omniscient Code Generator (Lite mode) build 49521"
  1139  000020                     ?_WriteTimer0:	; 0 bytes @ 0x1F
  1140                           opt subtitle "HI-TECH Software Omniscient Code Generator (Lite mode) build 49521"
  1141  000020                     ?_setOutput:	; 0 bytes @ 0x1F
  1142                           opt subtitle "HI-TECH Software Omniscient Code Generator (Lite mode) build 49521"
  1143  000020                     ?_OpenTimer0:	; 0 bytes @ 0x1F
  1144  000020                     ??_ConvertADC:	; 0 bytes @ 0x1F
  1145                           opt subtitle "HI-TECH Software Omniscient Code Generator (Lite mode) build 49521"
  1146  000020                     ?_setupIO:	; 0 bytes @ 0x1F
  1147                           opt subtitle "HI-TECH Software Omniscient Code Generator (Lite mode) build 49521"
  1148  000020                     ?__delay_ms:	; 0 bytes @ 0x1F
  1149  000020                     ??_BusyADC:	; 0 bytes @ 0x1F
  1150                           opt subtitle "HI-TECH Software Omniscient Code Generator (Lite mode) build 49521"
  1151  000020                     ?_Write_b_eep:	; 0 bytes @ 0x1F
  1152  000020                     ??_Busy_eep:	; 0 bytes @ 0x1F
  1153                           opt subtitle "HI-TECH Software Omniscient Code Generator (Lite mode) build 49521"
  1154  000020                     ?_Read_b_eep:	; 1 bytes @ 0x1F
  1155                           opt subtitle "HI-TECH Software Omniscient Code Generator (Lite mode) build 49521"
  1156  000020                     ?_checkButton:	; 1 bytes @ 0x1F
  1157                           opt subtitle "HI-TECH Software Omniscient Code Generator (Lite mode) build 49521"
  1158  000020                     ?_ReadADC:	; 2 bytes @ 0x1F
  1159                           opt subtitle "HI-TECH Software Omniscient Code Generator (Lite mode) build 49521"
  1160  000020                     OpenTimer0@config:	; 1 bytes @ 0x1F
  1161                           opt subtitle "HI-TECH Software Omniscient Code Generator (Lite mode) build 49521"
  1162  000020                     __delay_ms@ms:	; 2 bytes @ 0x1F
  1163                           opt subtitle "HI-TECH Software Omniscient Code Generator (Lite mode) build 49521"
  1164  000020                     setupIO@row:	; 2 bytes @ 0x1F
  1165                           opt subtitle "HI-TECH Software Omniscient Code Generator (Lite mode) build 49521"
  1166  000020                     checkButton@row:	; 2 bytes @ 0x1F
  1167                           opt subtitle "HI-TECH Software Omniscient Code Generator (Lite mode) build 49521"
  1168  000020                     setOutput@row:	; 2 bytes @ 0x1F
  1169                           opt subtitle "HI-TECH Software Omniscient Code Generator (Lite mode) build 49521"
  1170  000020                     Read_b_eep@badd:	; 2 bytes @ 0x1F
  1171                           opt subtitle "HI-TECH Software Omniscient Code Generator (Lite mode) build 49521"
  1172  000020                     Write_b_eep@badd:	; 2 bytes @ 0x1F
  1173                           opt subtitle "HI-TECH Software Omniscient Code Generator (Lite mode) build 49521"
  1174  000020                     WriteTimer0@timer0:	; 2 bytes @ 0x1F
  1175  000020                     	ds   1
  1176  000021                     ??_OpenTimer0:	; 0 bytes @ 0x20
  1177  000021                     	ds   1
  1178  000022                     ??_WriteTimer0:	; 0 bytes @ 0x21
  1179  000022                     ??_Read_b_eep:	; 0 bytes @ 0x21
  1180  000022                     ??__delay_ms:	; 0 bytes @ 0x21
  1181  000022                     ??_ReadADC:	; 0 bytes @ 0x21
  1182  000022                     ??_checkButton:	; 0 bytes @ 0x21
  1183                           opt subtitle "HI-TECH Software Omniscient Code Generator (Lite mode) build 49521"
  1184  000022                     Write_b_eep@bdat:	; 1 bytes @ 0x21
  1185                           opt subtitle "HI-TECH Software Omniscient Code Generator (Lite mode) build 49521"
  1186  000022                     __delay_ms@i:	; 2 bytes @ 0x21
  1187                           opt subtitle "HI-TECH Software Omniscient Code Generator (Lite mode) build 49521"
  1188  000022                     setupIO@direction:	; 2 bytes @ 0x21
  1189                           opt subtitle "HI-TECH Software Omniscient Code Generator (Lite mode) build 49521"
  1190  000022                     setOutput@value:	; 2 bytes @ 0x21
  1191                           opt subtitle "HI-TECH Software Omniscient Code Generator (Lite mode) build 49521"
  1192  000022                     WriteTimer0@timer:	; 2 bytes @ 0x21
  1193  000022                     	ds   1
  1194  000023                     ??_Write_b_eep:	; 0 bytes @ 0x22
  1195  000023                     	ds   1
  1196  000024                     ??_setOutput:	; 0 bytes @ 0x23
  1197  000024                     ??_setupIO:	; 0 bytes @ 0x23
  1198                           opt subtitle "HI-TECH Software Omniscient Code Generator (Lite mode) build 49521"
  1199  000024                     Write_b_eep@GIE_BIT_VAL:	; 1 bytes @ 0x23
  1200                           opt subtitle "HI-TECH Software Omniscient Code Generator (Lite mode) build 49521"
  1201  000024                     __delay_ms@j:	; 2 bytes @ 0x23
  1202                           opt subtitle "HI-TECH Software Omniscient Code Generator (Lite mode) build 49521"
  1203  000024                     checkButton@port:	; 2 bytes @ 0x23
  1204  000024                     	ds   2
  1205                           opt subtitle "HI-TECH Software Omniscient Code Generator (Lite mode) build 49521"
  1206  000026                     checkButton@state:	; 2 bytes @ 0x25
  1207                           opt subtitle "HI-TECH Software Omniscient Code Generator (Lite mode) build 49521"
  1208  000026                     setOutput@port:	; 2 bytes @ 0x25
  1209  000026                     	ds   2
  1210                           opt subtitle "HI-TECH Software Omniscient Code Generator (Lite mode) build 49521"
  1211  000028                     checkButton@mask:	; 1 bytes @ 0x27
  1212                           opt subtitle "HI-TECH Software Omniscient Code Generator (Lite mode) build 49521"
  1213  000028                     setOutput@mask:	; 1 bytes @ 0x27
  1214  000028                     	ds   1
  1215                           opt subtitle "HI-TECH Software Omniscient Code Generator (Lite mode) build 49521"
  1216                           
  1217                           opt pagewidth 120
  1218                           
  1219                           	opt lm
  1220                           
  1221                           	processor	18F65K22
  1222                           porta	equ	0F80h
  1223                           portb	equ	0F81h
  1224                           portc	equ	0F82h
  1225                           portd	equ	0F83h
  1226                           porte	equ	0F84h
  1227                           lata	equ	0F89h
  1228                           latb	equ	0F8Ah
  1229                           latc	equ	0F8Bh
  1230                           latd	equ	0F8Ch
  1231                           late	equ	0F8Dh
  1232                           trisa	equ	0F92h
  1233                           trisb	equ	0F93h
  1234                           trisc	equ	0F94h
  1235                           trisd	equ	0F95h
  1236                           trise	equ	0F96h
  1237                           pie1	equ	0F9Dh
  1238                           pir1	equ	0F9Eh
  1239                           ipr1	equ	0F9Fh
  1240                           pie2	equ	0FA0h
  1241                           pir2	equ	0FA1h
  1242                           ipr2	equ	0FA2h
  1243                           t3con	equ	0FB1h
  1244                           tmr3l	equ	0FB2h
  1245                           tmr3h	equ	0FB3h
  1246                           ccp1con	equ	0FBDh
  1247                           ccpr1l	equ	0FBEh
  1248                           ccpr1h	equ	0FBFh
  1249                           adcon1	equ	0FC1h
  1250                           adcon0	equ	0FC2h
  1251                           adresl	equ	0FC3h
  1252                           adresh	equ	0FC4h
  1253                           sspcon2	equ	0FC5h
  1254                           sspcon1	equ	0FC6h
  1255                           sspstat	equ	0FC7h
  1256                           sspadd	equ	0FC8h
  1257                           sspbuf	equ	0FC9h
  1258                           t2con	equ	0FCAh
  1259                           pr2	equ	0FCBh
  1260                           tmr2	equ	0FCCh
  1261                           t1con	equ	0FCDh
  1262                           tmr1l	equ	0FCEh
  1263                           tmr1h	equ	0FCFh
  1264                           rcon	equ	0FD0h
  1265                           wdtcon	equ	0FD1h
  1266                           lvdcon	equ	0FD2h
  1267                           osccon	equ	0FD3h
  1268                           t0con	equ	0FD5h
  1269                           tmr0l	equ	0FD6h
  1270                           tmr0h	equ	0FD7h
  1271                           status	equ	0FD8h
  1272                           fsr2	equ	0FD9h
  1273                           fsr2l	equ	0FD9h
  1274                           fsr2h	equ	0FDAh
  1275                           plusw2	equ	0FDBh
  1276                           preinc2	equ	0FDCh
  1277                           postdec2	equ	0FDDh
  1278                           postinc2	equ	0FDEh
  1279                           indf2	equ	0FDFh
  1280                           bsr	equ	0FE0h
  1281                           fsr1	equ	0FE1h
  1282                           fsr1l	equ	0FE1h
  1283                           fsr1h	equ	0FE2h
  1284                           plusw1	equ	0FE3h
  1285                           preinc1	equ	0FE4h
  1286                           postdec1	equ	0FE5h
  1287                           postinc1	equ	0FE6h
  1288                           indf1	equ	0FE7h
  1289                           wreg	equ	0FE8h
  1290                           fsr0	equ	0FE9h
  1291                           fsr0l	equ	0FE9h
  1292                           fsr0h	equ	0FEAh
  1293                           plusw0	equ	0FEBh
  1294                           preinc0	equ	0FECh
  1295                           postdec0	equ	0FEDh
  1296                           postinc0	equ	0FEEh
  1297                           indf0	equ	0FEFh
  1298                           intcon3	equ	0FF0h
  1299                           intcon2	equ	0FF1h
  1300                           intcon	equ	0FF2h
  1301                           prod	equ	0FF3h
  1302                           prodl	equ	0FF3h
  1303                           prodh	equ	0FF4h
  1304                           tablat	equ	0FF5h
  1305                           tblptr	equ	0FF6h
  1306                           tblptrl	equ	0FF6h
  1307                           tblptrh	equ	0FF7h
  1308                           tblptru	equ	0FF8h
  1309                           pcl	equ	0FF9h
  1310                           pclat	equ	0FFAh
  1311                           pclath	equ	0FFAh
  1312                           pclatu	equ	0FFBh
  1313                           stkptr	equ	0FFCh
  1314                           tosl	equ	0FFDh
  1315                           tosh	equ	0FFEh
  1316                           tosu	equ	0FFFh
  1317                           skipnz macro
  1318                           	btfsc	status,2
  1319                           	endm
  1320                           	global	__ramtop
  1321                           	global	__accesstop
  1322                           # 46 "/opt/microchip/xc8/v1.12/include/pic18f65k22.h"
  1323                           PMD3 equ 0F16h ;# 
  1324                           # 90 "/opt/microchip/xc8/v1.12/include/pic18f65k22.h"
  1325                           PMD2 equ 0F17h ;# 
  1326                           # 140 "/opt/microchip/xc8/v1.12/include/pic18f65k22.h"
  1327                           PMD1 equ 0F18h ;# 
  1328                           # 196 "/opt/microchip/xc8/v1.12/include/pic18f65k22.h"
  1329                           PMD0 equ 0F19h ;# 
  1330                           # 275 "/opt/microchip/xc8/v1.12/include/pic18f65k22.h"
  1331                           PSTR3CON equ 0F1Ah ;# 
  1332                           # 402 "/opt/microchip/xc8/v1.12/include/pic18f65k22.h"
  1333                           PSTR2CON equ 0F1Bh ;# 
  1334                           # 635 "/opt/microchip/xc8/v1.12/include/pic18f65k22.h"
  1335                           TXREG2 equ 0F1Ch ;# 
  1336                           # 654 "/opt/microchip/xc8/v1.12/include/pic18f65k22.h"
  1337                           RCREG2 equ 0F1Dh ;# 
  1338                           # 673 "/opt/microchip/xc8/v1.12/include/pic18f65k22.h"
  1339                           SPBRG2 equ 0F1Eh ;# 
  1340                           # 692 "/opt/microchip/xc8/v1.12/include/pic18f65k22.h"
  1341                           SPBRGH2 equ 0F1Fh ;# 
  1342                           # 711 "/opt/microchip/xc8/v1.12/include/pic18f65k22.h"
  1343                           BAUDCON2 equ 0F20h ;# 
  1344                           # 856 "/opt/microchip/xc8/v1.12/include/pic18f65k22.h"
  1345                           TXSTA2 equ 0F21h ;# 
  1346                           # 984 "/opt/microchip/xc8/v1.12/include/pic18f65k22.h"
  1347                           RCSTA2 equ 0F22h ;# 
  1348                           # 1121 "/opt/microchip/xc8/v1.12/include/pic18f65k22.h"
  1349                           ANCON2 equ 0F23h ;# 
  1350                           # 1193 "/opt/microchip/xc8/v1.12/include/pic18f65k22.h"
  1351                           ANCON1 equ 0F24h ;# 
  1352                           # 1265 "/opt/microchip/xc8/v1.12/include/pic18f65k22.h"
  1353                           ANCON0 equ 0F25h ;# 
  1354                           # 1397 "/opt/microchip/xc8/v1.12/include/pic18f65k22.h"
  1355                           ODCON3 equ 0F27h ;# 
  1356                           # 1429 "/opt/microchip/xc8/v1.12/include/pic18f65k22.h"
  1357                           ODCON2 equ 0F28h ;# 
  1358                           # 1478 "/opt/microchip/xc8/v1.12/include/pic18f65k22.h"
  1359                           ODCON1 equ 0F29h ;# 
  1360                           # 1516 "/opt/microchip/xc8/v1.12/include/pic18f65k22.h"
  1361                           REFOCON equ 0F2Ah ;# 
  1362                           # 1580 "/opt/microchip/xc8/v1.12/include/pic18f65k22.h"
  1363                           CCPTMRS2 equ 0F2Bh ;# 
  1364                           # 1613 "/opt/microchip/xc8/v1.12/include/pic18f65k22.h"
  1365                           CCPTMRS1 equ 0F2Ch ;# 
  1366                           # 1679 "/opt/microchip/xc8/v1.12/include/pic18f65k22.h"
  1367                           CCPTMRS0 equ 0F2Dh ;# 
  1368                           # 1760 "/opt/microchip/xc8/v1.12/include/pic18f65k22.h"
  1369                           CM3CON equ 0F2Eh ;# 
  1370                           # 1765 "/opt/microchip/xc8/v1.12/include/pic18f65k22.h"
  1371                           CM3CON1 equ 0F2Eh ;# 
  1372                           # 2053 "/opt/microchip/xc8/v1.12/include/pic18f65k22.h"
  1373                           CM2CON equ 0F2Fh ;# 
  1374                           # 2058 "/opt/microchip/xc8/v1.12/include/pic18f65k22.h"
  1375                           CM2CON1 equ 0F2Fh ;# 
  1376                           # 2346 "/opt/microchip/xc8/v1.12/include/pic18f65k22.h"
  1377                           T8CON equ 0F36h ;# 
  1378                           # 2416 "/opt/microchip/xc8/v1.12/include/pic18f65k22.h"
  1379                           PR8 equ 0F37h ;# 
  1380                           # 2435 "/opt/microchip/xc8/v1.12/include/pic18f65k22.h"
  1381                           TMR8 equ 0F38h ;# 
  1382                           # 2454 "/opt/microchip/xc8/v1.12/include/pic18f65k22.h"
  1383                           T6CON equ 0F39h ;# 
  1384                           # 2524 "/opt/microchip/xc8/v1.12/include/pic18f65k22.h"
  1385                           PR6 equ 0F3Ah ;# 
  1386                           # 2543 "/opt/microchip/xc8/v1.12/include/pic18f65k22.h"
  1387                           TMR6 equ 0F3Bh ;# 
  1388                           # 2562 "/opt/microchip/xc8/v1.12/include/pic18f65k22.h"
  1389                           CCP8CON equ 0F46h ;# 
  1390                           # 2640 "/opt/microchip/xc8/v1.12/include/pic18f65k22.h"
  1391                           CCPR8 equ 0F47h ;# 
  1392                           # 2646 "/opt/microchip/xc8/v1.12/include/pic18f65k22.h"
  1393                           CCPR8L equ 0F47h ;# 
  1394                           # 2665 "/opt/microchip/xc8/v1.12/include/pic18f65k22.h"
  1395                           CCPR8H equ 0F48h ;# 
  1396                           # 2684 "/opt/microchip/xc8/v1.12/include/pic18f65k22.h"
  1397                           CCP3CON equ 0F49h ;# 
  1398                           # 2765 "/opt/microchip/xc8/v1.12/include/pic18f65k22.h"
  1399                           CCPR3 equ 0F4Ah ;# 
  1400                           # 2771 "/opt/microchip/xc8/v1.12/include/pic18f65k22.h"
  1401                           CCPR3L equ 0F4Ah ;# 
  1402                           # 2790 "/opt/microchip/xc8/v1.12/include/pic18f65k22.h"
  1403                           CCPR3H equ 0F4Bh ;# 
  1404                           # 2809 "/opt/microchip/xc8/v1.12/include/pic18f65k22.h"
  1405                           ECCP3DEL equ 0F4Ch ;# 
  1406                           # 2878 "/opt/microchip/xc8/v1.12/include/pic18f65k22.h"
  1407                           ECCP3AS equ 0F4Dh ;# 
  1408                           # 2959 "/opt/microchip/xc8/v1.12/include/pic18f65k22.h"
  1409                           CCP2CON equ 0F4Eh ;# 
  1410                           # 2964 "/opt/microchip/xc8/v1.12/include/pic18f65k22.h"
  1411                           ECCP2CON equ 0F4Eh ;# 
  1412                           # 3150 "/opt/microchip/xc8/v1.12/include/pic18f65k22.h"
  1413                           CCPR2 equ 0F4Fh ;# 
  1414                           # 3156 "/opt/microchip/xc8/v1.12/include/pic18f65k22.h"
  1415                           CCPR2L equ 0F4Fh ;# 
  1416                           # 3175 "/opt/microchip/xc8/v1.12/include/pic18f65k22.h"
  1417                           CCPR2H equ 0F50h ;# 
  1418                           # 3194 "/opt/microchip/xc8/v1.12/include/pic18f65k22.h"
  1419                           ECCP2DEL equ 0F51h ;# 
  1420                           # 3199 "/opt/microchip/xc8/v1.12/include/pic18f65k22.h"
  1421                           PWM2CON equ 0F51h ;# 
  1422                           # 3331 "/opt/microchip/xc8/v1.12/include/pic18f65k22.h"
  1423                           ECCP2AS equ 0F52h ;# 
  1424                           # 3412 "/opt/microchip/xc8/v1.12/include/pic18f65k22.h"
  1425                           PADCFG1 equ 0F53h ;# 
  1426                           # 3460 "/opt/microchip/xc8/v1.12/include/pic18f65k22.h"
  1427                           CM1CON equ 0F54h ;# 
  1428                           # 3465 "/opt/microchip/xc8/v1.12/include/pic18f65k22.h"
  1429                           CM1CON1 equ 0F54h ;# 
  1430                           # 3787 "/opt/microchip/xc8/v1.12/include/pic18f65k22.h"
  1431                           CTMUICON equ 0F55h ;# 
  1432                           # 3862 "/opt/microchip/xc8/v1.12/include/pic18f65k22.h"
  1433                           CTMUCONL equ 0F56h ;# 
  1434                           # 3939 "/opt/microchip/xc8/v1.12/include/pic18f65k22.h"
  1435                           CTMUCONH equ 0F57h ;# 
  1436                           # 3995 "/opt/microchip/xc8/v1.12/include/pic18f65k22.h"
  1437                           ALRMVAL equ 0F58h ;# 
  1438                           # 4001 "/opt/microchip/xc8/v1.12/include/pic18f65k22.h"
  1439                           ALRMVALL equ 0F58h ;# 
  1440                           # 4020 "/opt/microchip/xc8/v1.12/include/pic18f65k22.h"
  1441                           ALRMVALH equ 0F59h ;# 
  1442                           # 4039 "/opt/microchip/xc8/v1.12/include/pic18f65k22.h"
  1443                           ALRMRPT equ 0F5Ah ;# 
  1444                           # 4108 "/opt/microchip/xc8/v1.12/include/pic18f65k22.h"
  1445                           ALRMCFG equ 0F5Bh ;# 
  1446                           # 4183 "/opt/microchip/xc8/v1.12/include/pic18f65k22.h"
  1447                           RTCVAL equ 0F5Ch ;# 
  1448                           # 4189 "/opt/microchip/xc8/v1.12/include/pic18f65k22.h"
  1449                           RTCVALL equ 0F5Ch ;# 
  1450                           # 4208 "/opt/microchip/xc8/v1.12/include/pic18f65k22.h"
  1451                           RTCVALH equ 0F5Dh ;# 
  1452                           # 4298 "/opt/microchip/xc8/v1.12/include/pic18f65k22.h"
  1453                           RTCCAL equ 0F5Eh ;# 
  1454                           # 4367 "/opt/microchip/xc8/v1.12/include/pic18f65k22.h"
  1455                           RTCCFG equ 0F5Fh ;# 
  1456                           # 4431 "/opt/microchip/xc8/v1.12/include/pic18f65k22.h"
  1457                           PIE6 equ 0F60h ;# 
  1458                           # 4469 "/opt/microchip/xc8/v1.12/include/pic18f65k22.h"
  1459                           EEDATA equ 0F61h ;# 
  1460                           # 4488 "/opt/microchip/xc8/v1.12/include/pic18f65k22.h"
  1461                           EEADR equ 0F62h ;# 
  1462                           # 4507 "/opt/microchip/xc8/v1.12/include/pic18f65k22.h"
  1463                           EEADRH equ 0F63h ;# 
  1464                           # 4526 "/opt/microchip/xc8/v1.12/include/pic18f65k22.h"
  1465                           OSCCON2 equ 0F64h ;# 
  1466                           # 4565 "/opt/microchip/xc8/v1.12/include/pic18f65k22.h"
  1467                           BAUDCON1 equ 0F65h ;# 
  1468                           # 4570 "/opt/microchip/xc8/v1.12/include/pic18f65k22.h"
  1469                           BAUDCTL equ 0F65h ;# 
  1470                           # 4574 "/opt/microchip/xc8/v1.12/include/pic18f65k22.h"
  1471                           BAUDCON equ 0F65h ;# 
  1472                           # 5158 "/opt/microchip/xc8/v1.12/include/pic18f65k22.h"
  1473                           SSP2CON2 equ 0F66h ;# 
  1474                           # 5368 "/opt/microchip/xc8/v1.12/include/pic18f65k22.h"
  1475                           SSP2CON1 equ 0F67h ;# 
  1476                           # 5508 "/opt/microchip/xc8/v1.12/include/pic18f65k22.h"
  1477                           SSP2STAT equ 0F68h ;# 
  1478                           # 5927 "/opt/microchip/xc8/v1.12/include/pic18f65k22.h"
  1479                           SSP2ADD equ 0F69h ;# 
  1480                           # 6017 "/opt/microchip/xc8/v1.12/include/pic18f65k22.h"
  1481                           SSP2MSK equ 0F69h ;# 
  1482                           # 6078 "/opt/microchip/xc8/v1.12/include/pic18f65k22.h"
  1483                           SSP2BUF equ 0F6Ah ;# 
  1484                           # 6097 "/opt/microchip/xc8/v1.12/include/pic18f65k22.h"
  1485                           T4CON equ 0F6Bh ;# 
  1486                           # 6167 "/opt/microchip/xc8/v1.12/include/pic18f65k22.h"
  1487                           PR4 equ 0F6Ch ;# 
  1488                           # 6186 "/opt/microchip/xc8/v1.12/include/pic18f65k22.h"
  1489                           TMR4 equ 0F6Dh ;# 
  1490                           # 6205 "/opt/microchip/xc8/v1.12/include/pic18f65k22.h"
  1491                           CCP7CON equ 0F6Eh ;# 
  1492                           # 6283 "/opt/microchip/xc8/v1.12/include/pic18f65k22.h"
  1493                           CCPR7 equ 0F6Fh ;# 
  1494                           # 6289 "/opt/microchip/xc8/v1.12/include/pic18f65k22.h"
  1495                           CCPR7L equ 0F6Fh ;# 
  1496                           # 6308 "/opt/microchip/xc8/v1.12/include/pic18f65k22.h"
  1497                           CCPR7H equ 0F70h ;# 
  1498                           # 6327 "/opt/microchip/xc8/v1.12/include/pic18f65k22.h"
  1499                           CCP6CON equ 0F71h ;# 
  1500                           # 6405 "/opt/microchip/xc8/v1.12/include/pic18f65k22.h"
  1501                           CCPR6 equ 0F72h ;# 
  1502                           # 6411 "/opt/microchip/xc8/v1.12/include/pic18f65k22.h"
  1503                           CCPR6L equ 0F72h ;# 
  1504                           # 6430 "/opt/microchip/xc8/v1.12/include/pic18f65k22.h"
  1505                           CCPR6H equ 0F73h ;# 
  1506                           # 6449 "/opt/microchip/xc8/v1.12/include/pic18f65k22.h"
  1507  000220                     __ptext0:
  1508                           opt subtitle "HI-TECH Software Omniscient Code Generator (Lite mode) build 49521"
  1509                           
  1510                           opt pagewidth 120
  1511                           
  1512  0000                     	__size_of_main	equ	__end_of_main-_main
  1513                           opt subtitle "HI-TECH Software Omniscient Code Generator (Lite mode) build 49521"
  1514  000220                     _main:
  1515                           opt subtitle "HI-TECH Software Omniscient Code Generator (Lite mode) build 49521"
  1516                           
  1517                           opt pagewidth 120
  1518  000220                     l2040:
  1519                           opt subtitle "HI-TECH Software Omniscient Code Generator (Lite mode) build 49521"
  1520  000220  EE21  F060         	lfsr	2,(main@F7995)	;volatile
  1521  000224  EE11  F000         	lfsr	1,(main@buttonDown)	;volatile
  1522  000228  0E12               	movlw	18
  1523  00022A                     u1471:
  1524  00022A  CFDE FFE6          	movff	postinc2,postinc1
  1525  00022E  2EE8               	decfsz	wreg
  1526  000230  D7FC               	goto	u1471
  1527                           opt subtitle "HI-TECH Software Omniscient Code Generator (Lite mode) build 49521"
  1528                           
  1529  000232  EE21  F072         	lfsr	2,(main@F7997)	;volatile
  1530  000236  EE11  F048         	lfsr	1,(main@buttonEventDown)	;volatile
  1531  00023A  0E12               	movlw	18
  1532  00023C                     u1481:
  1533  00023C  CFDE FFE6          	movff	postinc2,postinc1
  1534  000240  2EE8               	decfsz	wreg
  1535  000242  D7FC               	goto	u1481
  1536                           opt subtitle "HI-TECH Software Omniscient Code Generator (Lite mode) build 49521"
  1537                           
  1538  000244  EE21  F084         	lfsr	2,(main@F7999)	;volatile
  1539  000248  EE11  F012         	lfsr	1,(main@buttonEventUp)	;volatile
  1540  00024C  0E12               	movlw	18
  1541  00024E                     u1491:
  1542  00024E  CFDE FFE6          	movff	postinc2,postinc1
  1543  000252  2EE8               	decfsz	wreg
  1544  000254  D7FC               	goto	u1491
  1545                           opt subtitle "HI-TECH Software Omniscient Code Generator (Lite mode) build 49521"
  1546                           
  1547  000256  EE21  F0BA         	lfsr	2,(main@F8001)	;volatile
  1548  00025A  EE11  F036         	lfsr	1,(main@buttonLatch)	;volatile
  1549  00025E  0E12               	movlw	18
  1550  000260                     u1501:
  1551  000260  CFDE FFE6          	movff	postinc2,postinc1
  1552  000264  2EE8               	decfsz	wreg
  1553  000266  D7FC               	goto	u1501
  1554                           opt subtitle "HI-TECH Software Omniscient Code Generator (Lite mode) build 49521"
  1555                           
  1556  000268  EE21  F096         	lfsr	2,(main@F8003)	;volatile
  1557  00026C  EE11  F024         	lfsr	1,(main@buttonState)	;volatile
  1558  000270  0E12               	movlw	18
  1559  000272                     u1511:
  1560  000272  CFDE FFE6          	movff	postinc2,postinc1
  1561  000276  2EE8               	decfsz	wreg
  1562  000278  D7FC               	goto	u1511
  1563                           opt subtitle "HI-TECH Software Omniscient Code Generator (Lite mode) build 49521"
  1564                           
  1565  00027A                     l2042:
  1566                           opt subtitle "HI-TECH Software Omniscient Code Generator (Lite mode) build 49521"
  1567                           
  1568  00027A  0E00               	movlw	high(0)
  1569  00027C  0101               	movlb	1	; () banked
  1570  00027E  0101               	movlb	1	; () banked
  1571  000280  6F5D               	movwf	((main@programState+1))&0ffh	;volatile
  1572  000282  0E00               	movlw	low(0)
  1573  000284  0101               	movlb	1	; () banked
  1574  000286  6F5C               	movwf	((main@programState))&0ffh	;volatile
  1575                           opt subtitle "HI-TECH Software Omniscient Code Generator (Lite mode) build 49521"
  1576                           
  1577  000288                     l2044:; BSR set to: 1
  1578                           opt subtitle "HI-TECH Software Omniscient Code Generator (Lite mode) build 49521"
  1579                           
  1580  000288  0E00               	movlw	high(0)
  1581  00028A  0101               	movlb	1	; () banked
  1582  00028C  0101               	movlb	1	; () banked
  1583  00028E  6F5B               	movwf	((main@adcResult+1))&0ffh	;volatile
  1584  000290  0E00               	movlw	low(0)
  1585  000292  0101               	movlb	1	; () banked
  1586  000294  6F5A               	movwf	((main@adcResult))&0ffh	;volatile
  1587                           opt subtitle "HI-TECH Software Omniscient Code Generator (Lite mode) build 49521"
  1588                           
  1589  000296                     l2046:; BSR set to: 1
  1590                           opt subtitle "HI-TECH Software Omniscient Code Generator (Lite mode) build 49521"
  1591                           
  1592  000296  0EFF               	movlw	high(0FFEFh)
  1593  000298  6E21               	movwf	((c:?_WriteTimer0+1)),c
  1594  00029A  0EEF               	movlw	low(0FFEFh)
  1595  00029C  6E20               	movwf	((c:?_WriteTimer0)),c
  1596  00029E  ECC5  F00A         	call	_WriteTimer0	;wreg free
  1597                           opt subtitle "HI-TECH Software Omniscient Code Generator (Lite mode) build 49521"
  1598                           
  1599  0002A2                     l2048:
  1600                           opt subtitle "HI-TECH Software Omniscient Code Generator (Lite mode) build 49521"
  1601  0002A2  0100               	movlb	0	; () banked
  1602  0002A4  6FA0               	movwf	(??_main+0+0)&0ffh
  1603  0002A6  0E90               	movlw	low(090h)
  1604  0002A8  6E20               	movwf	((c:?_OpenTimer0)),c
  1605  0002AA  0100               	movlb	0	; () banked
  1606  0002AC  51A0               	movf	(??_main+0+0)&0ffh,w
  1607  0002AE  EC9D  F00A         	call	_OpenTimer0	;wreg free
  1608                           opt subtitle "HI-TECH Software Omniscient Code Generator (Lite mode) build 49521"
  1609                           
  1610  0002B2                     l2050:
  1611                           opt subtitle "HI-TECH Software Omniscient Code Generator (Lite mode) build 49521"
  1612  0002B2  0E01               	movlw	low(01h)
  1613  0002B4  010F               	movlb	15	; () banked
  1614  0002B6  010F               	movlb	15	; () banked
  1615  0002B8  6F25               	movwf	((3877))&0ffh	;volatile
  1616                           opt subtitle "HI-TECH Software Omniscient Code Generator (Lite mode) build 49521"
  1617                           
  1618  0002BA                     l2052:; BSR set to: 15
  1619                           opt subtitle "HI-TECH Software Omniscient Code Generator (Lite mode) build 49521"
  1620                           
  1621  0002BA  0E00               	movlw	low(0)
  1622  0002BC  010F               	movlb	15	; () banked
  1623  0002BE  010F               	movlb	15	; () banked
  1624  0002C0  6F24               	movwf	((3876))&0ffh	;volatile
  1625                           opt subtitle "HI-TECH Software Omniscient Code Generator (Lite mode) build 49521"
  1626                           
  1627  0002C2                     l2054:; BSR set to: 15
  1628                           opt subtitle "HI-TECH Software Omniscient Code Generator (Lite mode) build 49521"
  1629                           
  1630  0002C2  0E00               	movlw	low(0)
  1631  0002C4  010F               	movlb	15	; () banked
  1632  0002C6  010F               	movlb	15	; () banked
  1633  0002C8  6F23               	movwf	((3875))&0ffh	;volatile
  1634                           opt subtitle "HI-TECH Software Omniscient Code Generator (Lite mode) build 49521"
  1635                           
  1636  0002CA                     l2056:; BSR set to: 15
  1637                           opt subtitle "HI-TECH Software Omniscient Code Generator (Lite mode) build 49521"
  1638                           
  1639  0002CA  0E00               	movlw	low(0)
  1640  0002CC  6EC2               	movwf	((c:4034)),c	;volatile
  1641                           opt subtitle "HI-TECH Software Omniscient Code Generator (Lite mode) build 49521"
  1642                           
  1643  0002CE                     l2058:; BSR set to: 15
  1644                           opt subtitle "HI-TECH Software Omniscient Code Generator (Lite mode) build 49521"
  1645                           
  1646  0002CE  0E20               	movlw	low(020h)
  1647  0002D0  6EC1               	movwf	((c:4033)),c	;volatile
  1648                           opt subtitle "HI-TECH Software Omniscient Code Generator (Lite mode) build 49521"
  1649                           
  1650  0002D2                     l2060:; BSR set to: 15
  1651                           opt subtitle "HI-TECH Software Omniscient Code Generator (Lite mode) build 49521"
  1652                           
  1653  0002D2  0EB8               	movlw	low(0B8h)
  1654  0002D4  6EC0               	movwf	((c:4032)),c	;volatile
  1655                           opt subtitle "HI-TECH Software Omniscient Code Generator (Lite mode) build 49521"
  1656                           
  1657  0002D6                     l2062:; BSR set to: 15
  1658                           opt subtitle "HI-TECH Software Omniscient Code Generator (Lite mode) build 49521"
  1659                           
  1660  0002D6  0E01               	movlw	low(01h)
  1661  0002D8  6EC2               	movwf	((c:4034)),c	;volatile
  1662                           opt subtitle "HI-TECH Software Omniscient Code Generator (Lite mode) build 49521"
  1663                           
  1664  0002DA                     l2064:; BSR set to: 15
  1665                           opt subtitle "HI-TECH Software Omniscient Code Generator (Lite mode) build 49521"
  1666                           
  1667  0002DA  ECE8  F00A         	call	_ConvertADC	;wreg free
  1668                           opt subtitle "HI-TECH Software Omniscient Code Generator (Lite mode) build 49521"
  1669                           
  1670  0002DE                     l2066:
  1671                           opt subtitle "HI-TECH Software Omniscient Code Generator (Lite mode) build 49521"
  1672  0002DE  0E05               	movlw	high(0510h)
  1673  0002E0  6E21               	movwf	((c:?_setupIO+1)),c
  1674  0002E2  0E10               	movlw	low(0510h)
  1675  0002E4  6E20               	movwf	((c:?_setupIO)),c
  1676  0002E6  0E00               	movlw	high(01h)
  1677  0002E8  6E23               	movwf	(1+((c:?_setupIO)+02h)),c
  1678  0002EA  0E01               	movlw	low(01h)
  1679  0002EC  6E22               	movwf	(0+((c:?_setupIO)+02h)),c
  1680  0002EE  EC82  F007         	call	_setupIO	;wreg free
  1681                           opt subtitle "HI-TECH Software Omniscient Code Generator (Lite mode) build 49521"
  1682                           
  1683  0002F2                     l2068:
  1684                           opt subtitle "HI-TECH Software Omniscient Code Generator (Lite mode) build 49521"
  1685  0002F2  0E05               	movlw	high(0520h)
  1686  0002F4  6E21               	movwf	((c:?_setupIO+1)),c
  1687  0002F6  0E20               	movlw	low(0520h)
  1688  0002F8  6E20               	movwf	((c:?_setupIO)),c
  1689  0002FA  0E00               	movlw	high(01h)
  1690  0002FC  6E23               	movwf	(1+((c:?_setupIO)+02h)),c
  1691  0002FE  0E01               	movlw	low(01h)
  1692  000300  6E22               	movwf	(0+((c:?_setupIO)+02h)),c
  1693  000302  EC82  F007         	call	_setupIO	;wreg free
  1694                           opt subtitle "HI-TECH Software Omniscient Code Generator (Lite mode) build 49521"
  1695                           
  1696  000306                     l2070:
  1697                           opt subtitle "HI-TECH Software Omniscient Code Generator (Lite mode) build 49521"
  1698  000306  0E00               	movlw	high(01h)
  1699  000308  6E21               	movwf	((c:?_setupIO+1)),c
  1700  00030A  0E01               	movlw	low(01h)
  1701  00030C  6E20               	movwf	((c:?_setupIO)),c
  1702  00030E  0E00               	movlw	high(01h)
  1703  000310  6E23               	movwf	(1+((c:?_setupIO)+02h)),c
  1704  000312  0E01               	movlw	low(01h)
  1705  000314  6E22               	movwf	(0+((c:?_setupIO)+02h)),c
  1706  000316  EC82  F007         	call	_setupIO	;wreg free
  1707                           opt subtitle "HI-TECH Software Omniscient Code Generator (Lite mode) build 49521"
  1708                           
  1709  00031A                     l2072:
  1710                           opt subtitle "HI-TECH Software Omniscient Code Generator (Lite mode) build 49521"
  1711  00031A  0E00               	movlw	high(0)
  1712  00031C  0101               	movlb	1	; () banked
  1713  00031E  0101               	movlb	1	; () banked
  1714  000320  6F5F               	movwf	((main@i+1))&0ffh	;volatile
  1715  000322  0E00               	movlw	low(0)
  1716  000324  0101               	movlb	1	; () banked
  1717  000326  6F5E               	movwf	((main@i))&0ffh	;volatile
  1718                           opt subtitle "HI-TECH Software Omniscient Code Generator (Lite mode) build 49521"
  1719  000328                     l2074:; BSR set to: 1
  1720                           opt subtitle "HI-TECH Software Omniscient Code Generator (Lite mode) build 49521"
  1721  000328  0E09               	movlw	09h
  1722  00032A  0101               	movlb	1	; () banked
  1723  00032C  0101               	movlb	1	; () banked
  1724  00032E  5D5E               	subwf	((main@i))&0ffh,w	;volatile
  1725  000330  0E00               	movlw	0
  1726  000332  0101               	movlb	1	; () banked
  1727  000334  595F               	subwfb	((main@i+1))&0ffh,w	;volatile
  1728  000336  A0D8               	btfss	status,0
  1729  000338  D001               	goto	u1521
  1730  00033A  D001               	goto	u1520
  1731  00033C                     u1521:
  1732  00033C  D002               	goto	l2078
  1733  00033E                     u1520:
  1734  00033E  D0AC               	goto	l126
  1735                           opt subtitle "HI-TECH Software Omniscient Code Generator (Lite mode) build 49521"
  1736  000340                     l2076:; BSR set to: 1
  1737                           opt subtitle "HI-TECH Software Omniscient Code Generator (Lite mode) build 49521"
  1738  000340  D0AB               	goto	l126
  1739                           opt subtitle "HI-TECH Software Omniscient Code Generator (Lite mode) build 49521"
  1740                           
  1741  000342                     l125:; BSR set to: 1
  1742                           opt subtitle "HI-TECH Software Omniscient Code Generator (Lite mode) build 49521"
  1743                           
  1744                           opt pagewidth 120
  1745  000342                     l2078:; BSR set to: 1
  1746                           opt subtitle "HI-TECH Software Omniscient Code Generator (Lite mode) build 49521"
  1747                           
  1748                           opt pagewidth 120
  1749  000342  90D8               	bcf	status,0
  1750  000344  0101               	movlb	1	; () banked
  1751  000346  0101               	movlb	1	; () banked
  1752  000348  355E               	rlcf	((main@i))&0ffh,w	;volatile
  1753  00034A  0100               	movlb	0	; () banked
  1754  00034C  6FA0               	movwf	(??_main+0+0)&0ffh
  1755  00034E  0101               	movlb	1	; () banked
  1756  000350  0101               	movlb	1	; () banked
  1757  000352  355F               	rlcf	((main@i+1))&0ffh,w	;volatile
  1758  000354  0100               	movlb	0	; () banked
  1759  000356  6FA1               	movwf	1+(??_main+0+0)&0ffh
  1760  000358  0101               	movlb	1	; () banked
  1761  00035A  0EA8               	movlw	low(_buttonMask)	;volatile
  1762  00035C  0100               	movlb	0	; () banked
  1763  00035E  25A0               	addwf	(??_main+0+0)&0ffh,w
  1764  000360  6ED9               	movwf	c:fsr2l
  1765  000362  0101               	movlb	1	; () banked
  1766  000364  0E01               	movlw	high(_buttonMask)	;volatile
  1767  000366  0100               	movlb	0	; () banked
  1768  000368  21A1               	addwfc	(??_main+0+1)&0ffh,w
  1769  00036A  6EDA               	movwf	1+c:fsr2l
  1770  00036C  CFDE F020          	movff	postinc2,(c:?_setupIO)
  1771  000370  CFDD F021          	movff	postdec2,(c:?_setupIO+1)
  1772  000374  0E00               	movlw	high(01h)
  1773  000376  6E23               	movwf	(1+((c:?_setupIO)+02h)),c
  1774  000378  0E01               	movlw	low(01h)
  1775  00037A  6E22               	movwf	(0+((c:?_setupIO)+02h)),c
  1776  00037C  EC82  F007         	call	_setupIO	;wreg free
  1777                           opt subtitle "HI-TECH Software Omniscient Code Generator (Lite mode) build 49521"
  1778                           
  1779  000380  90D8               	bcf	status,0
  1780  000382  0101               	movlb	1	; () banked
  1781  000384  0101               	movlb	1	; () banked
  1782  000386  355E               	rlcf	((main@i))&0ffh,w	;volatile
  1783  000388  0100               	movlb	0	; () banked
  1784  00038A  6FA0               	movwf	(??_main+0+0)&0ffh
  1785  00038C  0101               	movlb	1	; () banked
  1786  00038E  0101               	movlb	1	; () banked
  1787  000390  355F               	rlcf	((main@i+1))&0ffh,w	;volatile
  1788  000392  0100               	movlb	0	; () banked
  1789  000394  6FA1               	movwf	1+(??_main+0+0)&0ffh
  1790  000396  0E29               	movlw	low((c:_leftLEDMask))	;volatile
  1791  000398  0100               	movlb	0	; () banked
  1792  00039A  25A0               	addwf	(??_main+0+0)&0ffh,w
  1793  00039C  6ED9               	movwf	c:fsr2l
  1794  00039E  0E00               	movlw	high((c:_leftLEDMask))	;volatile
  1795  0003A0  0100               	movlb	0	; () banked
  1796  0003A2  21A1               	addwfc	(??_main+0+1)&0ffh,w
  1797  0003A4  6EDA               	movwf	1+c:fsr2l
  1798  0003A6  CFDE F020          	movff	postinc2,(c:?_setupIO)
  1799  0003AA  CFDD F021          	movff	postdec2,(c:?_setupIO+1)
  1800  0003AE  0E00               	movlw	high(0)
  1801  0003B0  6E23               	movwf	(1+((c:?_setupIO)+02h)),c
  1802  0003B2  0E00               	movlw	low(0)
  1803  0003B4  6E22               	movwf	(0+((c:?_setupIO)+02h)),c
  1804  0003B6  EC82  F007         	call	_setupIO	;wreg free
  1805                           opt subtitle "HI-TECH Software Omniscient Code Generator (Lite mode) build 49521"
  1806                           
  1807  0003BA  90D8               	bcf	status,0
  1808  0003BC  0101               	movlb	1	; () banked
  1809  0003BE  0101               	movlb	1	; () banked
  1810  0003C0  355E               	rlcf	((main@i))&0ffh,w	;volatile
  1811  0003C2  0100               	movlb	0	; () banked
  1812  0003C4  6FA0               	movwf	(??_main+0+0)&0ffh
  1813  0003C6  0101               	movlb	1	; () banked
  1814  0003C8  0101               	movlb	1	; () banked
  1815  0003CA  355F               	rlcf	((main@i+1))&0ffh,w	;volatile
  1816  0003CC  0100               	movlb	0	; () banked
  1817  0003CE  6FA1               	movwf	1+(??_main+0+0)&0ffh
  1818  0003D0  0100               	movlb	0	; () banked
  1819  0003D2  0E72               	movlw	low(_rightLEDMask)	;volatile
  1820  0003D4  0100               	movlb	0	; () banked
  1821  0003D6  25A0               	addwf	(??_main+0+0)&0ffh,w
  1822  0003D8  6ED9               	movwf	c:fsr2l
  1823  0003DA  0100               	movlb	0	; () banked
  1824  0003DC  0E00               	movlw	high(_rightLEDMask)	;volatile
  1825  0003DE  0100               	movlb	0	; () banked
  1826  0003E0  21A1               	addwfc	(??_main+0+1)&0ffh,w
  1827  0003E2  6EDA               	movwf	1+c:fsr2l
  1828  0003E4  CFDE F020          	movff	postinc2,(c:?_setupIO)
  1829  0003E8  CFDD F021          	movff	postdec2,(c:?_setupIO+1)
  1830  0003EC  0E00               	movlw	high(0)
  1831  0003EE  6E23               	movwf	(1+((c:?_setupIO)+02h)),c
  1832  0003F0  0E00               	movlw	low(0)
  1833  0003F2  6E22               	movwf	(0+((c:?_setupIO)+02h)),c
  1834  0003F4  EC82  F007         	call	_setupIO	;wreg free
  1835                           opt subtitle "HI-TECH Software Omniscient Code Generator (Lite mode) build 49521"
  1836                           
  1837  0003F8  90D8               	bcf	status,0
  1838  0003FA  0101               	movlb	1	; () banked
  1839  0003FC  0101               	movlb	1	; () banked
  1840  0003FE  355E               	rlcf	((main@i))&0ffh,w	;volatile
  1841  000400  0100               	movlb	0	; () banked
  1842  000402  6FA0               	movwf	(??_main+0+0)&0ffh
  1843  000404  0101               	movlb	1	; () banked
  1844  000406  0101               	movlb	1	; () banked
  1845  000408  355F               	rlcf	((main@i+1))&0ffh,w	;volatile
  1846  00040A  0100               	movlb	0	; () banked
  1847  00040C  6FA1               	movwf	1+(??_main+0+0)&0ffh
  1848  00040E  0100               	movlb	0	; () banked
  1849  000410  0E60               	movlw	low(_relayMask)	;volatile
  1850  000412  0100               	movlb	0	; () banked
  1851  000414  25A0               	addwf	(??_main+0+0)&0ffh,w
  1852  000416  6ED9               	movwf	c:fsr2l
  1853  000418  0100               	movlb	0	; () banked
  1854  00041A  0E00               	movlw	high(_relayMask)	;volatile
  1855  00041C  0100               	movlb	0	; () banked
  1856  00041E  21A1               	addwfc	(??_main+0+1)&0ffh,w
  1857  000420  6EDA               	movwf	1+c:fsr2l
  1858  000422  CFDE F020          	movff	postinc2,(c:?_setupIO)
  1859  000426  CFDD F021          	movff	postdec2,(c:?_setupIO+1)
  1860  00042A  0E00               	movlw	high(0)
  1861  00042C  6E23               	movwf	(1+((c:?_setupIO)+02h)),c
  1862  00042E  0E00               	movlw	low(0)
  1863  000430  6E22               	movwf	(0+((c:?_setupIO)+02h)),c
  1864  000432  EC82  F007         	call	_setupIO	;wreg free
  1865                           opt subtitle "HI-TECH Software Omniscient Code Generator (Lite mode) build 49521"
  1866                           
  1867  000436  C15E  F020         	movff	(main@i),(c:?_Read_b_eep)	;volatile
  1868  00043A  C15F  F021         	movff	(main@i+1),(c:?_Read_b_eep+1)	;volatile
  1869  00043E  ECAE  F00A         	call	_Read_b_eep	;wreg free
  1870  000442  0100               	movlb	0	; () banked
  1871  000444  6FA0               	movwf	(??_main+0+0)&0ffh
  1872  000446  6BA1               	clrf	(??_main+0+0+1)&0ffh
  1873                           opt subtitle "HI-TECH Software Omniscient Code Generator (Lite mode) build 49521"
  1874  000448  90D8               	bcf	status,0
  1875  00044A  0101               	movlb	1	; () banked
  1876  00044C  0101               	movlb	1	; () banked
  1877  00044E  355E               	rlcf	((main@i))&0ffh,w	;volatile
  1878  000450  0100               	movlb	0	; () banked
  1879  000452  6FA2               	movwf	(??_main+2+0)&0ffh
  1880  000454  0101               	movlb	1	; () banked
  1881  000456  0101               	movlb	1	; () banked
  1882  000458  355F               	rlcf	((main@i+1))&0ffh,w	;volatile
  1883  00045A  0100               	movlb	0	; () banked
  1884  00045C  6FA3               	movwf	1+(??_main+2+0)&0ffh
  1885  00045E  0101               	movlb	1	; () banked
  1886  000460  0E36               	movlw	low(main@buttonLatch)	;volatile
  1887  000462  0100               	movlb	0	; () banked
  1888  000464  25A2               	addwf	(??_main+2+0)&0ffh,w
  1889  000466  6ED9               	movwf	c:fsr2l
  1890  000468  0101               	movlb	1	; () banked
  1891  00046A  0E01               	movlw	high(main@buttonLatch)	;volatile
  1892  00046C  0100               	movlb	0	; () banked
  1893  00046E  21A3               	addwfc	(??_main+2+1)&0ffh,w
  1894  000470  6EDA               	movwf	1+c:fsr2l
  1895  000472  C0A0  FFDE         	movff	??_main+0+0,postinc2
  1896  000476  C0A1  FFDD         	movff	??_main+0+1,postdec2
  1897                           opt subtitle "HI-TECH Software Omniscient Code Generator (Lite mode) build 49521"
  1898                           
  1899                           opt pagewidth 120
  1900  00047A                     l2080:; BSR set to: 0
  1901                           opt subtitle "HI-TECH Software Omniscient Code Generator (Lite mode) build 49521"
  1902  00047A  0101               	movlb	1	; () banked
  1903  00047C  0101               	movlb	1	; () banked
  1904  00047E  4B5E               	infsnz	((main@i))&0ffh	;volatile
  1905  000480  2B5F               	incf	((main@i+1))&0ffh	;volatile
  1906                           opt subtitle "HI-TECH Software Omniscient Code Generator (Lite mode) build 49521"
  1907  000482                     l2082:; BSR set to: 1
  1908                           opt subtitle "HI-TECH Software Omniscient Code Generator (Lite mode) build 49521"
  1909  000482  0E09               	movlw	09h
  1910  000484  0101               	movlb	1	; () banked
  1911  000486  0101               	movlb	1	; () banked
  1912  000488  5D5E               	subwf	((main@i))&0ffh,w	;volatile
  1913  00048A  0E00               	movlw	0
  1914  00048C  0101               	movlb	1	; () banked
  1915  00048E  595F               	subwfb	((main@i+1))&0ffh,w	;volatile
  1916  000490  A0D8               	btfss	status,0
  1917  000492  D001               	goto	u1531
  1918  000494  D001               	goto	u1530
  1919  000496                     u1531:
  1920  000496  D755               	goto	l2078
  1921  000498                     u1530:
  1922                           opt subtitle "HI-TECH Software Omniscient Code Generator (Lite mode) build 49521"
  1923  000498                     l126:; BSR set to: 1
  1924                           opt subtitle "HI-TECH Software Omniscient Code Generator (Lite mode) build 49521"
  1925                           
  1926                           opt pagewidth 120
  1927                           
  1928  000498  8EF2               	bsf	((c:4082)),c,7	;volatile
  1929  00049A  D000               	goto	l2084
  1930                           opt subtitle "HI-TECH Software Omniscient Code Generator (Lite mode) build 49521"
  1931                           
  1932                           opt pagewidth 120
  1933  00049C                     l127:; BSR set to: 1
  1934                           opt subtitle "HI-TECH Software Omniscient Code Generator (Lite mode) build 49521"
  1935                           
  1936                           opt pagewidth 120
  1937  00049C                     l2084:; BSR set to: 1
  1938                           opt subtitle "HI-TECH Software Omniscient Code Generator (Lite mode) build 49521"
  1939                           
  1940                           opt pagewidth 120
  1941  00049C  0E00               	movlw	high(014h)
  1942  00049E  6E21               	movwf	((c:?__delay_ms+1)),c
  1943  0004A0  0E14               	movlw	low(014h)
  1944  0004A2  6E20               	movwf	((c:?__delay_ms)),c
  1945  0004A4  ECFC  F009         	call	__delay_ms	;wreg free
  1946                           opt subtitle "HI-TECH Software Omniscient Code Generator (Lite mode) build 49521"
  1947                           
  1948  0004A8  ECE4  F00A         	call	_BusyADC	;wreg free
  1949  0004AC  0900               	iorlw	0
  1950  0004AE  A4D8               	btfss	status,2
  1951  0004B0  D001               	goto	u1541
  1952  0004B2  D001               	goto	u1540
  1953  0004B4                     u1541:
  1954  0004B4  D025               	goto	l2096
  1955  0004B6                     u1540:
  1956                           opt subtitle "HI-TECH Software Omniscient Code Generator (Lite mode) build 49521"
  1957                           
  1958  0004B6                     l2086:
  1959                           opt subtitle "HI-TECH Software Omniscient Code Generator (Lite mode) build 49521"
  1960                           
  1961  0004B6  ECDE  F00A         	call	_ReadADC	;wreg free
  1962  0004BA  0EFF               	movlw	0FFh
  1963  0004BC  1420               	andwf	(0+?_ReadADC),c,w
  1964  0004BE  0101               	movlb	1	; () banked
  1965                           opt subtitle "HI-TECH Software Omniscient Code Generator (Lite mode) build 49521"
  1966  0004C0  0101               	movlb	1	; () banked
  1967  0004C2  6F5A               	movwf	((main@adcResult))&0ffh	;volatile
  1968  0004C4  0E0F               	movlw	0Fh
  1969  0004C6  1421               	andwf	(1+?_ReadADC),c,w
  1970  0004C8  0101               	movlb	1	; () banked
  1971  0004CA  6F5B               	movwf	1+((main@adcResult))&0ffh	;volatile
  1972                           opt subtitle "HI-TECH Software Omniscient Code Generator (Lite mode) build 49521"
  1973                           
  1974  0004CC                     l2088:; BSR set to: 1
  1975                           opt subtitle "HI-TECH Software Omniscient Code Generator (Lite mode) build 49521"
  1976                           
  1977  0004CC  0E00               	movlw	low(0100h)
  1978  0004CE  0101               	movlb	1	; () banked
  1979  0004D0  0101               	movlb	1	; () banked
  1980  0004D2  255A               	addwf	((main@adcResult))&0ffh,w	;volatile
  1981                           opt subtitle "HI-TECH Software Omniscient Code Generator (Lite mode) build 49521"
  1982  0004D4  6E3B               	movwf	((c:_outputHighLength)),c	;volatile
  1983  0004D6  0E01               	movlw	high(0100h)
  1984  0004D8  0101               	movlb	1	; () banked
  1985  0004DA  0101               	movlb	1	; () banked
  1986  0004DC  215B               	addwfc	((main@adcResult+1))&0ffh,w	;volatile
  1987  0004DE  6E3C               	movwf	1+((c:_outputHighLength)),c	;volatile
  1988                           opt subtitle "HI-TECH Software Omniscient Code Generator (Lite mode) build 49521"
  1989                           
  1990  0004E0                     l2090:; BSR set to: 1
  1991                           opt subtitle "HI-TECH Software Omniscient Code Generator (Lite mode) build 49521"
  1992                           
  1993  0004E0  0E00               	movlw	0
  1994  0004E2  5C3B               	subwf	((c:_outputHighLength)),c,w	;volatile
  1995  0004E4  0E10               	movlw	010h
  1996  0004E6  583C               	subwfb	((c:_outputHighLength+1)),c,w	;volatile
  1997  0004E8  A0D8               	btfss	status,0
  1998  0004EA  D001               	goto	u1551
  1999  0004EC  D001               	goto	u1550
  2000  0004EE                     u1551:
  2001  0004EE  D005               	goto	l2094
  2002  0004F0                     u1550:
  2003                           opt subtitle "HI-TECH Software Omniscient Code Generator (Lite mode) build 49521"
  2004  0004F0                     l2092:; BSR set to: 1
  2005                           opt subtitle "HI-TECH Software Omniscient Code Generator (Lite mode) build 49521"
  2006  0004F0  0E0F               	movlw	high(0FFFh)
  2007  0004F2  6E3C               	movwf	((c:_outputHighLength+1)),c	;volatile
  2008  0004F4  0EFF               	movlw	low(0FFFh)
  2009  0004F6  6E3B               	movwf	((c:_outputHighLength)),c	;volatile
  2010  0004F8  D000               	goto	l2094
  2011                           opt subtitle "HI-TECH Software Omniscient Code Generator (Lite mode) build 49521"
  2012  0004FA                     l129:; BSR set to: 1
  2013                           opt subtitle "HI-TECH Software Omniscient Code Generator (Lite mode) build 49521"
  2014                           
  2015                           opt pagewidth 120
  2016  0004FA                     l2094:; BSR set to: 1
  2017                           opt subtitle "HI-TECH Software Omniscient Code Generator (Lite mode) build 49521"
  2018                           
  2019  0004FA  ECE8  F00A         	call	_ConvertADC	;wreg free
  2020  0004FE  D000               	goto	l2096
  2021                           opt subtitle "HI-TECH Software Omniscient Code Generator (Lite mode) build 49521"
  2022                           
  2023  000500                     l128:
  2024                           opt subtitle "HI-TECH Software Omniscient Code Generator (Lite mode) build 49521"
  2025                           
  2026  000500                     l2096:
  2027                           opt subtitle "HI-TECH Software Omniscient Code Generator (Lite mode) build 49521"
  2028                           
  2029  000500  0E00               	movlw	high(0)
  2030  000502  0101               	movlb	1	; () banked
  2031  000504  0101               	movlb	1	; () banked
  2032  000506  6F5F               	movwf	((main@i+1))&0ffh	;volatile
  2033  000508  0E00               	movlw	low(0)
  2034  00050A  0101               	movlb	1	; () banked
  2035  00050C  6F5E               	movwf	((main@i))&0ffh	;volatile
  2036                           opt subtitle "HI-TECH Software Omniscient Code Generator (Lite mode) build 49521"
  2037  00050E                     l2098:; BSR set to: 1
  2038                           opt subtitle "HI-TECH Software Omniscient Code Generator (Lite mode) build 49521"
  2039  00050E  0E09               	movlw	09h
  2040  000510  0101               	movlb	1	; () banked
  2041  000512  0101               	movlb	1	; () banked
  2042  000514  5D5E               	subwf	((main@i))&0ffh,w	;volatile
  2043  000516  0E00               	movlw	0
  2044  000518  0101               	movlb	1	; () banked
  2045  00051A  595F               	subwfb	((main@i+1))&0ffh,w	;volatile
  2046  00051C  A0D8               	btfss	status,0
  2047  00051E  D001               	goto	u1561
  2048  000520  D001               	goto	u1560
  2049  000522                     u1561:
  2050  000522  D002               	goto	l2102
  2051  000524                     u1560:
  2052  000524  D0D1               	goto	l2116
  2053                           opt subtitle "HI-TECH Software Omniscient Code Generator (Lite mode) build 49521"
  2054  000526                     l2100:; BSR set to: 1
  2055                           opt subtitle "HI-TECH Software Omniscient Code Generator (Lite mode) build 49521"
  2056  000526  D0D0               	goto	l2116
  2057                           opt subtitle "HI-TECH Software Omniscient Code Generator (Lite mode) build 49521"
  2058                           
  2059  000528                     l130:; BSR set to: 1
  2060                           opt subtitle "HI-TECH Software Omniscient Code Generator (Lite mode) build 49521"
  2061                           
  2062                           opt pagewidth 120
  2063  000528                     l2102:; BSR set to: 1
  2064                           opt subtitle "HI-TECH Software Omniscient Code Generator (Lite mode) build 49521"
  2065                           
  2066                           opt pagewidth 120
  2067  000528  90D8               	bcf	status,0
  2068  00052A  0101               	movlb	1	; () banked
  2069  00052C  0101               	movlb	1	; () banked
  2070  00052E  355E               	rlcf	((main@i))&0ffh,w	;volatile
  2071  000530  0100               	movlb	0	; () banked
  2072  000532  6FA0               	movwf	(??_main+0+0)&0ffh
  2073  000534  0101               	movlb	1	; () banked
  2074  000536  0101               	movlb	1	; () banked
  2075  000538  355F               	rlcf	((main@i+1))&0ffh,w	;volatile
  2076  00053A  0100               	movlb	0	; () banked
  2077  00053C  6FA1               	movwf	1+(??_main+0+0)&0ffh
  2078  00053E  0101               	movlb	1	; () banked
  2079  000540  0EA8               	movlw	low(_buttonMask)	;volatile
  2080  000542  0100               	movlb	0	; () banked
  2081  000544  25A0               	addwf	(??_main+0+0)&0ffh,w
  2082  000546  6ED9               	movwf	c:fsr2l
  2083  000548  0101               	movlb	1	; () banked
  2084  00054A  0E01               	movlw	high(_buttonMask)	;volatile
  2085  00054C  0100               	movlb	0	; () banked
  2086  00054E  21A1               	addwfc	(??_main+0+1)&0ffh,w
  2087  000550  6EDA               	movwf	1+c:fsr2l
  2088  000552  CFDE F020          	movff	postinc2,(c:?_checkButton)
  2089  000556  CFDD F021          	movff	postdec2,(c:?_checkButton+1)
  2090  00055A  EC4B  F009         	call	_checkButton	;wreg free
  2091  00055E  0100               	movlb	0	; () banked
  2092  000560  6FA2               	movwf	(??_main+2+0)&0ffh
  2093  000562  0100               	movlb	0	; () banked
  2094  000564  05A2               	decf	((??_main+2+0))&0ffh,w
  2095  000566  A4D8               	btfss	status,2
  2096  000568  D001               	goto	u1571
  2097  00056A  D001               	goto	u1570
  2098  00056C                     u1571:
  2099  00056C  D04E               	goto	l2108
  2100  00056E                     u1570:
  2101                           opt subtitle "HI-TECH Software Omniscient Code Generator (Lite mode) build 49521"
  2102                           
  2103  00056E                     l2104:; BSR set to: 0
  2104                           opt subtitle "HI-TECH Software Omniscient Code Generator (Lite mode) build 49521"
  2105                           
  2106                           opt pagewidth 120
  2107  00056E  90D8               	bcf	status,0
  2108  000570  0101               	movlb	1	; () banked
  2109  000572  0101               	movlb	1	; () banked
  2110  000574  355E               	rlcf	((main@i))&0ffh,w	;volatile
  2111  000576  0100               	movlb	0	; () banked
  2112  000578  6FA0               	movwf	(??_main+0+0)&0ffh
  2113  00057A  0101               	movlb	1	; () banked
  2114  00057C  0101               	movlb	1	; () banked
  2115  00057E  355F               	rlcf	((main@i+1))&0ffh,w	;volatile
  2116  000580  0100               	movlb	0	; () banked
  2117  000582  6FA1               	movwf	1+(??_main+0+0)&0ffh
  2118  000584  0101               	movlb	1	; () banked
  2119  000586  0E00               	movlw	low(main@buttonDown)	;volatile
  2120  000588  0100               	movlb	0	; () banked
  2121  00058A  25A0               	addwf	(??_main+0+0)&0ffh,w
  2122  00058C  6ED9               	movwf	c:fsr2l
  2123  00058E  0101               	movlb	1	; () banked
  2124  000590  0E01               	movlw	high(main@buttonDown)	;volatile
  2125  000592  0100               	movlb	0	; () banked
  2126  000594  21A1               	addwfc	(??_main+0+1)&0ffh,w
  2127  000596  6EDA               	movwf	1+c:fsr2l
  2128  000598  50DE               	movf	postinc2,w
  2129  00059A  10DD               	iorwf	postdec2,w
  2130  00059C  A4D8               	btfss	status,2
  2131  00059E  D001               	goto	u1581
  2132  0005A0  D001               	goto	u1580
  2133  0005A2                     u1581:
  2134  0005A2  D019               	goto	l133
  2135  0005A4                     u1580:
  2136                           opt subtitle "HI-TECH Software Omniscient Code Generator (Lite mode) build 49521"
  2137                           
  2138  0005A4                     l2106:; BSR set to: 0
  2139                           opt subtitle "HI-TECH Software Omniscient Code Generator (Lite mode) build 49521"
  2140                           
  2141                           opt pagewidth 120
  2142  0005A4  90D8               	bcf	status,0
  2143  0005A6  0101               	movlb	1	; () banked
  2144  0005A8  0101               	movlb	1	; () banked
  2145  0005AA  355E               	rlcf	((main@i))&0ffh,w	;volatile
  2146  0005AC  0100               	movlb	0	; () banked
  2147  0005AE  6FA0               	movwf	(??_main+0+0)&0ffh
  2148  0005B0  0101               	movlb	1	; () banked
  2149  0005B2  0101               	movlb	1	; () banked
  2150  0005B4  355F               	rlcf	((main@i+1))&0ffh,w	;volatile
  2151  0005B6  0100               	movlb	0	; () banked
  2152  0005B8  6FA1               	movwf	1+(??_main+0+0)&0ffh
  2153  0005BA  0101               	movlb	1	; () banked
  2154  0005BC  0E48               	movlw	low(main@buttonEventDown)	;volatile
  2155  0005BE  0100               	movlb	0	; () banked
  2156  0005C0  25A0               	addwf	(??_main+0+0)&0ffh,w
  2157  0005C2  6ED9               	movwf	c:fsr2l
  2158  0005C4  0101               	movlb	1	; () banked
  2159  0005C6  0E01               	movlw	high(main@buttonEventDown)	;volatile
  2160  0005C8  0100               	movlb	0	; () banked
  2161  0005CA  21A1               	addwfc	(??_main+0+1)&0ffh,w
  2162  0005CC  6EDA               	movwf	1+c:fsr2l
  2163  0005CE  0E01               	movlw	low(01h)
  2164  0005D0  6EDE               	movwf	postinc2
  2165  0005D2  0E00               	movlw	high(01h)
  2166  0005D4  6EDD               	movwf	postdec2
  2167                           opt subtitle "HI-TECH Software Omniscient Code Generator (Lite mode) build 49521"
  2168                           
  2169  0005D6                     l133:; BSR set to: 0
  2170                           opt subtitle "HI-TECH Software Omniscient Code Generator (Lite mode) build 49521"
  2171                           
  2172                           opt pagewidth 120
  2173                           
  2174  0005D6  90D8               	bcf	status,0
  2175  0005D8  0101               	movlb	1	; () banked
  2176  0005DA  0101               	movlb	1	; () banked
  2177  0005DC  355E               	rlcf	((main@i))&0ffh,w	;volatile
  2178  0005DE  0100               	movlb	0	; () banked
  2179  0005E0  6FA0               	movwf	(??_main+0+0)&0ffh
  2180  0005E2  0101               	movlb	1	; () banked
  2181  0005E4  0101               	movlb	1	; () banked
  2182  0005E6  355F               	rlcf	((main@i+1))&0ffh,w	;volatile
  2183  0005E8  0100               	movlb	0	; () banked
  2184  0005EA  6FA1               	movwf	1+(??_main+0+0)&0ffh
  2185  0005EC  0101               	movlb	1	; () banked
  2186  0005EE  0E00               	movlw	low(main@buttonDown)	;volatile
  2187  0005F0  0100               	movlb	0	; () banked
  2188  0005F2  25A0               	addwf	(??_main+0+0)&0ffh,w
  2189  0005F4  6ED9               	movwf	c:fsr2l
  2190  0005F6  0101               	movlb	1	; () banked
  2191  0005F8  0E01               	movlw	high(main@buttonDown)	;volatile
  2192  0005FA  0100               	movlb	0	; () banked
  2193  0005FC  21A1               	addwfc	(??_main+0+1)&0ffh,w
  2194  0005FE  6EDA               	movwf	1+c:fsr2l
  2195  000600  0E01               	movlw	low(01h)
  2196  000602  6EDE               	movwf	postinc2
  2197  000604  0E00               	movlw	high(01h)
  2198  000606  6EDD               	movwf	postdec2
  2199                           opt subtitle "HI-TECH Software Omniscient Code Generator (Lite mode) build 49521"
  2200                           
  2201  000608  D04F               	goto	l2112
  2202                           opt subtitle "HI-TECH Software Omniscient Code Generator (Lite mode) build 49521"
  2203                           
  2204  00060A                     l132:; BSR set to: 0
  2205                           opt subtitle "HI-TECH Software Omniscient Code Generator (Lite mode) build 49521"
  2206                           
  2207                           opt pagewidth 120
  2208  00060A                     l2108:; BSR set to: 0
  2209                           opt subtitle "HI-TECH Software Omniscient Code Generator (Lite mode) build 49521"
  2210                           
  2211                           opt pagewidth 120
  2212                           
  2213  00060A  90D8               	bcf	status,0
  2214  00060C  0101               	movlb	1	; () banked
  2215  00060E  0101               	movlb	1	; () banked
  2216  000610  355E               	rlcf	((main@i))&0ffh,w	;volatile
  2217  000612  0100               	movlb	0	; () banked
  2218  000614  6FA0               	movwf	(??_main+0+0)&0ffh
  2219  000616  0101               	movlb	1	; () banked
  2220  000618  0101               	movlb	1	; () banked
  2221  00061A  355F               	rlcf	((main@i+1))&0ffh,w	;volatile
  2222  00061C  0100               	movlb	0	; () banked
  2223  00061E  6FA1               	movwf	1+(??_main+0+0)&0ffh
  2224  000620  0101               	movlb	1	; () banked
  2225  000622  0E00               	movlw	low(main@buttonDown)	;volatile
  2226  000624  0100               	movlb	0	; () banked
  2227  000626  25A0               	addwf	(??_main+0+0)&0ffh,w
  2228  000628  6ED9               	movwf	c:fsr2l
  2229  00062A  0101               	movlb	1	; () banked
  2230  00062C  0E01               	movlw	high(main@buttonDown)	;volatile
  2231  00062E  0100               	movlb	0	; () banked
  2232  000630  21A1               	addwfc	(??_main+0+1)&0ffh,w
  2233  000632  6EDA               	movwf	1+c:fsr2l
  2234  000634  50DE               	movf	postinc2,w
  2235  000636  0A01               	xorlw	01h
  2236  000638  10DD               	iorwf	postdec2,w
  2237  00063A  A4D8               	btfss	status,2
  2238  00063C  D001               	goto	u1591
  2239  00063E  D001               	goto	u1590
  2240  000640                     u1591:
  2241  000640  D019               	goto	l135
  2242  000642                     u1590:
  2243                           opt subtitle "HI-TECH Software Omniscient Code Generator (Lite mode) build 49521"
  2244                           
  2245  000642                     l2110:; BSR set to: 0
  2246                           opt subtitle "HI-TECH Software Omniscient Code Generator (Lite mode) build 49521"
  2247                           
  2248                           opt pagewidth 120
  2249  000642  90D8               	bcf	status,0
  2250  000644  0101               	movlb	1	; () banked
  2251  000646  0101               	movlb	1	; () banked
  2252  000648  355E               	rlcf	((main@i))&0ffh,w	;volatile
  2253  00064A  0100               	movlb	0	; () banked
  2254  00064C  6FA0               	movwf	(??_main+0+0)&0ffh
  2255  00064E  0101               	movlb	1	; () banked
  2256  000650  0101               	movlb	1	; () banked
  2257  000652  355F               	rlcf	((main@i+1))&0ffh,w	;volatile
  2258  000654  0100               	movlb	0	; () banked
  2259  000656  6FA1               	movwf	1+(??_main+0+0)&0ffh
  2260  000658  0101               	movlb	1	; () banked
  2261  00065A  0E12               	movlw	low(main@buttonEventUp)	;volatile
  2262  00065C  0100               	movlb	0	; () banked
  2263  00065E  25A0               	addwf	(??_main+0+0)&0ffh,w
  2264  000660  6ED9               	movwf	c:fsr2l
  2265  000662  0101               	movlb	1	; () banked
  2266  000664  0E01               	movlw	high(main@buttonEventUp)	;volatile
  2267  000666  0100               	movlb	0	; () banked
  2268  000668  21A1               	addwfc	(??_main+0+1)&0ffh,w
  2269  00066A  6EDA               	movwf	1+c:fsr2l
  2270  00066C  0E01               	movlw	low(01h)
  2271  00066E  6EDE               	movwf	postinc2
  2272  000670  0E00               	movlw	high(01h)
  2273  000672  6EDD               	movwf	postdec2
  2274                           opt subtitle "HI-TECH Software Omniscient Code Generator (Lite mode) build 49521"
  2275                           
  2276  000674                     l135:; BSR set to: 0
  2277                           opt subtitle "HI-TECH Software Omniscient Code Generator (Lite mode) build 49521"
  2278                           
  2279                           opt pagewidth 120
  2280                           
  2281  000674  90D8               	bcf	status,0
  2282  000676  0101               	movlb	1	; () banked
  2283  000678  0101               	movlb	1	; () banked
  2284  00067A  355E               	rlcf	((main@i))&0ffh,w	;volatile
  2285  00067C  0100               	movlb	0	; () banked
  2286  00067E  6FA0               	movwf	(??_main+0+0)&0ffh
  2287  000680  0101               	movlb	1	; () banked
  2288  000682  0101               	movlb	1	; () banked
  2289  000684  355F               	rlcf	((main@i+1))&0ffh,w	;volatile
  2290  000686  0100               	movlb	0	; () banked
  2291  000688  6FA1               	movwf	1+(??_main+0+0)&0ffh
  2292  00068A  0101               	movlb	1	; () banked
  2293  00068C  0E00               	movlw	low(main@buttonDown)	;volatile
  2294  00068E  0100               	movlb	0	; () banked
  2295  000690  25A0               	addwf	(??_main+0+0)&0ffh,w
  2296  000692  6ED9               	movwf	c:fsr2l
  2297  000694  0101               	movlb	1	; () banked
  2298  000696  0E01               	movlw	high(main@buttonDown)	;volatile
  2299  000698  0100               	movlb	0	; () banked
  2300  00069A  21A1               	addwfc	(??_main+0+1)&0ffh,w
  2301  00069C  6EDA               	movwf	1+c:fsr2l
  2302  00069E  0E00               	movlw	low(0)
  2303  0006A0  6EDE               	movwf	postinc2
  2304  0006A2  0E00               	movlw	high(0)
  2305  0006A4  6EDD               	movwf	postdec2
  2306  0006A6  D000               	goto	l2112
  2307                           opt subtitle "HI-TECH Software Omniscient Code Generator (Lite mode) build 49521"
  2308                           
  2309  0006A8                     l134:; BSR set to: 0
  2310                           opt subtitle "HI-TECH Software Omniscient Code Generator (Lite mode) build 49521"
  2311                           
  2312                           opt pagewidth 120
  2313  0006A8                     l2112:; BSR set to: 0
  2314                           opt subtitle "HI-TECH Software Omniscient Code Generator (Lite mode) build 49521"
  2315  0006A8  0101               	movlb	1	; () banked
  2316  0006AA  0101               	movlb	1	; () banked
  2317  0006AC  4B5E               	infsnz	((main@i))&0ffh	;volatile
  2318  0006AE  2B5F               	incf	((main@i+1))&0ffh	;volatile
  2319                           opt subtitle "HI-TECH Software Omniscient Code Generator (Lite mode) build 49521"
  2320  0006B0                     l2114:; BSR set to: 1
  2321                           opt subtitle "HI-TECH Software Omniscient Code Generator (Lite mode) build 49521"
  2322  0006B0  0E09               	movlw	09h
  2323  0006B2  0101               	movlb	1	; () banked
  2324  0006B4  0101               	movlb	1	; () banked
  2325  0006B6  5D5E               	subwf	((main@i))&0ffh,w	;volatile
  2326  0006B8  0E00               	movlw	0
  2327  0006BA  0101               	movlb	1	; () banked
  2328  0006BC  595F               	subwfb	((main@i+1))&0ffh,w	;volatile
  2329  0006BE  A0D8               	btfss	status,0
  2330  0006C0  D001               	goto	u1601
  2331  0006C2  D001               	goto	u1600
  2332  0006C4                     u1601:
  2333  0006C4  D731               	goto	l2102
  2334  0006C6                     u1600:
  2335  0006C6  D000               	goto	l2116
  2336                           opt subtitle "HI-TECH Software Omniscient Code Generator (Lite mode) build 49521"
  2337  0006C8                     l131:; BSR set to: 1
  2338                           opt subtitle "HI-TECH Software Omniscient Code Generator (Lite mode) build 49521"
  2339                           
  2340                           opt pagewidth 120
  2341  0006C8                     l2116:; BSR set to: 1
  2342                           opt subtitle "HI-TECH Software Omniscient Code Generator (Lite mode) build 49521"
  2343                           
  2344                           opt pagewidth 120
  2345                           
  2346  0006C8  0E05               	movlw	high(0510h)
  2347  0006CA  6E21               	movwf	((c:?_checkButton+1)),c
  2348  0006CC  0E10               	movlw	low(0510h)
  2349  0006CE  6E20               	movwf	((c:?_checkButton)),c
  2350  0006D0  EC4B  F009         	call	_checkButton	;wreg free
  2351  0006D4  0100               	movlb	0	; () banked
  2352  0006D6  6FA0               	movwf	(??_main+0+0)&0ffh
  2353  0006D8  0100               	movlb	0	; () banked
  2354  0006DA  05A0               	decf	((??_main+0+0))&0ffh,w
  2355  0006DC  A4D8               	btfss	status,2
  2356  0006DE  D001               	goto	u1611
  2357  0006E0  D001               	goto	u1610
  2358  0006E2                     u1611:
  2359  0006E2  D184               	goto	l2158
  2360  0006E4                     u1610:
  2361                           opt subtitle "HI-TECH Software Omniscient Code Generator (Lite mode) build 49521"
  2362                           
  2363  0006E4                     l2118:; BSR set to: 0
  2364                           opt subtitle "HI-TECH Software Omniscient Code Generator (Lite mode) build 49521"
  2365                           
  2366                           opt pagewidth 120
  2367  0006E4  0101               	movlb	1	; () banked
  2368  0006E6  0101               	movlb	1	; () banked
  2369  0006E8  515D               	movf	((main@programState+1))&0ffh,w	;volatile
  2370  0006EA  115C               	iorwf ((main@programState))&0ffh,w	;volatile
  2371                           opt subtitle "HI-TECH Software Omniscient Code Generator (Lite mode) build 49521"
  2372  0006EC  A4D8               	btfss	status,2
  2373  0006EE  D001               	goto	u1621
  2374  0006F0  D001               	goto	u1620
  2375  0006F2                     u1621:
  2376  0006F2  D09B               	goto	l137
  2377  0006F4                     u1620:
  2378                           opt subtitle "HI-TECH Software Omniscient Code Generator (Lite mode) build 49521"
  2379                           
  2380  0006F4                     l2120:; BSR set to: 1
  2381                           opt subtitle "HI-TECH Software Omniscient Code Generator (Lite mode) build 49521"
  2382                           
  2383                           opt pagewidth 120
  2384  0006F4  0E01               	movlw	high(01F4h)
  2385  0006F6  6E21               	movwf	((c:?__delay_ms+1)),c
  2386  0006F8  0EF4               	movlw	low(01F4h)
  2387  0006FA  6E20               	movwf	((c:?__delay_ms)),c
  2388  0006FC  ECFC  F009         	call	__delay_ms	;wreg free
  2389                           opt subtitle "HI-TECH Software Omniscient Code Generator (Lite mode) build 49521"
  2390                           
  2391  000700                     l2122:
  2392                           opt subtitle "HI-TECH Software Omniscient Code Generator (Lite mode) build 49521"
  2393  000700  0E00               	movlw	high(0)
  2394  000702  0101               	movlb	1	; () banked
  2395  000704  0101               	movlb	1	; () banked
  2396  000706  6F5F               	movwf	((main@i+1))&0ffh	;volatile
  2397  000708  0E00               	movlw	low(0)
  2398  00070A  0101               	movlb	1	; () banked
  2399  00070C  6F5E               	movwf	((main@i))&0ffh	;volatile
  2400                           opt subtitle "HI-TECH Software Omniscient Code Generator (Lite mode) build 49521"
  2401  00070E                     l2124:; BSR set to: 1
  2402                           opt subtitle "HI-TECH Software Omniscient Code Generator (Lite mode) build 49521"
  2403  00070E  0E09               	movlw	09h
  2404  000710  0101               	movlb	1	; () banked
  2405  000712  0101               	movlb	1	; () banked
  2406  000714  5D5E               	subwf	((main@i))&0ffh,w	;volatile
  2407  000716  0E00               	movlw	0
  2408  000718  0101               	movlb	1	; () banked
  2409  00071A  595F               	subwfb	((main@i+1))&0ffh,w	;volatile
  2410  00071C  A0D8               	btfss	status,0
  2411  00071E  D001               	goto	u1631
  2412  000720  D001               	goto	u1630
  2413  000722                     u1631:
  2414  000722  D002               	goto	l2128
  2415  000724                     u1630:
  2416  000724  D07B               	goto	l2138
  2417                           opt subtitle "HI-TECH Software Omniscient Code Generator (Lite mode) build 49521"
  2418  000726                     l2126:; BSR set to: 1
  2419                           opt subtitle "HI-TECH Software Omniscient Code Generator (Lite mode) build 49521"
  2420  000726  D07A               	goto	l2138
  2421                           opt subtitle "HI-TECH Software Omniscient Code Generator (Lite mode) build 49521"
  2422                           
  2423  000728                     l138:; BSR set to: 1
  2424                           opt subtitle "HI-TECH Software Omniscient Code Generator (Lite mode) build 49521"
  2425                           
  2426                           opt pagewidth 120
  2427  000728                     l2128:; BSR set to: 1
  2428                           opt subtitle "HI-TECH Software Omniscient Code Generator (Lite mode) build 49521"
  2429                           
  2430                           opt pagewidth 120
  2431  000728  0E05               	movlw	high(0520h)
  2432  00072A  6E21               	movwf	((c:?_checkButton+1)),c
  2433  00072C  0E20               	movlw	low(0520h)
  2434  00072E  6E20               	movwf	((c:?_checkButton)),c
  2435  000730  EC4B  F009         	call	_checkButton	;wreg free
  2436  000734  0900               	iorlw	0
  2437  000736  0E00               	movlw	0
  2438  000738  B4D8               	btfsc	status,2
  2439  00073A  0E01               	movlw	1
  2440  00073C  0100               	movlb	0	; () banked
  2441  00073E  0100               	movlb	0	; () banked
  2442  000740  6F96               	movwf	((?_setOutputs))&0ffh
  2443  000742  0100               	movlb	0	; () banked
  2444  000744  6B97               	clrf	((?_setOutputs+1))&0ffh
  2445  000746  C15E  F098         	movff	(main@i),0+(?_setOutputs+02h)	;volatile
  2446  00074A  C15F  F099         	movff	(main@i+1),1+(?_setOutputs+02h)	;volatile
  2447  00074E  0EFF               	movlw	high(0FFFFh)
  2448  000750  0100               	movlb	0	; () banked
  2449  000752  0100               	movlb	0	; () banked
  2450  000754  6F9B               	movwf	(1+(?_setOutputs+04h))&0ffh
  2451  000756  0EFF               	movlw	low(0FFFFh)
  2452  000758  0100               	movlb	0	; () banked
  2453  00075A  6F9A               	movwf	(0+(?_setOutputs+04h))&0ffh
  2454  00075C  90D8               	bcf	status,0
  2455  00075E  0101               	movlb	1	; () banked
  2456  000760  0101               	movlb	1	; () banked
  2457  000762  355E               	rlcf	((main@i))&0ffh,w	;volatile
  2458  000764  0100               	movlb	0	; () banked
  2459  000766  6FA0               	movwf	(??_main+0+0)&0ffh
  2460  000768  0101               	movlb	1	; () banked
  2461  00076A  0101               	movlb	1	; () banked
  2462  00076C  355F               	rlcf	((main@i+1))&0ffh,w	;volatile
  2463  00076E  0100               	movlb	0	; () banked
  2464  000770  6FA1               	movwf	1+(??_main+0+0)&0ffh
  2465  000772  0101               	movlb	1	; () banked
  2466  000774  0E36               	movlw	low(main@buttonLatch)	;volatile
  2467  000776  0100               	movlb	0	; () banked
  2468  000778  25A0               	addwf	(??_main+0+0)&0ffh,w
  2469  00077A  6ED9               	movwf	c:fsr2l
  2470  00077C  0101               	movlb	1	; () banked
  2471  00077E  0E01               	movlw	high(main@buttonLatch)	;volatile
  2472  000780  0100               	movlb	0	; () banked
  2473  000782  21A1               	addwfc	(??_main+0+1)&0ffh,w
  2474  000784  6EDA               	movwf	1+c:fsr2l
  2475  000786  0100               	movlb	0	; () banked
  2476  000788  CFDE F09C          	movff	postinc2,0+(?_setOutputs+06h)
  2477  00078C  0100               	movlb	0	; () banked
  2478  00078E  CFDD F09D          	movff	postdec2,1+(?_setOutputs+06h)
  2479  000792  0100               	movlb	0	; () banked
  2480  000794  EC2B  F00A         	call	_setOutputs	;wreg free
  2481                           opt subtitle "HI-TECH Software Omniscient Code Generator (Lite mode) build 49521"
  2482                           
  2483  000798                     l2130:
  2484                           opt subtitle "HI-TECH Software Omniscient Code Generator (Lite mode) build 49521"
  2485  000798  90D8               	bcf	status,0
  2486  00079A  0101               	movlb	1	; () banked
  2487  00079C  0101               	movlb	1	; () banked
  2488  00079E  355E               	rlcf	((main@i))&0ffh,w	;volatile
  2489  0007A0  0100               	movlb	0	; () banked
  2490  0007A2  6FA0               	movwf	(??_main+0+0)&0ffh
  2491  0007A4  0101               	movlb	1	; () banked
  2492  0007A6  0101               	movlb	1	; () banked
  2493  0007A8  355F               	rlcf	((main@i+1))&0ffh,w	;volatile
  2494  0007AA  0100               	movlb	0	; () banked
  2495  0007AC  6FA1               	movwf	1+(??_main+0+0)&0ffh
  2496  0007AE  0101               	movlb	1	; () banked
  2497  0007B0  0E12               	movlw	low(main@buttonEventUp)	;volatile
  2498  0007B2  0100               	movlb	0	; () banked
  2499  0007B4  25A0               	addwf	(??_main+0+0)&0ffh,w
  2500  0007B6  6ED9               	movwf	c:fsr2l
  2501  0007B8  0101               	movlb	1	; () banked
  2502  0007BA  0E01               	movlw	high(main@buttonEventUp)	;volatile
  2503  0007BC  0100               	movlb	0	; () banked
  2504  0007BE  21A1               	addwfc	(??_main+0+1)&0ffh,w
  2505  0007C0  6EDA               	movwf	1+c:fsr2l
  2506  0007C2  0E00               	movlw	low(0)
  2507  0007C4  6EDE               	movwf	postinc2
  2508  0007C6  0E00               	movlw	high(0)
  2509  0007C8  6EDD               	movwf	postdec2
  2510                           opt subtitle "HI-TECH Software Omniscient Code Generator (Lite mode) build 49521"
  2511                           
  2512  0007CA                     l2132:; BSR set to: 0
  2513                           opt subtitle "HI-TECH Software Omniscient Code Generator (Lite mode) build 49521"
  2514                           
  2515  0007CA  90D8               	bcf	status,0
  2516  0007CC  0101               	movlb	1	; () banked
  2517  0007CE  0101               	movlb	1	; () banked
  2518  0007D0  355E               	rlcf	((main@i))&0ffh,w	;volatile
  2519  0007D2  0100               	movlb	0	; () banked
  2520  0007D4  6FA0               	movwf	(??_main+0+0)&0ffh
  2521  0007D6  0101               	movlb	1	; () banked
  2522  0007D8  0101               	movlb	1	; () banked
  2523  0007DA  355F               	rlcf	((main@i+1))&0ffh,w	;volatile
  2524  0007DC  0100               	movlb	0	; () banked
  2525  0007DE  6FA1               	movwf	1+(??_main+0+0)&0ffh
  2526  0007E0  0101               	movlb	1	; () banked
  2527  0007E2  0E48               	movlw	low(main@buttonEventDown)	;volatile
  2528  0007E4  0100               	movlb	0	; () banked
  2529  0007E6  25A0               	addwf	(??_main+0+0)&0ffh,w
  2530  0007E8  6ED9               	movwf	c:fsr2l
  2531  0007EA  0101               	movlb	1	; () banked
  2532  0007EC  0E01               	movlw	high(main@buttonEventDown)	;volatile
  2533  0007EE  0100               	movlb	0	; () banked
  2534  0007F0  21A1               	addwfc	(??_main+0+1)&0ffh,w
  2535  0007F2  6EDA               	movwf	1+c:fsr2l
  2536  0007F4  0E00               	movlw	low(0)
  2537  0007F6  6EDE               	movwf	postinc2
  2538  0007F8  0E00               	movlw	high(0)
  2539  0007FA  6EDD               	movwf	postdec2
  2540                           opt subtitle "HI-TECH Software Omniscient Code Generator (Lite mode) build 49521"
  2541                           
  2542  0007FC                     l2134:; BSR set to: 0
  2543                           opt subtitle "HI-TECH Software Omniscient Code Generator (Lite mode) build 49521"
  2544  0007FC  0101               	movlb	1	; () banked
  2545  0007FE  0101               	movlb	1	; () banked
  2546  000800  4B5E               	infsnz	((main@i))&0ffh	;volatile
  2547  000802  2B5F               	incf	((main@i+1))&0ffh	;volatile
  2548                           opt subtitle "HI-TECH Software Omniscient Code Generator (Lite mode) build 49521"
  2549  000804                     l2136:; BSR set to: 1
  2550                           opt subtitle "HI-TECH Software Omniscient Code Generator (Lite mode) build 49521"
  2551  000804  0E09               	movlw	09h
  2552  000806  0101               	movlb	1	; () banked
  2553  000808  0101               	movlb	1	; () banked
  2554  00080A  5D5E               	subwf	((main@i))&0ffh,w	;volatile
  2555  00080C  0E00               	movlw	0
  2556  00080E  0101               	movlb	1	; () banked
  2557  000810  595F               	subwfb	((main@i+1))&0ffh,w	;volatile
  2558  000812  A0D8               	btfss	status,0
  2559  000814  D001               	goto	u1641
  2560  000816  D001               	goto	u1640
  2561  000818                     u1641:
  2562  000818  D787               	goto	l2128
  2563  00081A                     u1640:
  2564  00081A  D000               	goto	l2138
  2565                           opt subtitle "HI-TECH Software Omniscient Code Generator (Lite mode) build 49521"
  2566  00081C                     l139:; BSR set to: 1
  2567                           opt subtitle "HI-TECH Software Omniscient Code Generator (Lite mode) build 49521"
  2568                           
  2569                           opt pagewidth 120
  2570  00081C                     l2138:; BSR set to: 1
  2571                           opt subtitle "HI-TECH Software Omniscient Code Generator (Lite mode) build 49521"
  2572                           
  2573                           opt pagewidth 120
  2574  00081C  0E00               	movlw	high(01h)
  2575  00081E  0101               	movlb	1	; () banked
  2576  000820  0101               	movlb	1	; () banked
  2577  000822  6F5D               	movwf	((main@programState+1))&0ffh	;volatile
  2578  000824  0E01               	movlw	low(01h)
  2579  000826  0101               	movlb	1	; () banked
  2580  000828  6F5C               	movwf	((main@programState))&0ffh	;volatile
  2581                           opt subtitle "HI-TECH Software Omniscient Code Generator (Lite mode) build 49521"
  2582                           
  2583  00082A                     l137:; BSR set to: 1
  2584                           opt subtitle "HI-TECH Software Omniscient Code Generator (Lite mode) build 49521"
  2585                           
  2586                           opt pagewidth 120
  2587                           
  2588  00082A  0E00               	movlw	high(0)
  2589  00082C  0101               	movlb	1	; () banked
  2590  00082E  0101               	movlb	1	; () banked
  2591  000830  6F5F               	movwf	((main@i+1))&0ffh	;volatile
  2592  000832  0E00               	movlw	low(0)
  2593  000834  0101               	movlb	1	; () banked
  2594  000836  6F5E               	movwf	((main@i))&0ffh	;volatile
  2595                           opt subtitle "HI-TECH Software Omniscient Code Generator (Lite mode) build 49521"
  2596  000838                     l2140:; BSR set to: 1
  2597                           opt subtitle "HI-TECH Software Omniscient Code Generator (Lite mode) build 49521"
  2598  000838  0E09               	movlw	09h
  2599  00083A  0101               	movlb	1	; () banked
  2600  00083C  0101               	movlb	1	; () banked
  2601  00083E  5D5E               	subwf	((main@i))&0ffh,w	;volatile
  2602  000840  0E00               	movlw	0
  2603  000842  0101               	movlb	1	; () banked
  2604  000844  595F               	subwfb	((main@i+1))&0ffh,w	;volatile
  2605  000846  A0D8               	btfss	status,0
  2606  000848  D001               	goto	u1651
  2607  00084A  D001               	goto	u1650
  2608  00084C                     u1651:
  2609  00084C  D002               	goto	l2144
  2610  00084E                     u1650:
  2611  00084E  D626               	goto	l2084
  2612                           opt subtitle "HI-TECH Software Omniscient Code Generator (Lite mode) build 49521"
  2613  000850                     l2142:; BSR set to: 1
  2614                           opt subtitle "HI-TECH Software Omniscient Code Generator (Lite mode) build 49521"
  2615  000850  D625               	goto	l2084
  2616                           opt subtitle "HI-TECH Software Omniscient Code Generator (Lite mode) build 49521"
  2617                           
  2618  000852                     l140:; BSR set to: 1
  2619                           opt subtitle "HI-TECH Software Omniscient Code Generator (Lite mode) build 49521"
  2620                           
  2621                           opt pagewidth 120
  2622  000852                     l2144:; BSR set to: 1
  2623                           opt subtitle "HI-TECH Software Omniscient Code Generator (Lite mode) build 49521"
  2624                           
  2625                           opt pagewidth 120
  2626  000852  90D8               	bcf	status,0
  2627  000854  0101               	movlb	1	; () banked
  2628  000856  0101               	movlb	1	; () banked
  2629  000858  355E               	rlcf	((main@i))&0ffh,w	;volatile
  2630  00085A  0100               	movlb	0	; () banked
  2631  00085C  6FA0               	movwf	(??_main+0+0)&0ffh
  2632  00085E  0101               	movlb	1	; () banked
  2633  000860  0101               	movlb	1	; () banked
  2634  000862  355F               	rlcf	((main@i+1))&0ffh,w	;volatile
  2635  000864  0100               	movlb	0	; () banked
  2636  000866  6FA1               	movwf	1+(??_main+0+0)&0ffh
  2637  000868  0101               	movlb	1	; () banked
  2638  00086A  0E48               	movlw	low(main@buttonEventDown)	;volatile
  2639  00086C  0100               	movlb	0	; () banked
  2640  00086E  25A0               	addwf	(??_main+0+0)&0ffh,w
  2641  000870  6ED9               	movwf	c:fsr2l
  2642  000872  0101               	movlb	1	; () banked
  2643  000874  0E01               	movlw	high(main@buttonEventDown)	;volatile
  2644  000876  0100               	movlb	0	; () banked
  2645  000878  21A1               	addwfc	(??_main+0+1)&0ffh,w
  2646  00087A  6EDA               	movwf	1+c:fsr2l
  2647  00087C  50DE               	movf	postinc2,w
  2648  00087E  0A01               	xorlw	01h
  2649  000880  10DD               	iorwf	postdec2,w
  2650  000882  A4D8               	btfss	status,2
  2651  000884  D001               	goto	u1661
  2652  000886  D001               	goto	u1660
  2653  000888                     u1661:
  2654  000888  D068               	goto	l2152
  2655  00088A                     u1660:
  2656                           opt subtitle "HI-TECH Software Omniscient Code Generator (Lite mode) build 49521"
  2657                           
  2658  00088A                     l2146:; BSR set to: 0
  2659                           opt subtitle "HI-TECH Software Omniscient Code Generator (Lite mode) build 49521"
  2660                           
  2661                           opt pagewidth 120
  2662  00088A  90D8               	bcf	status,0
  2663  00088C  0101               	movlb	1	; () banked
  2664  00088E  0101               	movlb	1	; () banked
  2665  000890  355E               	rlcf	((main@i))&0ffh,w	;volatile
  2666  000892  0100               	movlb	0	; () banked
  2667  000894  6FA0               	movwf	(??_main+0+0)&0ffh
  2668  000896  0101               	movlb	1	; () banked
  2669  000898  0101               	movlb	1	; () banked
  2670  00089A  355F               	rlcf	((main@i+1))&0ffh,w	;volatile
  2671  00089C  0100               	movlb	0	; () banked
  2672  00089E  6FA1               	movwf	1+(??_main+0+0)&0ffh
  2673  0008A0  0101               	movlb	1	; () banked
  2674  0008A2  0E36               	movlw	low(main@buttonLatch)	;volatile
  2675  0008A4  0100               	movlb	0	; () banked
  2676  0008A6  25A0               	addwf	(??_main+0+0)&0ffh,w
  2677  0008A8  6ED9               	movwf	c:fsr2l
  2678  0008AA  0101               	movlb	1	; () banked
  2679  0008AC  0E01               	movlw	high(main@buttonLatch)	;volatile
  2680  0008AE  0100               	movlb	0	; () banked
  2681  0008B0  21A1               	addwfc	(??_main+0+1)&0ffh,w
  2682  0008B2  6EDA               	movwf	1+c:fsr2l
  2683  0008B4  50DE               	movf	postinc2,w
  2684  0008B6  10DD               	iorwf	postdec2,w
  2685  0008B8  A4D8               	btfss	status,2
  2686  0008BA  D001               	goto	u1671
  2687  0008BC  D001               	goto	u1670
  2688  0008BE                     u1671:
  2689  0008BE  D01A               	goto	l2150
  2690  0008C0                     u1670:
  2691                           opt subtitle "HI-TECH Software Omniscient Code Generator (Lite mode) build 49521"
  2692                           
  2693  0008C0                     l2148:; BSR set to: 0
  2694                           opt subtitle "HI-TECH Software Omniscient Code Generator (Lite mode) build 49521"
  2695                           
  2696                           opt pagewidth 120
  2697  0008C0  90D8               	bcf	status,0
  2698  0008C2  0101               	movlb	1	; () banked
  2699  0008C4  0101               	movlb	1	; () banked
  2700  0008C6  355E               	rlcf	((main@i))&0ffh,w	;volatile
  2701  0008C8  0100               	movlb	0	; () banked
  2702  0008CA  6FA0               	movwf	(??_main+0+0)&0ffh
  2703  0008CC  0101               	movlb	1	; () banked
  2704  0008CE  0101               	movlb	1	; () banked
  2705  0008D0  355F               	rlcf	((main@i+1))&0ffh,w	;volatile
  2706  0008D2  0100               	movlb	0	; () banked
  2707  0008D4  6FA1               	movwf	1+(??_main+0+0)&0ffh
  2708  0008D6  0101               	movlb	1	; () banked
  2709  0008D8  0E36               	movlw	low(main@buttonLatch)	;volatile
  2710  0008DA  0100               	movlb	0	; () banked
  2711  0008DC  25A0               	addwf	(??_main+0+0)&0ffh,w
  2712  0008DE  6ED9               	movwf	c:fsr2l
  2713  0008E0  0101               	movlb	1	; () banked
  2714  0008E2  0E01               	movlw	high(main@buttonLatch)	;volatile
  2715  0008E4  0100               	movlb	0	; () banked
  2716  0008E6  21A1               	addwfc	(??_main+0+1)&0ffh,w
  2717  0008E8  6EDA               	movwf	1+c:fsr2l
  2718  0008EA  0E01               	movlw	low(01h)
  2719  0008EC  6EDE               	movwf	postinc2
  2720  0008EE  0E00               	movlw	high(01h)
  2721  0008F0  6EDD               	movwf	postdec2
  2722                           opt subtitle "HI-TECH Software Omniscient Code Generator (Lite mode) build 49521"
  2723                           
  2724  0008F2  D019               	goto	l144
  2725                           opt subtitle "HI-TECH Software Omniscient Code Generator (Lite mode) build 49521"
  2726                           
  2727  0008F4                     l143:; BSR set to: 0
  2728                           opt subtitle "HI-TECH Software Omniscient Code Generator (Lite mode) build 49521"
  2729                           
  2730                           opt pagewidth 120
  2731  0008F4                     l2150:; BSR set to: 0
  2732                           opt subtitle "HI-TECH Software Omniscient Code Generator (Lite mode) build 49521"
  2733                           
  2734                           opt pagewidth 120
  2735                           
  2736  0008F4  90D8               	bcf	status,0
  2737  0008F6  0101               	movlb	1	; () banked
  2738  0008F8  0101               	movlb	1	; () banked
  2739  0008FA  355E               	rlcf	((main@i))&0ffh,w	;volatile
  2740  0008FC  0100               	movlb	0	; () banked
  2741  0008FE  6FA0               	movwf	(??_main+0+0)&0ffh
  2742  000900  0101               	movlb	1	; () banked
  2743  000902  0101               	movlb	1	; () banked
  2744  000904  355F               	rlcf	((main@i+1))&0ffh,w	;volatile
  2745  000906  0100               	movlb	0	; () banked
  2746  000908  6FA1               	movwf	1+(??_main+0+0)&0ffh
  2747  00090A  0101               	movlb	1	; () banked
  2748  00090C  0E36               	movlw	low(main@buttonLatch)	;volatile
  2749  00090E  0100               	movlb	0	; () banked
  2750  000910  25A0               	addwf	(??_main+0+0)&0ffh,w
  2751  000912  6ED9               	movwf	c:fsr2l
  2752  000914  0101               	movlb	1	; () banked
  2753  000916  0E01               	movlw	high(main@buttonLatch)	;volatile
  2754  000918  0100               	movlb	0	; () banked
  2755  00091A  21A1               	addwfc	(??_main+0+1)&0ffh,w
  2756  00091C  6EDA               	movwf	1+c:fsr2l
  2757  00091E  0E00               	movlw	low(0)
  2758  000920  6EDE               	movwf	postinc2
  2759  000922  0E00               	movlw	high(0)
  2760  000924  6EDD               	movwf	postdec2
  2761                           opt subtitle "HI-TECH Software Omniscient Code Generator (Lite mode) build 49521"
  2762                           
  2763  000926                     l144:; BSR set to: 0
  2764                           opt subtitle "HI-TECH Software Omniscient Code Generator (Lite mode) build 49521"
  2765                           
  2766                           opt pagewidth 120
  2767                           
  2768  000926  90D8               	bcf	status,0
  2769  000928  0101               	movlb	1	; () banked
  2770  00092A  0101               	movlb	1	; () banked
  2771  00092C  355E               	rlcf	((main@i))&0ffh,w	;volatile
  2772  00092E  0100               	movlb	0	; () banked
  2773  000930  6FA0               	movwf	(??_main+0+0)&0ffh
  2774  000932  0101               	movlb	1	; () banked
  2775  000934  0101               	movlb	1	; () banked
  2776  000936  355F               	rlcf	((main@i+1))&0ffh,w	;volatile
  2777  000938  0100               	movlb	0	; () banked
  2778  00093A  6FA1               	movwf	1+(??_main+0+0)&0ffh
  2779  00093C  0101               	movlb	1	; () banked
  2780  00093E  0E48               	movlw	low(main@buttonEventDown)	;volatile
  2781  000940  0100               	movlb	0	; () banked
  2782  000942  25A0               	addwf	(??_main+0+0)&0ffh,w
  2783  000944  6ED9               	movwf	c:fsr2l
  2784  000946  0101               	movlb	1	; () banked
  2785  000948  0E01               	movlw	high(main@buttonEventDown)	;volatile
  2786  00094A  0100               	movlb	0	; () banked
  2787  00094C  21A1               	addwfc	(??_main+0+1)&0ffh,w
  2788  00094E  6EDA               	movwf	1+c:fsr2l
  2789  000950  0E00               	movlw	low(0)
  2790  000952  6EDE               	movwf	postinc2
  2791  000954  0E00               	movlw	high(0)
  2792  000956  6EDD               	movwf	postdec2
  2793  000958  D000               	goto	l2152
  2794                           opt subtitle "HI-TECH Software Omniscient Code Generator (Lite mode) build 49521"
  2795                           
  2796  00095A                     l142:; BSR set to: 0
  2797                           opt subtitle "HI-TECH Software Omniscient Code Generator (Lite mode) build 49521"
  2798                           
  2799                           opt pagewidth 120
  2800  00095A                     l2152:; BSR set to: 0
  2801                           opt subtitle "HI-TECH Software Omniscient Code Generator (Lite mode) build 49521"
  2802                           
  2803                           opt pagewidth 120
  2804  00095A  0E05               	movlw	high(0520h)
  2805  00095C  6E21               	movwf	((c:?_checkButton+1)),c
  2806  00095E  0E20               	movlw	low(0520h)
  2807  000960  6E20               	movwf	((c:?_checkButton)),c
  2808  000962  EC4B  F009         	call	_checkButton	;wreg free
  2809  000966  0900               	iorlw	0
  2810  000968  0E00               	movlw	0
  2811  00096A  B4D8               	btfsc	status,2
  2812  00096C  0E01               	movlw	1
  2813  00096E  0100               	movlb	0	; () banked
  2814  000970  0100               	movlb	0	; () banked
  2815  000972  6F96               	movwf	((?_setOutputs))&0ffh
  2816  000974  0100               	movlb	0	; () banked
  2817  000976  6B97               	clrf	((?_setOutputs+1))&0ffh
  2818  000978  C15E  F098         	movff	(main@i),0+(?_setOutputs+02h)	;volatile
  2819  00097C  C15F  F099         	movff	(main@i+1),1+(?_setOutputs+02h)	;volatile
  2820  000980  0EFF               	movlw	high(0FFFFh)
  2821  000982  0100               	movlb	0	; () banked
  2822  000984  0100               	movlb	0	; () banked
  2823  000986  6F9B               	movwf	(1+(?_setOutputs+04h))&0ffh
  2824  000988  0EFF               	movlw	low(0FFFFh)
  2825  00098A  0100               	movlb	0	; () banked
  2826  00098C  6F9A               	movwf	(0+(?_setOutputs+04h))&0ffh
  2827  00098E  90D8               	bcf	status,0
  2828  000990  0101               	movlb	1	; () banked
  2829  000992  0101               	movlb	1	; () banked
  2830  000994  355E               	rlcf	((main@i))&0ffh,w	;volatile
  2831  000996  0100               	movlb	0	; () banked
  2832  000998  6FA0               	movwf	(??_main+0+0)&0ffh
  2833  00099A  0101               	movlb	1	; () banked
  2834  00099C  0101               	movlb	1	; () banked
  2835  00099E  355F               	rlcf	((main@i+1))&0ffh,w	;volatile
  2836  0009A0  0100               	movlb	0	; () banked
  2837  0009A2  6FA1               	movwf	1+(??_main+0+0)&0ffh
  2838  0009A4  0101               	movlb	1	; () banked
  2839  0009A6  0E36               	movlw	low(main@buttonLatch)	;volatile
  2840  0009A8  0100               	movlb	0	; () banked
  2841  0009AA  25A0               	addwf	(??_main+0+0)&0ffh,w
  2842  0009AC  6ED9               	movwf	c:fsr2l
  2843  0009AE  0101               	movlb	1	; () banked
  2844  0009B0  0E01               	movlw	high(main@buttonLatch)	;volatile
  2845  0009B2  0100               	movlb	0	; () banked
  2846  0009B4  21A1               	addwfc	(??_main+0+1)&0ffh,w
  2847  0009B6  6EDA               	movwf	1+c:fsr2l
  2848  0009B8  0100               	movlb	0	; () banked
  2849  0009BA  CFDE F09C          	movff	postinc2,0+(?_setOutputs+06h)
  2850  0009BE  0100               	movlb	0	; () banked
  2851  0009C0  CFDD F09D          	movff	postdec2,1+(?_setOutputs+06h)
  2852  0009C4  0100               	movlb	0	; () banked
  2853  0009C6  EC2B  F00A         	call	_setOutputs	;wreg free
  2854                           opt subtitle "HI-TECH Software Omniscient Code Generator (Lite mode) build 49521"
  2855                           
  2856  0009CA                     l2154:
  2857  0009CA  0101               	movlb	1	; () banked
  2858  0009CC  0101               	movlb	1	; () banked
  2859  0009CE  4B5E               	infsnz	((main@i))&0ffh	;volatile
  2860  0009D0  2B5F               	incf	((main@i+1))&0ffh	;volatile
  2861                           opt subtitle "HI-TECH Software Omniscient Code Generator (Lite mode) build 49521"
  2862  0009D2                     l2156:; BSR set to: 1
  2863                           opt subtitle "HI-TECH Software Omniscient Code Generator (Lite mode) build 49521"
  2864  0009D2  0E09               	movlw	09h
  2865  0009D4  0101               	movlb	1	; () banked
  2866  0009D6  0101               	movlb	1	; () banked
  2867  0009D8  5D5E               	subwf	((main@i))&0ffh,w	;volatile
  2868  0009DA  0E00               	movlw	0
  2869  0009DC  0101               	movlb	1	; () banked
  2870  0009DE  595F               	subwfb	((main@i+1))&0ffh,w	;volatile
  2871  0009E0  A0D8               	btfss	status,0
  2872  0009E2  D001               	goto	u1681
  2873  0009E4  D001               	goto	u1680
  2874  0009E6                     u1681:
  2875  0009E6  D735               	goto	l2144
  2876  0009E8                     u1680:
  2877  0009E8  D559               	goto	l2084
  2878                           opt subtitle "HI-TECH Software Omniscient Code Generator (Lite mode) build 49521"
  2879  0009EA                     l141:; BSR set to: 1
  2880                           opt subtitle "HI-TECH Software Omniscient Code Generator (Lite mode) build 49521"
  2881                           
  2882                           opt pagewidth 120
  2883                           
  2884  0009EA  D558               	goto	l2084
  2885                           opt subtitle "HI-TECH Software Omniscient Code Generator (Lite mode) build 49521"
  2886                           
  2887  0009EC                     l136:; BSR set to: 1
  2888                           opt subtitle "HI-TECH Software Omniscient Code Generator (Lite mode) build 49521"
  2889                           
  2890                           opt pagewidth 120
  2891  0009EC                     l2158:
  2892                           opt subtitle "HI-TECH Software Omniscient Code Generator (Lite mode) build 49521"
  2893                           
  2894                           opt pagewidth 120
  2895  0009EC  0101               	movlb	1	; () banked
  2896  0009EE  0101               	movlb	1	; () banked
  2897  0009F0  055C               	decf	((main@programState))&0ffh,w	;volatile
  2898  0009F2  115D               	iorwf ((main@programState+1))&0ffh,w	;volatile
  2899                           opt subtitle "HI-TECH Software Omniscient Code Generator (Lite mode) build 49521"
  2900  0009F4  A4D8               	btfss	status,2
  2901  0009F6  D001               	goto	u1691
  2902  0009F8  D001               	goto	u1690
  2903  0009FA                     u1691:
  2904  0009FA  D0CE               	goto	l146
  2905  0009FC                     u1690:
  2906                           opt subtitle "HI-TECH Software Omniscient Code Generator (Lite mode) build 49521"
  2907                           
  2908  0009FC                     l2160:; BSR set to: 1
  2909                           opt subtitle "HI-TECH Software Omniscient Code Generator (Lite mode) build 49521"
  2910                           
  2911                           opt pagewidth 120
  2912  0009FC  0E07               	movlw	high(07D0h)
  2913  0009FE  6E21               	movwf	((c:?__delay_ms+1)),c
  2914  000A00  0ED0               	movlw	low(07D0h)
  2915  000A02  6E20               	movwf	((c:?__delay_ms)),c
  2916  000A04  ECFC  F009         	call	__delay_ms	;wreg free
  2917                           opt subtitle "HI-TECH Software Omniscient Code Generator (Lite mode) build 49521"
  2918                           
  2919  000A08                     l2162:
  2920                           opt subtitle "HI-TECH Software Omniscient Code Generator (Lite mode) build 49521"
  2921  000A08  0E00               	movlw	high(0)
  2922  000A0A  0101               	movlb	1	; () banked
  2923  000A0C  0101               	movlb	1	; () banked
  2924  000A0E  6F5F               	movwf	((main@i+1))&0ffh	;volatile
  2925  000A10  0E00               	movlw	low(0)
  2926  000A12  0101               	movlb	1	; () banked
  2927  000A14  6F5E               	movwf	((main@i))&0ffh	;volatile
  2928                           opt subtitle "HI-TECH Software Omniscient Code Generator (Lite mode) build 49521"
  2929  000A16                     l2164:; BSR set to: 1
  2930                           opt subtitle "HI-TECH Software Omniscient Code Generator (Lite mode) build 49521"
  2931  000A16  0E09               	movlw	09h
  2932  000A18  0101               	movlb	1	; () banked
  2933  000A1A  0101               	movlb	1	; () banked
  2934  000A1C  5D5E               	subwf	((main@i))&0ffh,w	;volatile
  2935  000A1E  0E00               	movlw	0
  2936  000A20  0101               	movlb	1	; () banked
  2937  000A22  595F               	subwfb	((main@i+1))&0ffh,w	;volatile
  2938  000A24  A0D8               	btfss	status,0
  2939  000A26  D001               	goto	u1701
  2940  000A28  D001               	goto	u1700
  2941  000A2A                     u1701:
  2942  000A2A  D002               	goto	l2168
  2943  000A2C                     u1700:
  2944  000A2C  D0AE               	goto	l2182
  2945                           opt subtitle "HI-TECH Software Omniscient Code Generator (Lite mode) build 49521"
  2946  000A2E                     l2166:; BSR set to: 1
  2947                           opt subtitle "HI-TECH Software Omniscient Code Generator (Lite mode) build 49521"
  2948  000A2E  D0AD               	goto	l2182
  2949                           opt subtitle "HI-TECH Software Omniscient Code Generator (Lite mode) build 49521"
  2950                           
  2951  000A30                     l147:; BSR set to: 1
  2952                           opt subtitle "HI-TECH Software Omniscient Code Generator (Lite mode) build 49521"
  2953                           
  2954                           opt pagewidth 120
  2955  000A30                     l2168:; BSR set to: 1
  2956                           opt subtitle "HI-TECH Software Omniscient Code Generator (Lite mode) build 49521"
  2957                           
  2958                           opt pagewidth 120
  2959  000A30  C15E  F020         	movff	(main@i),(c:?_Write_b_eep)	;volatile
  2960  000A34  C15F  F021         	movff	(main@i+1),(c:?_Write_b_eep+1)	;volatile
  2961  000A38  90D8               	bcf	status,0
  2962  000A3A  0101               	movlb	1	; () banked
  2963  000A3C  0101               	movlb	1	; () banked
  2964  000A3E  355E               	rlcf	((main@i))&0ffh,w	;volatile
  2965  000A40  0100               	movlb	0	; () banked
  2966  000A42  6FA0               	movwf	(??_main+0+0)&0ffh
  2967  000A44  0101               	movlb	1	; () banked
  2968  000A46  0101               	movlb	1	; () banked
  2969  000A48  355F               	rlcf	((main@i+1))&0ffh,w	;volatile
  2970  000A4A  0100               	movlb	0	; () banked
  2971  000A4C  6FA1               	movwf	1+(??_main+0+0)&0ffh
  2972  000A4E  0101               	movlb	1	; () banked
  2973  000A50  0E36               	movlw	low(main@buttonLatch)	;volatile
  2974  000A52  0100               	movlb	0	; () banked
  2975  000A54  25A0               	addwf	(??_main+0+0)&0ffh,w
  2976  000A56  6ED9               	movwf	c:fsr2l
  2977  000A58  0101               	movlb	1	; () banked
  2978  000A5A  0E01               	movlw	high(main@buttonLatch)	;volatile
  2979  000A5C  0100               	movlb	0	; () banked
  2980  000A5E  21A1               	addwfc	(??_main+0+1)&0ffh,w
  2981  000A60  6EDA               	movwf	1+c:fsr2l
  2982  000A62  50DF               	movf	indf2,w
  2983  000A64  6E22               	movwf	(0+((c:?_Write_b_eep)+02h)),c
  2984  000A66  EC55  F00A         	call	_Write_b_eep	;wreg free
  2985                           opt subtitle "HI-TECH Software Omniscient Code Generator (Lite mode) build 49521"
  2986                           
  2987  000A6A                     l2170:
  2988                           opt subtitle "HI-TECH Software Omniscient Code Generator (Lite mode) build 49521"
  2989  000A6A  ECD7  F00A         	call	_Busy_eep	;wreg free
  2990                           opt subtitle "HI-TECH Software Omniscient Code Generator (Lite mode) build 49521"
  2991                           
  2992  000A6E                     l2172:
  2993                           opt subtitle "HI-TECH Software Omniscient Code Generator (Lite mode) build 49521"
  2994  000A6E  0E05               	movlw	high(0520h)
  2995  000A70  6E21               	movwf	((c:?_checkButton+1)),c
  2996  000A72  0E20               	movlw	low(0520h)
  2997  000A74  6E20               	movwf	((c:?_checkButton)),c
  2998  000A76  EC4B  F009         	call	_checkButton	;wreg free
  2999  000A7A  0900               	iorlw	0
  3000  000A7C  0E00               	movlw	0
  3001  000A7E  B4D8               	btfsc	status,2
  3002  000A80  0E01               	movlw	1
  3003  000A82  0100               	movlb	0	; () banked
  3004  000A84  0100               	movlb	0	; () banked
  3005  000A86  6F96               	movwf	((?_setOutputs))&0ffh
  3006  000A88  0100               	movlb	0	; () banked
  3007  000A8A  6B97               	clrf	((?_setOutputs+1))&0ffh
  3008  000A8C  C15E  F098         	movff	(main@i),0+(?_setOutputs+02h)	;volatile
  3009  000A90  C15F  F099         	movff	(main@i+1),1+(?_setOutputs+02h)	;volatile
  3010  000A94  90D8               	bcf	status,0
  3011  000A96  0101               	movlb	1	; () banked
  3012  000A98  0101               	movlb	1	; () banked
  3013  000A9A  355E               	rlcf	((main@i))&0ffh,w	;volatile
  3014  000A9C  0100               	movlb	0	; () banked
  3015  000A9E  6FA0               	movwf	(??_main+0+0)&0ffh
  3016  000AA0  0101               	movlb	1	; () banked
  3017  000AA2  0101               	movlb	1	; () banked
  3018  000AA4  355F               	rlcf	((main@i+1))&0ffh,w	;volatile
  3019  000AA6  0100               	movlb	0	; () banked
  3020  000AA8  6FA1               	movwf	1+(??_main+0+0)&0ffh
  3021  000AAA  0100               	movlb	0	; () banked
  3022  000AAC  0E60               	movlw	low(_relayMask)	;volatile
  3023  000AAE  0100               	movlb	0	; () banked
  3024  000AB0  25A0               	addwf	(??_main+0+0)&0ffh,w
  3025  000AB2  6ED9               	movwf	c:fsr2l
  3026  000AB4  0100               	movlb	0	; () banked
  3027  000AB6  0E00               	movlw	high(_relayMask)	;volatile
  3028  000AB8  0100               	movlb	0	; () banked
  3029  000ABA  21A1               	addwfc	(??_main+0+1)&0ffh,w
  3030  000ABC  6EDA               	movwf	1+c:fsr2l
  3031  000ABE  0100               	movlb	0	; () banked
  3032  000AC0  CFDE F09A          	movff	postinc2,0+(?_setOutputs+04h)
  3033  000AC4  0100               	movlb	0	; () banked
  3034  000AC6  CFDD F09B          	movff	postdec2,1+(?_setOutputs+04h)
  3035  000ACA  90D8               	bcf	status,0
  3036  000ACC  0101               	movlb	1	; () banked
  3037  000ACE  0101               	movlb	1	; () banked
  3038  000AD0  355E               	rlcf	((main@i))&0ffh,w	;volatile
  3039  000AD2  0100               	movlb	0	; () banked
  3040  000AD4  6FA2               	movwf	(??_main+2+0)&0ffh
  3041  000AD6  0101               	movlb	1	; () banked
  3042  000AD8  0101               	movlb	1	; () banked
  3043  000ADA  355F               	rlcf	((main@i+1))&0ffh,w	;volatile
  3044  000ADC  0100               	movlb	0	; () banked
  3045  000ADE  6FA3               	movwf	1+(??_main+2+0)&0ffh
  3046  000AE0  0101               	movlb	1	; () banked
  3047  000AE2  0E24               	movlw	low(main@buttonState)	;volatile
  3048  000AE4  0100               	movlb	0	; () banked
  3049  000AE6  25A2               	addwf	(??_main+2+0)&0ffh,w
  3050  000AE8  6ED9               	movwf	c:fsr2l
  3051  000AEA  0101               	movlb	1	; () banked
  3052  000AEC  0E01               	movlw	high(main@buttonState)	;volatile
  3053  000AEE  0100               	movlb	0	; () banked
  3054  000AF0  21A3               	addwfc	(??_main+2+1)&0ffh,w
  3055  000AF2  6EDA               	movwf	1+c:fsr2l
  3056  000AF4  0100               	movlb	0	; () banked
  3057  000AF6  CFDE F09C          	movff	postinc2,0+(?_setOutputs+06h)
  3058  000AFA  0100               	movlb	0	; () banked
  3059  000AFC  CFDD F09D          	movff	postdec2,1+(?_setOutputs+06h)
  3060  000B00  0100               	movlb	0	; () banked
  3061  000B02  EC2B  F00A         	call	_setOutputs	;wreg free
  3062                           opt subtitle "HI-TECH Software Omniscient Code Generator (Lite mode) build 49521"
  3063                           
  3064  000B06                     l2174:
  3065                           opt subtitle "HI-TECH Software Omniscient Code Generator (Lite mode) build 49521"
  3066  000B06  90D8               	bcf	status,0
  3067  000B08  0101               	movlb	1	; () banked
  3068  000B0A  0101               	movlb	1	; () banked
  3069  000B0C  355E               	rlcf	((main@i))&0ffh,w	;volatile
  3070  000B0E  0100               	movlb	0	; () banked
  3071  000B10  6FA0               	movwf	(??_main+0+0)&0ffh
  3072  000B12  0101               	movlb	1	; () banked
  3073  000B14  0101               	movlb	1	; () banked
  3074  000B16  355F               	rlcf	((main@i+1))&0ffh,w	;volatile
  3075  000B18  0100               	movlb	0	; () banked
  3076  000B1A  6FA1               	movwf	1+(??_main+0+0)&0ffh
  3077  000B1C  0101               	movlb	1	; () banked
  3078  000B1E  0E48               	movlw	low(main@buttonEventDown)	;volatile
  3079  000B20  0100               	movlb	0	; () banked
  3080  000B22  25A0               	addwf	(??_main+0+0)&0ffh,w
  3081  000B24  6ED9               	movwf	c:fsr2l
  3082  000B26  0101               	movlb	1	; () banked
  3083  000B28  0E01               	movlw	high(main@buttonEventDown)	;volatile
  3084  000B2A  0100               	movlb	0	; () banked
  3085  000B2C  21A1               	addwfc	(??_main+0+1)&0ffh,w
  3086  000B2E  6EDA               	movwf	1+c:fsr2l
  3087  000B30  0E00               	movlw	low(0)
  3088  000B32  6EDE               	movwf	postinc2
  3089  000B34  0E00               	movlw	high(0)
  3090  000B36  6EDD               	movwf	postdec2
  3091                           opt subtitle "HI-TECH Software Omniscient Code Generator (Lite mode) build 49521"
  3092                           
  3093  000B38                     l2176:; BSR set to: 0
  3094                           opt subtitle "HI-TECH Software Omniscient Code Generator (Lite mode) build 49521"
  3095                           
  3096  000B38  90D8               	bcf	status,0
  3097  000B3A  0101               	movlb	1	; () banked
  3098  000B3C  0101               	movlb	1	; () banked
  3099  000B3E  355E               	rlcf	((main@i))&0ffh,w	;volatile
  3100  000B40  0100               	movlb	0	; () banked
  3101  000B42  6FA0               	movwf	(??_main+0+0)&0ffh
  3102  000B44  0101               	movlb	1	; () banked
  3103  000B46  0101               	movlb	1	; () banked
  3104  000B48  355F               	rlcf	((main@i+1))&0ffh,w	;volatile
  3105  000B4A  0100               	movlb	0	; () banked
  3106  000B4C  6FA1               	movwf	1+(??_main+0+0)&0ffh
  3107  000B4E  0101               	movlb	1	; () banked
  3108  000B50  0E12               	movlw	low(main@buttonEventUp)	;volatile
  3109  000B52  0100               	movlb	0	; () banked
  3110  000B54  25A0               	addwf	(??_main+0+0)&0ffh,w
  3111  000B56  6ED9               	movwf	c:fsr2l
  3112  000B58  0101               	movlb	1	; () banked
  3113  000B5A  0E01               	movlw	high(main@buttonEventUp)	;volatile
  3114  000B5C  0100               	movlb	0	; () banked
  3115  000B5E  21A1               	addwfc	(??_main+0+1)&0ffh,w
  3116  000B60  6EDA               	movwf	1+c:fsr2l
  3117  000B62  0E00               	movlw	low(0)
  3118  000B64  6EDE               	movwf	postinc2
  3119  000B66  0E00               	movlw	high(0)
  3120  000B68  6EDD               	movwf	postdec2
  3121                           opt subtitle "HI-TECH Software Omniscient Code Generator (Lite mode) build 49521"
  3122                           
  3123  000B6A                     l2178:; BSR set to: 0
  3124                           opt subtitle "HI-TECH Software Omniscient Code Generator (Lite mode) build 49521"
  3125  000B6A  0101               	movlb	1	; () banked
  3126  000B6C  0101               	movlb	1	; () banked
  3127  000B6E  4B5E               	infsnz	((main@i))&0ffh	;volatile
  3128  000B70  2B5F               	incf	((main@i+1))&0ffh	;volatile
  3129                           opt subtitle "HI-TECH Software Omniscient Code Generator (Lite mode) build 49521"
  3130  000B72                     l2180:; BSR set to: 1
  3131                           opt subtitle "HI-TECH Software Omniscient Code Generator (Lite mode) build 49521"
  3132  000B72  0E09               	movlw	09h
  3133  000B74  0101               	movlb	1	; () banked
  3134  000B76  0101               	movlb	1	; () banked
  3135  000B78  5D5E               	subwf	((main@i))&0ffh,w	;volatile
  3136  000B7A  0E00               	movlw	0
  3137  000B7C  0101               	movlb	1	; () banked
  3138  000B7E  595F               	subwfb	((main@i+1))&0ffh,w	;volatile
  3139  000B80  A0D8               	btfss	status,0
  3140  000B82  D001               	goto	u1711
  3141  000B84  D001               	goto	u1710
  3142  000B86                     u1711:
  3143  000B86  D754               	goto	l2168
  3144  000B88                     u1710:
  3145  000B88  D000               	goto	l2182
  3146                           opt subtitle "HI-TECH Software Omniscient Code Generator (Lite mode) build 49521"
  3147  000B8A                     l148:; BSR set to: 1
  3148                           opt subtitle "HI-TECH Software Omniscient Code Generator (Lite mode) build 49521"
  3149                           
  3150                           opt pagewidth 120
  3151  000B8A                     l2182:; BSR set to: 1
  3152                           opt subtitle "HI-TECH Software Omniscient Code Generator (Lite mode) build 49521"
  3153                           
  3154                           opt pagewidth 120
  3155  000B8A  0E00               	movlw	high(0)
  3156  000B8C  0101               	movlb	1	; () banked
  3157  000B8E  0101               	movlb	1	; () banked
  3158  000B90  6F5D               	movwf	((main@programState+1))&0ffh	;volatile
  3159  000B92  0E00               	movlw	low(0)
  3160  000B94  0101               	movlb	1	; () banked
  3161  000B96  6F5C               	movwf	((main@programState))&0ffh	;volatile
  3162                           opt subtitle "HI-TECH Software Omniscient Code Generator (Lite mode) build 49521"
  3163                           
  3164  000B98                     l146:; BSR set to: 1
  3165                           opt subtitle "HI-TECH Software Omniscient Code Generator (Lite mode) build 49521"
  3166                           
  3167                           opt pagewidth 120
  3168                           
  3169  000B98  0E00               	movlw	high(0)
  3170  000B9A  0101               	movlb	1	; () banked
  3171  000B9C  0101               	movlb	1	; () banked
  3172  000B9E  6F5F               	movwf	((main@i+1))&0ffh	;volatile
  3173  000BA0  0E00               	movlw	low(0)
  3174  000BA2  0101               	movlb	1	; () banked
  3175  000BA4  6F5E               	movwf	((main@i))&0ffh	;volatile
  3176                           opt subtitle "HI-TECH Software Omniscient Code Generator (Lite mode) build 49521"
  3177  000BA6                     l2184:; BSR set to: 1
  3178                           opt subtitle "HI-TECH Software Omniscient Code Generator (Lite mode) build 49521"
  3179  000BA6  0E09               	movlw	09h
  3180  000BA8  0101               	movlb	1	; () banked
  3181  000BAA  0101               	movlb	1	; () banked
  3182  000BAC  5D5E               	subwf	((main@i))&0ffh,w	;volatile
  3183  000BAE  0E00               	movlw	0
  3184  000BB0  0101               	movlb	1	; () banked
  3185  000BB2  595F               	subwfb	((main@i+1))&0ffh,w	;volatile
  3186  000BB4  A0D8               	btfss	status,0
  3187  000BB6  D001               	goto	u1721
  3188  000BB8  D001               	goto	u1720
  3189  000BBA                     u1721:
  3190  000BBA  D002               	goto	l2188
  3191  000BBC                     u1720:
  3192  000BBC  D46F               	goto	l2084
  3193                           opt subtitle "HI-TECH Software Omniscient Code Generator (Lite mode) build 49521"
  3194  000BBE                     l2186:; BSR set to: 1
  3195                           opt subtitle "HI-TECH Software Omniscient Code Generator (Lite mode) build 49521"
  3196  000BBE  D46E               	goto	l2084
  3197                           opt subtitle "HI-TECH Software Omniscient Code Generator (Lite mode) build 49521"
  3198                           
  3199  000BC0                     l149:; BSR set to: 1
  3200                           opt subtitle "HI-TECH Software Omniscient Code Generator (Lite mode) build 49521"
  3201                           
  3202                           opt pagewidth 120
  3203  000BC0                     l2188:; BSR set to: 1
  3204                           opt subtitle "HI-TECH Software Omniscient Code Generator (Lite mode) build 49521"
  3205                           
  3206                           opt pagewidth 120
  3207  000BC0  90D8               	bcf	status,0
  3208  000BC2  0101               	movlb	1	; () banked
  3209  000BC4  0101               	movlb	1	; () banked
  3210  000BC6  355E               	rlcf	((main@i))&0ffh,w	;volatile
  3211  000BC8  0100               	movlb	0	; () banked
  3212  000BCA  6FA0               	movwf	(??_main+0+0)&0ffh
  3213  000BCC  0101               	movlb	1	; () banked
  3214  000BCE  0101               	movlb	1	; () banked
  3215  000BD0  355F               	rlcf	((main@i+1))&0ffh,w	;volatile
  3216  000BD2  0100               	movlb	0	; () banked
  3217  000BD4  6FA1               	movwf	1+(??_main+0+0)&0ffh
  3218  000BD6  0101               	movlb	1	; () banked
  3219  000BD8  0E36               	movlw	low(main@buttonLatch)	;volatile
  3220  000BDA  0100               	movlb	0	; () banked
  3221  000BDC  25A0               	addwf	(??_main+0+0)&0ffh,w
  3222  000BDE  6ED9               	movwf	c:fsr2l
  3223  000BE0  0101               	movlb	1	; () banked
  3224  000BE2  0E01               	movlw	high(main@buttonLatch)	;volatile
  3225  000BE4  0100               	movlb	0	; () banked
  3226  000BE6  21A1               	addwfc	(??_main+0+1)&0ffh,w
  3227  000BE8  6EDA               	movwf	1+c:fsr2l
  3228  000BEA  50DE               	movf	postinc2,w
  3229  000BEC  0A01               	xorlw	01h
  3230  000BEE  10DD               	iorwf	postdec2,w
  3231  000BF0  A4D8               	btfss	status,2
  3232  000BF2  D001               	goto	u1731
  3233  000BF4  D001               	goto	u1730
  3234  000BF6                     u1731:
  3235  000BF6  D085               	goto	l2198
  3236  000BF8                     u1730:
  3237                           opt subtitle "HI-TECH Software Omniscient Code Generator (Lite mode) build 49521"
  3238                           
  3239  000BF8                     l2190:; BSR set to: 0
  3240                           opt subtitle "HI-TECH Software Omniscient Code Generator (Lite mode) build 49521"
  3241                           
  3242                           opt pagewidth 120
  3243  000BF8  90D8               	bcf	status,0
  3244  000BFA  0101               	movlb	1	; () banked
  3245  000BFC  0101               	movlb	1	; () banked
  3246  000BFE  355E               	rlcf	((main@i))&0ffh,w	;volatile
  3247  000C00  0100               	movlb	0	; () banked
  3248  000C02  6FA0               	movwf	(??_main+0+0)&0ffh
  3249  000C04  0101               	movlb	1	; () banked
  3250  000C06  0101               	movlb	1	; () banked
  3251  000C08  355F               	rlcf	((main@i+1))&0ffh,w	;volatile
  3252  000C0A  0100               	movlb	0	; () banked
  3253  000C0C  6FA1               	movwf	1+(??_main+0+0)&0ffh
  3254  000C0E  0101               	movlb	1	; () banked
  3255  000C10  0E48               	movlw	low(main@buttonEventDown)	;volatile
  3256  000C12  0100               	movlb	0	; () banked
  3257  000C14  25A0               	addwf	(??_main+0+0)&0ffh,w
  3258  000C16  6ED9               	movwf	c:fsr2l
  3259  000C18  0101               	movlb	1	; () banked
  3260  000C1A  0E01               	movlw	high(main@buttonEventDown)	;volatile
  3261  000C1C  0100               	movlb	0	; () banked
  3262  000C1E  21A1               	addwfc	(??_main+0+1)&0ffh,w
  3263  000C20  6EDA               	movwf	1+c:fsr2l
  3264  000C22  50DE               	movf	postinc2,w
  3265  000C24  0A01               	xorlw	01h
  3266  000C26  10DD               	iorwf	postdec2,w
  3267  000C28  A4D8               	btfss	status,2
  3268  000C2A  D001               	goto	u1741
  3269  000C2C  D001               	goto	u1740
  3270  000C2E                     u1741:
  3271  000C2E  D107               	goto	l2204
  3272  000C30                     u1740:
  3273                           opt subtitle "HI-TECH Software Omniscient Code Generator (Lite mode) build 49521"
  3274                           
  3275  000C30                     l2192:; BSR set to: 0
  3276                           opt subtitle "HI-TECH Software Omniscient Code Generator (Lite mode) build 49521"
  3277                           
  3278                           opt pagewidth 120
  3279  000C30  90D8               	bcf	status,0
  3280  000C32  0101               	movlb	1	; () banked
  3281  000C34  0101               	movlb	1	; () banked
  3282  000C36  355E               	rlcf	((main@i))&0ffh,w	;volatile
  3283  000C38  0100               	movlb	0	; () banked
  3284  000C3A  6FA0               	movwf	(??_main+0+0)&0ffh
  3285  000C3C  0101               	movlb	1	; () banked
  3286  000C3E  0101               	movlb	1	; () banked
  3287  000C40  355F               	rlcf	((main@i+1))&0ffh,w	;volatile
  3288  000C42  0100               	movlb	0	; () banked
  3289  000C44  6FA1               	movwf	1+(??_main+0+0)&0ffh
  3290  000C46  0101               	movlb	1	; () banked
  3291  000C48  0E24               	movlw	low(main@buttonState)	;volatile
  3292  000C4A  0100               	movlb	0	; () banked
  3293  000C4C  25A0               	addwf	(??_main+0+0)&0ffh,w
  3294  000C4E  6ED9               	movwf	c:fsr2l
  3295  000C50  0101               	movlb	1	; () banked
  3296  000C52  0E01               	movlw	high(main@buttonState)	;volatile
  3297  000C54  0100               	movlb	0	; () banked
  3298  000C56  21A1               	addwfc	(??_main+0+1)&0ffh,w
  3299  000C58  6EDA               	movwf	1+c:fsr2l
  3300  000C5A  50DE               	movf	postinc2,w
  3301  000C5C  10DD               	iorwf	postdec2,w
  3302  000C5E  A4D8               	btfss	status,2
  3303  000C60  D001               	goto	u1751
  3304  000C62  D001               	goto	u1750
  3305  000C64                     u1751:
  3306  000C64  D01A               	goto	l2196
  3307  000C66                     u1750:
  3308                           opt subtitle "HI-TECH Software Omniscient Code Generator (Lite mode) build 49521"
  3309                           
  3310  000C66                     l2194:; BSR set to: 0
  3311                           opt subtitle "HI-TECH Software Omniscient Code Generator (Lite mode) build 49521"
  3312                           
  3313                           opt pagewidth 120
  3314  000C66  90D8               	bcf	status,0
  3315  000C68  0101               	movlb	1	; () banked
  3316  000C6A  0101               	movlb	1	; () banked
  3317  000C6C  355E               	rlcf	((main@i))&0ffh,w	;volatile
  3318  000C6E  0100               	movlb	0	; () banked
  3319  000C70  6FA0               	movwf	(??_main+0+0)&0ffh
  3320  000C72  0101               	movlb	1	; () banked
  3321  000C74  0101               	movlb	1	; () banked
  3322  000C76  355F               	rlcf	((main@i+1))&0ffh,w	;volatile
  3323  000C78  0100               	movlb	0	; () banked
  3324  000C7A  6FA1               	movwf	1+(??_main+0+0)&0ffh
  3325  000C7C  0101               	movlb	1	; () banked
  3326  000C7E  0E24               	movlw	low(main@buttonState)	;volatile
  3327  000C80  0100               	movlb	0	; () banked
  3328  000C82  25A0               	addwf	(??_main+0+0)&0ffh,w
  3329  000C84  6ED9               	movwf	c:fsr2l
  3330  000C86  0101               	movlb	1	; () banked
  3331  000C88  0E01               	movlw	high(main@buttonState)	;volatile
  3332  000C8A  0100               	movlb	0	; () banked
  3333  000C8C  21A1               	addwfc	(??_main+0+1)&0ffh,w
  3334  000C8E  6EDA               	movwf	1+c:fsr2l
  3335  000C90  0E01               	movlw	low(01h)
  3336  000C92  6EDE               	movwf	postinc2
  3337  000C94  0E00               	movlw	high(01h)
  3338  000C96  6EDD               	movwf	postdec2
  3339                           opt subtitle "HI-TECH Software Omniscient Code Generator (Lite mode) build 49521"
  3340                           
  3341  000C98  D019               	goto	l154
  3342                           opt subtitle "HI-TECH Software Omniscient Code Generator (Lite mode) build 49521"
  3343                           
  3344  000C9A                     l153:; BSR set to: 0
  3345                           opt subtitle "HI-TECH Software Omniscient Code Generator (Lite mode) build 49521"
  3346                           
  3347                           opt pagewidth 120
  3348  000C9A                     l2196:; BSR set to: 0
  3349                           opt subtitle "HI-TECH Software Omniscient Code Generator (Lite mode) build 49521"
  3350                           
  3351                           opt pagewidth 120
  3352                           
  3353  000C9A  90D8               	bcf	status,0
  3354  000C9C  0101               	movlb	1	; () banked
  3355  000C9E  0101               	movlb	1	; () banked
  3356  000CA0  355E               	rlcf	((main@i))&0ffh,w	;volatile
  3357  000CA2  0100               	movlb	0	; () banked
  3358  000CA4  6FA0               	movwf	(??_main+0+0)&0ffh
  3359  000CA6  0101               	movlb	1	; () banked
  3360  000CA8  0101               	movlb	1	; () banked
  3361  000CAA  355F               	rlcf	((main@i+1))&0ffh,w	;volatile
  3362  000CAC  0100               	movlb	0	; () banked
  3363  000CAE  6FA1               	movwf	1+(??_main+0+0)&0ffh
  3364  000CB0  0101               	movlb	1	; () banked
  3365  000CB2  0E24               	movlw	low(main@buttonState)	;volatile
  3366  000CB4  0100               	movlb	0	; () banked
  3367  000CB6  25A0               	addwf	(??_main+0+0)&0ffh,w
  3368  000CB8  6ED9               	movwf	c:fsr2l
  3369  000CBA  0101               	movlb	1	; () banked
  3370  000CBC  0E01               	movlw	high(main@buttonState)	;volatile
  3371  000CBE  0100               	movlb	0	; () banked
  3372  000CC0  21A1               	addwfc	(??_main+0+1)&0ffh,w
  3373  000CC2  6EDA               	movwf	1+c:fsr2l
  3374  000CC4  0E00               	movlw	low(0)
  3375  000CC6  6EDE               	movwf	postinc2
  3376  000CC8  0E00               	movlw	high(0)
  3377  000CCA  6EDD               	movwf	postdec2
  3378                           opt subtitle "HI-TECH Software Omniscient Code Generator (Lite mode) build 49521"
  3379                           
  3380  000CCC                     l154:; BSR set to: 0
  3381                           opt subtitle "HI-TECH Software Omniscient Code Generator (Lite mode) build 49521"
  3382                           
  3383                           opt pagewidth 120
  3384                           
  3385  000CCC  90D8               	bcf	status,0
  3386  000CCE  0101               	movlb	1	; () banked
  3387  000CD0  0101               	movlb	1	; () banked
  3388  000CD2  355E               	rlcf	((main@i))&0ffh,w	;volatile
  3389  000CD4  0100               	movlb	0	; () banked
  3390  000CD6  6FA0               	movwf	(??_main+0+0)&0ffh
  3391  000CD8  0101               	movlb	1	; () banked
  3392  000CDA  0101               	movlb	1	; () banked
  3393  000CDC  355F               	rlcf	((main@i+1))&0ffh,w	;volatile
  3394  000CDE  0100               	movlb	0	; () banked
  3395  000CE0  6FA1               	movwf	1+(??_main+0+0)&0ffh
  3396  000CE2  0101               	movlb	1	; () banked
  3397  000CE4  0E48               	movlw	low(main@buttonEventDown)	;volatile
  3398  000CE6  0100               	movlb	0	; () banked
  3399  000CE8  25A0               	addwf	(??_main+0+0)&0ffh,w
  3400  000CEA  6ED9               	movwf	c:fsr2l
  3401  000CEC  0101               	movlb	1	; () banked
  3402  000CEE  0E01               	movlw	high(main@buttonEventDown)	;volatile
  3403  000CF0  0100               	movlb	0	; () banked
  3404  000CF2  21A1               	addwfc	(??_main+0+1)&0ffh,w
  3405  000CF4  6EDA               	movwf	1+c:fsr2l
  3406  000CF6  0E00               	movlw	low(0)
  3407  000CF8  6EDE               	movwf	postinc2
  3408  000CFA  0E00               	movlw	high(0)
  3409  000CFC  6EDD               	movwf	postdec2
  3410  000CFE  D09F               	goto	l2204
  3411                           opt subtitle "HI-TECH Software Omniscient Code Generator (Lite mode) build 49521"
  3412                           
  3413  000D00                     l152:; BSR set to: 0
  3414                           opt subtitle "HI-TECH Software Omniscient Code Generator (Lite mode) build 49521"
  3415                           
  3416                           opt pagewidth 120
  3417                           
  3418  000D00  D09E               	goto	l2204
  3419                           opt subtitle "HI-TECH Software Omniscient Code Generator (Lite mode) build 49521"
  3420                           
  3421  000D02                     l151:; BSR set to: 0
  3422                           opt subtitle "HI-TECH Software Omniscient Code Generator (Lite mode) build 49521"
  3423                           
  3424                           opt pagewidth 120
  3425  000D02                     l2198:; BSR set to: 0
  3426                           opt subtitle "HI-TECH Software Omniscient Code Generator (Lite mode) build 49521"
  3427                           
  3428                           opt pagewidth 120
  3429                           
  3430  000D02  90D8               	bcf	status,0
  3431  000D04  0101               	movlb	1	; () banked
  3432  000D06  0101               	movlb	1	; () banked
  3433  000D08  355E               	rlcf	((main@i))&0ffh,w	;volatile
  3434  000D0A  0100               	movlb	0	; () banked
  3435  000D0C  6FA0               	movwf	(??_main+0+0)&0ffh
  3436  000D0E  0101               	movlb	1	; () banked
  3437  000D10  0101               	movlb	1	; () banked
  3438  000D12  355F               	rlcf	((main@i+1))&0ffh,w	;volatile
  3439  000D14  0100               	movlb	0	; () banked
  3440  000D16  6FA1               	movwf	1+(??_main+0+0)&0ffh
  3441  000D18  0101               	movlb	1	; () banked
  3442  000D1A  0E48               	movlw	low(main@buttonEventDown)	;volatile
  3443  000D1C  0100               	movlb	0	; () banked
  3444  000D1E  25A0               	addwf	(??_main+0+0)&0ffh,w
  3445  000D20  6ED9               	movwf	c:fsr2l
  3446  000D22  0101               	movlb	1	; () banked
  3447  000D24  0E01               	movlw	high(main@buttonEventDown)	;volatile
  3448  000D26  0100               	movlb	0	; () banked
  3449  000D28  21A1               	addwfc	(??_main+0+1)&0ffh,w
  3450  000D2A  6EDA               	movwf	1+c:fsr2l
  3451  000D2C  50DE               	movf	postinc2,w
  3452  000D2E  0A01               	xorlw	01h
  3453  000D30  10DD               	iorwf	postdec2,w
  3454  000D32  A4D8               	btfss	status,2
  3455  000D34  D001               	goto	u1761
  3456  000D36  D001               	goto	u1760
  3457  000D38                     u1761:
  3458  000D38  D032               	goto	l156
  3459  000D3A                     u1760:
  3460                           opt subtitle "HI-TECH Software Omniscient Code Generator (Lite mode) build 49521"
  3461                           
  3462  000D3A                     l2200:; BSR set to: 0
  3463                           opt subtitle "HI-TECH Software Omniscient Code Generator (Lite mode) build 49521"
  3464                           
  3465                           opt pagewidth 120
  3466  000D3A  90D8               	bcf	status,0
  3467  000D3C  0101               	movlb	1	; () banked
  3468  000D3E  0101               	movlb	1	; () banked
  3469  000D40  355E               	rlcf	((main@i))&0ffh,w	;volatile
  3470  000D42  0100               	movlb	0	; () banked
  3471  000D44  6FA0               	movwf	(??_main+0+0)&0ffh
  3472  000D46  0101               	movlb	1	; () banked
  3473  000D48  0101               	movlb	1	; () banked
  3474  000D4A  355F               	rlcf	((main@i+1))&0ffh,w	;volatile
  3475  000D4C  0100               	movlb	0	; () banked
  3476  000D4E  6FA1               	movwf	1+(??_main+0+0)&0ffh
  3477  000D50  0101               	movlb	1	; () banked
  3478  000D52  0E24               	movlw	low(main@buttonState)	;volatile
  3479  000D54  0100               	movlb	0	; () banked
  3480  000D56  25A0               	addwf	(??_main+0+0)&0ffh,w
  3481  000D58  6ED9               	movwf	c:fsr2l
  3482  000D5A  0101               	movlb	1	; () banked
  3483  000D5C  0E01               	movlw	high(main@buttonState)	;volatile
  3484  000D5E  0100               	movlb	0	; () banked
  3485  000D60  21A1               	addwfc	(??_main+0+1)&0ffh,w
  3486  000D62  6EDA               	movwf	1+c:fsr2l
  3487  000D64  0E01               	movlw	low(01h)
  3488  000D66  6EDE               	movwf	postinc2
  3489  000D68  0E00               	movlw	high(01h)
  3490  000D6A  6EDD               	movwf	postdec2
  3491                           opt subtitle "HI-TECH Software Omniscient Code Generator (Lite mode) build 49521"
  3492                           
  3493  000D6C  90D8               	bcf	status,0
  3494  000D6E  0101               	movlb	1	; () banked
  3495  000D70  0101               	movlb	1	; () banked
  3496  000D72  355E               	rlcf	((main@i))&0ffh,w	;volatile
  3497  000D74  0100               	movlb	0	; () banked
  3498  000D76  6FA0               	movwf	(??_main+0+0)&0ffh
  3499  000D78  0101               	movlb	1	; () banked
  3500  000D7A  0101               	movlb	1	; () banked
  3501  000D7C  355F               	rlcf	((main@i+1))&0ffh,w	;volatile
  3502  000D7E  0100               	movlb	0	; () banked
  3503  000D80  6FA1               	movwf	1+(??_main+0+0)&0ffh
  3504  000D82  0101               	movlb	1	; () banked
  3505  000D84  0E48               	movlw	low(main@buttonEventDown)	;volatile
  3506  000D86  0100               	movlb	0	; () banked
  3507  000D88  25A0               	addwf	(??_main+0+0)&0ffh,w
  3508  000D8A  6ED9               	movwf	c:fsr2l
  3509  000D8C  0101               	movlb	1	; () banked
  3510  000D8E  0E01               	movlw	high(main@buttonEventDown)	;volatile
  3511  000D90  0100               	movlb	0	; () banked
  3512  000D92  21A1               	addwfc	(??_main+0+1)&0ffh,w
  3513  000D94  6EDA               	movwf	1+c:fsr2l
  3514  000D96  0E00               	movlw	low(0)
  3515  000D98  6EDE               	movwf	postinc2
  3516  000D9A  0E00               	movlw	high(0)
  3517  000D9C  6EDD               	movwf	postdec2
  3518                           opt subtitle "HI-TECH Software Omniscient Code Generator (Lite mode) build 49521"
  3519                           
  3520  000D9E                     l156:; BSR set to: 0
  3521                           opt subtitle "HI-TECH Software Omniscient Code Generator (Lite mode) build 49521"
  3522                           
  3523                           opt pagewidth 120
  3524                           
  3525  000D9E  90D8               	bcf	status,0
  3526  000DA0  0101               	movlb	1	; () banked
  3527  000DA2  0101               	movlb	1	; () banked
  3528  000DA4  355E               	rlcf	((main@i))&0ffh,w	;volatile
  3529  000DA6  0100               	movlb	0	; () banked
  3530  000DA8  6FA0               	movwf	(??_main+0+0)&0ffh
  3531  000DAA  0101               	movlb	1	; () banked
  3532  000DAC  0101               	movlb	1	; () banked
  3533  000DAE  355F               	rlcf	((main@i+1))&0ffh,w	;volatile
  3534  000DB0  0100               	movlb	0	; () banked
  3535  000DB2  6FA1               	movwf	1+(??_main+0+0)&0ffh
  3536  000DB4  0101               	movlb	1	; () banked
  3537  000DB6  0E12               	movlw	low(main@buttonEventUp)	;volatile
  3538  000DB8  0100               	movlb	0	; () banked
  3539  000DBA  25A0               	addwf	(??_main+0+0)&0ffh,w
  3540  000DBC  6ED9               	movwf	c:fsr2l
  3541  000DBE  0101               	movlb	1	; () banked
  3542  000DC0  0E01               	movlw	high(main@buttonEventUp)	;volatile
  3543  000DC2  0100               	movlb	0	; () banked
  3544  000DC4  21A1               	addwfc	(??_main+0+1)&0ffh,w
  3545  000DC6  6EDA               	movwf	1+c:fsr2l
  3546  000DC8  50DE               	movf	postinc2,w
  3547  000DCA  0A01               	xorlw	01h
  3548  000DCC  10DD               	iorwf	postdec2,w
  3549  000DCE  A4D8               	btfss	status,2
  3550  000DD0  D001               	goto	u1771
  3551  000DD2  D001               	goto	u1770
  3552  000DD4                     u1771:
  3553  000DD4  D034               	goto	l2204
  3554  000DD6                     u1770:
  3555                           opt subtitle "HI-TECH Software Omniscient Code Generator (Lite mode) build 49521"
  3556                           
  3557  000DD6                     l2202:; BSR set to: 0
  3558                           opt subtitle "HI-TECH Software Omniscient Code Generator (Lite mode) build 49521"
  3559                           
  3560                           opt pagewidth 120
  3561  000DD6  90D8               	bcf	status,0
  3562  000DD8  0101               	movlb	1	; () banked
  3563  000DDA  0101               	movlb	1	; () banked
  3564  000DDC  355E               	rlcf	((main@i))&0ffh,w	;volatile
  3565  000DDE  0100               	movlb	0	; () banked
  3566  000DE0  6FA0               	movwf	(??_main+0+0)&0ffh
  3567  000DE2  0101               	movlb	1	; () banked
  3568  000DE4  0101               	movlb	1	; () banked
  3569  000DE6  355F               	rlcf	((main@i+1))&0ffh,w	;volatile
  3570  000DE8  0100               	movlb	0	; () banked
  3571  000DEA  6FA1               	movwf	1+(??_main+0+0)&0ffh
  3572  000DEC  0101               	movlb	1	; () banked
  3573  000DEE  0E24               	movlw	low(main@buttonState)	;volatile
  3574  000DF0  0100               	movlb	0	; () banked
  3575  000DF2  25A0               	addwf	(??_main+0+0)&0ffh,w
  3576  000DF4  6ED9               	movwf	c:fsr2l
  3577  000DF6  0101               	movlb	1	; () banked
  3578  000DF8  0E01               	movlw	high(main@buttonState)	;volatile
  3579  000DFA  0100               	movlb	0	; () banked
  3580  000DFC  21A1               	addwfc	(??_main+0+1)&0ffh,w
  3581  000DFE  6EDA               	movwf	1+c:fsr2l
  3582  000E00  0E00               	movlw	low(0)
  3583  000E02  6EDE               	movwf	postinc2
  3584  000E04  0E00               	movlw	high(0)
  3585  000E06  6EDD               	movwf	postdec2
  3586                           opt subtitle "HI-TECH Software Omniscient Code Generator (Lite mode) build 49521"
  3587                           
  3588  000E08  90D8               	bcf	status,0
  3589  000E0A  0101               	movlb	1	; () banked
  3590  000E0C  0101               	movlb	1	; () banked
  3591  000E0E  355E               	rlcf	((main@i))&0ffh,w	;volatile
  3592  000E10  0100               	movlb	0	; () banked
  3593  000E12  6FA0               	movwf	(??_main+0+0)&0ffh
  3594  000E14  0101               	movlb	1	; () banked
  3595  000E16  0101               	movlb	1	; () banked
  3596  000E18  355F               	rlcf	((main@i+1))&0ffh,w	;volatile
  3597  000E1A  0100               	movlb	0	; () banked
  3598  000E1C  6FA1               	movwf	1+(??_main+0+0)&0ffh
  3599  000E1E  0101               	movlb	1	; () banked
  3600  000E20  0E12               	movlw	low(main@buttonEventUp)	;volatile
  3601  000E22  0100               	movlb	0	; () banked
  3602  000E24  25A0               	addwf	(??_main+0+0)&0ffh,w
  3603  000E26  6ED9               	movwf	c:fsr2l
  3604  000E28  0101               	movlb	1	; () banked
  3605  000E2A  0E01               	movlw	high(main@buttonEventUp)	;volatile
  3606  000E2C  0100               	movlb	0	; () banked
  3607  000E2E  21A1               	addwfc	(??_main+0+1)&0ffh,w
  3608  000E30  6EDA               	movwf	1+c:fsr2l
  3609  000E32  0E00               	movlw	low(0)
  3610  000E34  6EDE               	movwf	postinc2
  3611  000E36  0E00               	movlw	high(0)
  3612  000E38  6EDD               	movwf	postdec2
  3613  000E3A  D001               	goto	l2204
  3614                           opt subtitle "HI-TECH Software Omniscient Code Generator (Lite mode) build 49521"
  3615                           
  3616  000E3C                     l157:; BSR set to: 0
  3617                           opt subtitle "HI-TECH Software Omniscient Code Generator (Lite mode) build 49521"
  3618  000E3C  D000               	goto	l2204
  3619                           opt subtitle "HI-TECH Software Omniscient Code Generator (Lite mode) build 49521"
  3620                           
  3621  000E3E                     l155:; BSR set to: 0
  3622                           opt subtitle "HI-TECH Software Omniscient Code Generator (Lite mode) build 49521"
  3623                           
  3624                           opt pagewidth 120
  3625  000E3E                     l2204:; BSR set to: 0
  3626                           opt subtitle "HI-TECH Software Omniscient Code Generator (Lite mode) build 49521"
  3627                           
  3628                           opt pagewidth 120
  3629                           
  3630  000E3E  0E05               	movlw	high(0520h)
  3631  000E40  6E21               	movwf	((c:?_checkButton+1)),c
  3632  000E42  0E20               	movlw	low(0520h)
  3633  000E44  6E20               	movwf	((c:?_checkButton)),c
  3634  000E46  EC4B  F009         	call	_checkButton	;wreg free
  3635  000E4A  0900               	iorlw	0
  3636  000E4C  0E00               	movlw	0
  3637  000E4E  B4D8               	btfsc	status,2
  3638  000E50  0E01               	movlw	1
  3639  000E52  0100               	movlb	0	; () banked
  3640  000E54  0100               	movlb	0	; () banked
  3641  000E56  6F96               	movwf	((?_setOutputs))&0ffh
  3642  000E58  0100               	movlb	0	; () banked
  3643  000E5A  6B97               	clrf	((?_setOutputs+1))&0ffh
  3644  000E5C  C15E  F098         	movff	(main@i),0+(?_setOutputs+02h)	;volatile
  3645  000E60  C15F  F099         	movff	(main@i+1),1+(?_setOutputs+02h)	;volatile
  3646  000E64  90D8               	bcf	status,0
  3647  000E66  0101               	movlb	1	; () banked
  3648  000E68  0101               	movlb	1	; () banked
  3649  000E6A  355E               	rlcf	((main@i))&0ffh,w	;volatile
  3650  000E6C  0100               	movlb	0	; () banked
  3651  000E6E  6FA0               	movwf	(??_main+0+0)&0ffh
  3652  000E70  0101               	movlb	1	; () banked
  3653  000E72  0101               	movlb	1	; () banked
  3654  000E74  355F               	rlcf	((main@i+1))&0ffh,w	;volatile
  3655  000E76  0100               	movlb	0	; () banked
  3656  000E78  6FA1               	movwf	1+(??_main+0+0)&0ffh
  3657  000E7A  0100               	movlb	0	; () banked
  3658  000E7C  0E60               	movlw	low(_relayMask)	;volatile
  3659  000E7E  0100               	movlb	0	; () banked
  3660  000E80  25A0               	addwf	(??_main+0+0)&0ffh,w
  3661  000E82  6ED9               	movwf	c:fsr2l
  3662  000E84  0100               	movlb	0	; () banked
  3663  000E86  0E00               	movlw	high(_relayMask)	;volatile
  3664  000E88  0100               	movlb	0	; () banked
  3665  000E8A  21A1               	addwfc	(??_main+0+1)&0ffh,w
  3666  000E8C  6EDA               	movwf	1+c:fsr2l
  3667  000E8E  0100               	movlb	0	; () banked
  3668  000E90  CFDE F09A          	movff	postinc2,0+(?_setOutputs+04h)
  3669  000E94  0100               	movlb	0	; () banked
  3670  000E96  CFDD F09B          	movff	postdec2,1+(?_setOutputs+04h)
  3671  000E9A  90D8               	bcf	status,0
  3672  000E9C  0101               	movlb	1	; () banked
  3673  000E9E  0101               	movlb	1	; () banked
  3674  000EA0  355E               	rlcf	((main@i))&0ffh,w	;volatile
  3675  000EA2  0100               	movlb	0	; () banked
  3676  000EA4  6FA2               	movwf	(??_main+2+0)&0ffh
  3677  000EA6  0101               	movlb	1	; () banked
  3678  000EA8  0101               	movlb	1	; () banked
  3679  000EAA  355F               	rlcf	((main@i+1))&0ffh,w	;volatile
  3680  000EAC  0100               	movlb	0	; () banked
  3681  000EAE  6FA3               	movwf	1+(??_main+2+0)&0ffh
  3682  000EB0  0101               	movlb	1	; () banked
  3683  000EB2  0E24               	movlw	low(main@buttonState)	;volatile
  3684  000EB4  0100               	movlb	0	; () banked
  3685  000EB6  25A2               	addwf	(??_main+2+0)&0ffh,w
  3686  000EB8  6ED9               	movwf	c:fsr2l
  3687  000EBA  0101               	movlb	1	; () banked
  3688  000EBC  0E01               	movlw	high(main@buttonState)	;volatile
  3689  000EBE  0100               	movlb	0	; () banked
  3690  000EC0  21A3               	addwfc	(??_main+2+1)&0ffh,w
  3691  000EC2  6EDA               	movwf	1+c:fsr2l
  3692  000EC4  0100               	movlb	0	; () banked
  3693  000EC6  CFDE F09C          	movff	postinc2,0+(?_setOutputs+06h)
  3694  000ECA  0100               	movlb	0	; () banked
  3695  000ECC  CFDD F09D          	movff	postdec2,1+(?_setOutputs+06h)
  3696  000ED0  0100               	movlb	0	; () banked
  3697  000ED2  EC2B  F00A         	call	_setOutputs	;wreg free
  3698                           opt subtitle "HI-TECH Software Omniscient Code Generator (Lite mode) build 49521"
  3699                           
  3700  000ED6                     l2206:
  3701  000ED6  0101               	movlb	1	; () banked
  3702  000ED8  0101               	movlb	1	; () banked
  3703  000EDA  4B5E               	infsnz	((main@i))&0ffh	;volatile
  3704  000EDC  2B5F               	incf	((main@i+1))&0ffh	;volatile
  3705                           opt subtitle "HI-TECH Software Omniscient Code Generator (Lite mode) build 49521"
  3706  000EDE                     l2208:; BSR set to: 1
  3707                           opt subtitle "HI-TECH Software Omniscient Code Generator (Lite mode) build 49521"
  3708  000EDE  0E09               	movlw	09h
  3709  000EE0  0101               	movlb	1	; () banked
  3710  000EE2  0101               	movlb	1	; () banked
  3711  000EE4  5D5E               	subwf	((main@i))&0ffh,w	;volatile
  3712  000EE6  0E00               	movlw	0
  3713  000EE8  0101               	movlb	1	; () banked
  3714  000EEA  595F               	subwfb	((main@i+1))&0ffh,w	;volatile
  3715  000EEC  A0D8               	btfss	status,0
  3716  000EEE  D001               	goto	u1781
  3717  000EF0  D001               	goto	u1780
  3718  000EF2                     u1781:
  3719  000EF2  D666               	goto	l2188
  3720  000EF4                     u1780:
  3721  000EF4  EF4E  F002         	goto	l2084
  3722                           opt subtitle "HI-TECH Software Omniscient Code Generator (Lite mode) build 49521"
  3723  000EF8                     l150:; BSR set to: 1
  3724                           opt subtitle "HI-TECH Software Omniscient Code Generator (Lite mode) build 49521"
  3725  000EF8  EF4E  F002         	goto	l2084
  3726                           opt subtitle "HI-TECH Software Omniscient Code Generator (Lite mode) build 49521"
  3727                           
  3728  000EFC                     l145:; BSR set to: 1
  3729                           opt subtitle "HI-TECH Software Omniscient Code Generator (Lite mode) build 49521"
  3730                           
  3731                           opt pagewidth 120
  3732                           
  3733                           	opt lm
  3734  000EFC  EF4E  F002         	goto	l2084
  3735                           opt subtitle "HI-TECH Software Omniscient Code Generator (Lite mode) build 49521"
  3736  000F00                     l158:; BSR set to: 1
  3737                           opt subtitle "HI-TECH Software Omniscient Code Generator (Lite mode) build 49521"
  3738                           
  3739                           opt pagewidth 120
  3740  000F00                     l159:; BSR set to: 1
  3741                           opt subtitle "HI-TECH Software Omniscient Code Generator (Lite mode) build 49521"
  3742                           
  3743  000F00  EF0E  F001         	goto	start
  3744                           opt subtitle "HI-TECH Software Omniscient Code Generator (Lite mode) build 49521"
  3745                           
  3746  000F04                     	__end_of_main:
  3747                           opt subtitle "HI-TECH Software Omniscient Code Generator (Lite mode) build 49521"
  3748                           
  3749                           opt pagewidth 120
  3750                           
  3751                           	opt lm
  3752                           
  3753                           	processor	18F65K22
  3754                           porta	equ	0F80h
  3755                           portb	equ	0F81h
  3756                           portc	equ	0F82h
  3757                           portd	equ	0F83h
  3758                           porte	equ	0F84h
  3759                           lata	equ	0F89h
  3760                           latb	equ	0F8Ah
  3761                           latc	equ	0F8Bh
  3762                           latd	equ	0F8Ch
  3763                           late	equ	0F8Dh
  3764                           trisa	equ	0F92h
  3765                           trisb	equ	0F93h
  3766                           trisc	equ	0F94h
  3767                           trisd	equ	0F95h
  3768                           trise	equ	0F96h
  3769                           pie1	equ	0F9Dh
  3770                           pir1	equ	0F9Eh
  3771                           ipr1	equ	0F9Fh
  3772                           pie2	equ	0FA0h
  3773                           pir2	equ	0FA1h
  3774                           ipr2	equ	0FA2h
  3775                           t3con	equ	0FB1h
  3776                           tmr3l	equ	0FB2h
  3777                           tmr3h	equ	0FB3h
  3778                           ccp1con	equ	0FBDh
  3779                           ccpr1l	equ	0FBEh
  3780                           ccpr1h	equ	0FBFh
  3781  00158A                     __ptext1:
  3782                           opt subtitle "HI-TECH Software Omniscient Code Generator (Lite mode) build 49521"
  3783                           
  3784                           opt pagewidth 120
  3785                           
  3786  0000                     	__size_of_WriteTimer0	equ	__end_of_WriteTimer0-_WriteTimer0
  3787                           opt subtitle "HI-TECH Software Omniscient Code Generator (Lite mode) build 49521"
  3788  00158A                     _WriteTimer0:; BSR set to: 1
  3789                           opt subtitle "HI-TECH Software Omniscient Code Generator (Lite mode) build 49521"
  3790                           
  3791                           opt pagewidth 120
  3792                           
  3793  00158A                     l1986:
  3794  00158A  C020  F022         	movff	(c:WriteTimer0@timer0),(c:WriteTimer0@timer)
  3795  00158E  C021  F023         	movff	(c:WriteTimer0@timer0+1),(c:WriteTimer0@timer+1)
  3796                           opt subtitle "HI-TECH Software Omniscient Code Generator (Lite mode) build 49521"
  3797  001592  C023  FFD7         	movff	0+((c:WriteTimer0@timer)+01h),(c:4055)	;volatile
  3798                           opt subtitle "HI-TECH Software Omniscient Code Generator (Lite mode) build 49521"
  3799  001596  C022  FFD6         	movff	(c:WriteTimer0@timer),(c:4054)	;volatile
  3800                           opt subtitle "HI-TECH Software Omniscient Code Generator (Lite mode) build 49521"
  3801                           
  3802  00159A                     l313:
  3803  00159A  0012               	return
  3804                           opt subtitle "HI-TECH Software Omniscient Code Generator (Lite mode) build 49521"
  3805                           
  3806  00159C                     	__end_of_WriteTimer0:
  3807                           opt subtitle "HI-TECH Software Omniscient Code Generator (Lite mode) build 49521"
  3808                           
  3809                           opt pagewidth 120
  3810                           
  3811                           	opt lm
  3812                           
  3813                           	processor	18F65K22
  3814                           porta	equ	0F80h
  3815                           portb	equ	0F81h
  3816                           portc	equ	0F82h
  3817                           portd	equ	0F83h
  3818                           porte	equ	0F84h
  3819                           lata	equ	0F89h
  3820                           latb	equ	0F8Ah
  3821                           latc	equ	0F8Bh
  3822                           latd	equ	0F8Ch
  3823                           late	equ	0F8Dh
  3824                           trisa	equ	0F92h
  3825                           trisb	equ	0F93h
  3826                           trisc	equ	0F94h
  3827                           trisd	equ	0F95h
  3828                           trise	equ	0F96h
  3829                           pie1	equ	0F9Dh
  3830                           pir1	equ	0F9Eh
  3831                           ipr1	equ	0F9Fh
  3832                           pie2	equ	0FA0h
  3833                           pir2	equ	0FA1h
  3834                           ipr2	equ	0FA2h
  3835                           t3con	equ	0FB1h
  3836                           tmr3l	equ	0FB2h
  3837                           tmr3h	equ	0FB3h
  3838                           ccp1con	equ	0FBDh
  3839                           ccpr1l	equ	0FBEh
  3840                           ccpr1h	equ	0FBFh
  3841  00153A                     __ptext2:
  3842                           opt subtitle "HI-TECH Software Omniscient Code Generator (Lite mode) build 49521"
  3843                           
  3844                           opt pagewidth 120
  3845                           
  3846  0000                     	__size_of_OpenTimer0	equ	__end_of_OpenTimer0-_OpenTimer0
  3847                           opt subtitle "HI-TECH Software Omniscient Code Generator (Lite mode) build 49521"
  3848  00153A                     _OpenTimer0:
  3849                           opt subtitle "HI-TECH Software Omniscient Code Generator (Lite mode) build 49521"
  3850                           
  3851                           opt pagewidth 120
  3852  00153A                     l2210:
  3853  00153A  5020               	movf	((c:OpenTimer0@config)),c,w
  3854  00153C  0B7F               	andlw	low(07Fh)
  3855  00153E  6ED5               	movwf	((c:4053)),c	;volatile
  3856                           opt subtitle "HI-TECH Software Omniscient Code Generator (Lite mode) build 49521"
  3857                           
  3858  001540                     l2212:
  3859  001540  0E00               	movlw	low(0)
  3860  001542  6ED7               	movwf	((c:4055)),c	;volatile
  3861                           opt subtitle "HI-TECH Software Omniscient Code Generator (Lite mode) build 49521"
  3862                           
  3863  001544                     l2214:
  3864  001544  0E00               	movlw	low(0)
  3865  001546  6ED6               	movwf	((c:4054)),c	;volatile
  3866                           opt subtitle "HI-TECH Software Omniscient Code Generator (Lite mode) build 49521"
  3867                           
  3868  001548                     l2216:
  3869  001548  94F2               	bcf	((c:4082)),c,2	;volatile
  3870                           opt subtitle "HI-TECH Software Omniscient Code Generator (Lite mode) build 49521"
  3871                           
  3872  00154A                     l2218:
  3873                           opt subtitle "HI-TECH Software Omniscient Code Generator (Lite mode) build 49521"
  3874  00154A  AE20               	btfss	((c:OpenTimer0@config)),c,(7)&7
  3875  00154C  D001               	goto	u1791
  3876  00154E  D001               	goto	u1790
  3877  001550                     u1791:
  3878  001550  D002               	goto	l304
  3879  001552                     u1790:
  3880                           opt subtitle "HI-TECH Software Omniscient Code Generator (Lite mode) build 49521"
  3881                           
  3882  001552                     l2220:
  3883  001552  8AF2               	bsf	((c:4082)),c,5	;volatile
  3884  001554  D001               	goto	l305
  3885                           opt subtitle "HI-TECH Software Omniscient Code Generator (Lite mode) build 49521"
  3886                           
  3887  001556                     l304:
  3888                           opt subtitle "HI-TECH Software Omniscient Code Generator (Lite mode) build 49521"
  3889  001556  9AF2               	bcf	((c:4082)),c,5	;volatile
  3890                           opt subtitle "HI-TECH Software Omniscient Code Generator (Lite mode) build 49521"
  3891  001558                     l305:
  3892                           opt subtitle "HI-TECH Software Omniscient Code Generator (Lite mode) build 49521"
  3893  001558  8ED5               	bsf	((c:4053)),c,7	;volatile
  3894                           opt subtitle "HI-TECH Software Omniscient Code Generator (Lite mode) build 49521"
  3895                           
  3896  00155A                     l306:
  3897  00155A  0012               	return
  3898                           opt subtitle "HI-TECH Software Omniscient Code Generator (Lite mode) build 49521"
  3899                           
  3900  00155C                     	__end_of_OpenTimer0:
  3901                           opt subtitle "HI-TECH Software Omniscient Code Generator (Lite mode) build 49521"
  3902                           
  3903                           opt pagewidth 120
  3904                           
  3905                           	opt lm
  3906                           
  3907                           	processor	18F65K22
  3908                           porta	equ	0F80h
  3909                           portb	equ	0F81h
  3910                           portc	equ	0F82h
  3911                           portd	equ	0F83h
  3912                           porte	equ	0F84h
  3913                           lata	equ	0F89h
  3914                           latb	equ	0F8Ah
  3915                           latc	equ	0F8Bh
  3916                           latd	equ	0F8Ch
  3917                           late	equ	0F8Dh
  3918                           trisa	equ	0F92h
  3919                           trisb	equ	0F93h
  3920                           trisc	equ	0F94h
  3921                           trisd	equ	0F95h
  3922                           trise	equ	0F96h
  3923                           pie1	equ	0F9Dh
  3924                           pir1	equ	0F9Eh
  3925                           ipr1	equ	0F9Fh
  3926                           pie2	equ	0FA0h
  3927                           pir2	equ	0FA1h
  3928                           ipr2	equ	0FA2h
  3929                           t3con	equ	0FB1h
  3930                           tmr3l	equ	0FB2h
  3931                           tmr3h	equ	0FB3h
  3932                           ccp1con	equ	0FBDh
  3933                           ccpr1l	equ	0FBEh
  3934                           ccpr1h	equ	0FBFh
  3935  0015D0                     __ptext3:
  3936                           opt subtitle "HI-TECH Software Omniscient Code Generator (Lite mode) build 49521"
  3937                           
  3938                           opt pagewidth 120
  3939                           
  3940  0000                     	__size_of_ConvertADC	equ	__end_of_ConvertADC-_ConvertADC
  3941                           opt subtitle "HI-TECH Software Omniscient Code Generator (Lite mode) build 49521"
  3942  0015D0                     _ConvertADC:
  3943                           opt subtitle "HI-TECH Software Omniscient Code Generator (Lite mode) build 49521"
  3944                           
  3945                           opt pagewidth 120
  3946  0015D0                     l2222:
  3947  0015D0  82C2               	bsf	((c:4034)),c,1	;volatile
  3948                           opt subtitle "HI-TECH Software Omniscient Code Generator (Lite mode) build 49521"
  3949                           
  3950  0015D2                     l247:
  3951  0015D2  0012               	return
  3952                           opt subtitle "HI-TECH Software Omniscient Code Generator (Lite mode) build 49521"
  3953                           
  3954  0015D4                     	__end_of_ConvertADC:
  3955                           opt subtitle "HI-TECH Software Omniscient Code Generator (Lite mode) build 49521"
  3956                           
  3957                           opt pagewidth 120
  3958                           
  3959                           	opt lm
  3960                           
  3961                           	processor	18F65K22
  3962                           porta	equ	0F80h
  3963                           portb	equ	0F81h
  3964                           portc	equ	0F82h
  3965                           portd	equ	0F83h
  3966                           porte	equ	0F84h
  3967                           lata	equ	0F89h
  3968                           latb	equ	0F8Ah
  3969                           latc	equ	0F8Bh
  3970                           latd	equ	0F8Ch
  3971                           late	equ	0F8Dh
  3972                           trisa	equ	0F92h
  3973                           trisb	equ	0F93h
  3974                           trisc	equ	0F94h
  3975                           trisd	equ	0F95h
  3976                           trise	equ	0F96h
  3977                           pie1	equ	0F9Dh
  3978                           pir1	equ	0F9Eh
  3979                           ipr1	equ	0F9Fh
  3980                           pie2	equ	0FA0h
  3981                           pir2	equ	0FA1h
  3982                           ipr2	equ	0FA2h
  3983                           t3con	equ	0FB1h
  3984                           tmr3l	equ	0FB2h
  3985                           tmr3h	equ	0FB3h
  3986                           ccp1con	equ	0FBDh
  3987                           ccpr1l	equ	0FBEh
  3988                           ccpr1h	equ	0FBFh
  3989                           adcon1	equ	0FC1h
  3990                           adcon0	equ	0FC2h
  3991                           adresl	equ	0FC3h
  3992  000F04                     __ptext4:
  3993                           opt subtitle "HI-TECH Software Omniscient Code Generator (Lite mode) build 49521"
  3994                           
  3995                           opt pagewidth 120
  3996                           
  3997  0000                     	__size_of_setupIO	equ	__end_of_setupIO-_setupIO
  3998                           opt subtitle "HI-TECH Software Omniscient Code Generator (Lite mode) build 49521"
  3999  000F04                     _setupIO:
  4000                           opt subtitle "HI-TECH Software Omniscient Code Generator (Lite mode) build 49521"
  4001                           
  4002                           opt pagewidth 120
  4003  000F04                     l2224:
  4004                           opt subtitle "HI-TECH Software Omniscient Code Generator (Lite mode) build 49521"
  4005                           
  4006                           opt pagewidth 120
  4007  000F04  0E00               	movlw	high(0)
  4008  000F06  0100               	movlb	0	; () banked
  4009  000F08  0100               	movlb	0	; () banked
  4010  000F0A  6F97               	movwf	((setupIO@state+1))&0ffh	;volatile
  4011  000F0C  0E00               	movlw	low(0)
  4012  000F0E  0100               	movlb	0	; () banked
  4013  000F10  6F96               	movwf	((setupIO@state))&0ffh	;volatile
  4014                           opt subtitle "HI-TECH Software Omniscient Code Generator (Lite mode) build 49521"
  4015                           
  4016  000F12  5021               	movf	((c:setupIO@row+1)),c,w
  4017  000F14  0100               	movlb	0	; () banked
  4018  000F16  0100               	movlb	0	; () banked
  4019  000F18  6F98               	movwf	((setupIO@port))&0ffh	;volatile
  4020  000F1A  0100               	movlb	0	; () banked
  4021  000F1C  6B99               	clrf	((setupIO@port+1))&0ffh	;volatile
  4022                           opt subtitle "HI-TECH Software Omniscient Code Generator (Lite mode) build 49521"
  4023                           
  4024  000F1E                     l2226:; BSR set to: 0
  4025                           opt subtitle "HI-TECH Software Omniscient Code Generator (Lite mode) build 49521"
  4026                           
  4027  000F1E  C020  F09A         	movff	(c:setupIO@row),(setupIO@mask)	;volatile
  4028                           opt subtitle "HI-TECH Software Omniscient Code Generator (Lite mode) build 49521"
  4029                           
  4030  000F22  D080               	goto	l2272
  4031                           opt subtitle "HI-TECH Software Omniscient Code Generator (Lite mode) build 49521"
  4032                           
  4033                           opt pagewidth 120
  4034                           
  4035  000F24                     l171:; BSR set to: 0
  4036                           opt subtitle "HI-TECH Software Omniscient Code Generator (Lite mode) build 49521"
  4037                           
  4038                           opt pagewidth 120
  4039  000F24                     l2228:; BSR set to: 0
  4040                           opt subtitle "HI-TECH Software Omniscient Code Generator (Lite mode) build 49521"
  4041                           
  4042  000F24  0422               	decf	((c:setupIO@direction)),c,w
  4043  000F26  1023               	iorwf ((c:setupIO@direction+1)),c,w
  4044                           opt subtitle "HI-TECH Software Omniscient Code Generator (Lite mode) build 49521"
  4045  000F28  A4D8               	btfss	status,2
  4046  000F2A  D001               	goto	u1801
  4047  000F2C  D001               	goto	u1800
  4048  000F2E                     u1801:
  4049  000F2E  D005               	goto	l2232
  4050  000F30                     u1800:
  4051                           opt subtitle "HI-TECH Software Omniscient Code Generator (Lite mode) build 49521"
  4052  000F30                     l2230:; BSR set to: 0
  4053                           opt subtitle "HI-TECH Software Omniscient Code Generator (Lite mode) build 49521"
  4054  000F30  0100               	movlb	0	; () banked
  4055  000F32  0100               	movlb	0	; () banked
  4056  000F34  519A               	movf	((setupIO@mask))&0ffh,w	;volatile
  4057  000F36  1292               	iorwf	((c:3986)),c	;volatile
  4058  000F38  D097               	goto	l194
  4059                           opt subtitle "HI-TECH Software Omniscient Code Generator (Lite mode) build 49521"
  4060  000F3A                     l172:; BSR set to: 0
  4061                           opt subtitle "HI-TECH Software Omniscient Code Generator (Lite mode) build 49521"
  4062                           
  4063  000F3A                     l2232:; BSR set to: 0
  4064                           opt subtitle "HI-TECH Software Omniscient Code Generator (Lite mode) build 49521"
  4065  000F3A  0100               	movlb	0	; () banked
  4066  000F3C  0100               	movlb	0	; () banked
  4067  000F3E  519A               	movf	((setupIO@mask))&0ffh,w	;volatile
  4068  000F40  0AFF               	xorlw	0ffh
  4069  000F42  1692               	andwf	((c:3986)),c	;volatile
  4070  000F44  D091               	goto	l194
  4071                           opt subtitle "HI-TECH Software Omniscient Code Generator (Lite mode) build 49521"
  4072  000F46                     l173:; BSR set to: 0
  4073                           opt subtitle "HI-TECH Software Omniscient Code Generator (Lite mode) build 49521"
  4074                           
  4075                           opt pagewidth 120
  4076  000F46  D090               	goto	l194
  4077                           opt subtitle "HI-TECH Software Omniscient Code Generator (Lite mode) build 49521"
  4078                           
  4079                           opt pagewidth 120
  4080  000F48                     l175:; BSR set to: 0
  4081                           opt subtitle "HI-TECH Software Omniscient Code Generator (Lite mode) build 49521"
  4082                           
  4083                           opt pagewidth 120
  4084  000F48                     l2234:; BSR set to: 0
  4085                           opt subtitle "HI-TECH Software Omniscient Code Generator (Lite mode) build 49521"
  4086                           
  4087  000F48  0422               	decf	((c:setupIO@direction)),c,w
  4088  000F4A  1023               	iorwf ((c:setupIO@direction+1)),c,w
  4089                           opt subtitle "HI-TECH Software Omniscient Code Generator (Lite mode) build 49521"
  4090  000F4C  A4D8               	btfss	status,2
  4091  000F4E  D001               	goto	u1811
  4092  000F50  D001               	goto	u1810
  4093  000F52                     u1811:
  4094  000F52  D005               	goto	l2238
  4095  000F54                     u1810:
  4096                           opt subtitle "HI-TECH Software Omniscient Code Generator (Lite mode) build 49521"
  4097  000F54                     l2236:; BSR set to: 0
  4098                           opt subtitle "HI-TECH Software Omniscient Code Generator (Lite mode) build 49521"
  4099  000F54  0100               	movlb	0	; () banked
  4100  000F56  0100               	movlb	0	; () banked
  4101  000F58  519A               	movf	((setupIO@mask))&0ffh,w	;volatile
  4102  000F5A  1293               	iorwf	((c:3987)),c	;volatile
  4103  000F5C  D085               	goto	l194
  4104                           opt subtitle "HI-TECH Software Omniscient Code Generator (Lite mode) build 49521"
  4105  000F5E                     l176:; BSR set to: 0
  4106                           opt subtitle "HI-TECH Software Omniscient Code Generator (Lite mode) build 49521"
  4107                           
  4108  000F5E                     l2238:; BSR set to: 0
  4109                           opt subtitle "HI-TECH Software Omniscient Code Generator (Lite mode) build 49521"
  4110  000F5E  0100               	movlb	0	; () banked
  4111  000F60  0100               	movlb	0	; () banked
  4112  000F62  519A               	movf	((setupIO@mask))&0ffh,w	;volatile
  4113  000F64  0AFF               	xorlw	0ffh
  4114  000F66  1693               	andwf	((c:3987)),c	;volatile
  4115  000F68  D07F               	goto	l194
  4116                           opt subtitle "HI-TECH Software Omniscient Code Generator (Lite mode) build 49521"
  4117  000F6A                     l177:; BSR set to: 0
  4118                           opt subtitle "HI-TECH Software Omniscient Code Generator (Lite mode) build 49521"
  4119                           
  4120                           opt pagewidth 120
  4121  000F6A  D07E               	goto	l194
  4122                           opt subtitle "HI-TECH Software Omniscient Code Generator (Lite mode) build 49521"
  4123                           
  4124                           opt pagewidth 120
  4125  000F6C                     l178:; BSR set to: 0
  4126                           opt subtitle "HI-TECH Software Omniscient Code Generator (Lite mode) build 49521"
  4127                           
  4128                           opt pagewidth 120
  4129  000F6C                     l2240:; BSR set to: 0
  4130                           opt subtitle "HI-TECH Software Omniscient Code Generator (Lite mode) build 49521"
  4131                           
  4132  000F6C  0422               	decf	((c:setupIO@direction)),c,w
  4133  000F6E  1023               	iorwf ((c:setupIO@direction+1)),c,w
  4134                           opt subtitle "HI-TECH Software Omniscient Code Generator (Lite mode) build 49521"
  4135  000F70  A4D8               	btfss	status,2
  4136  000F72  D001               	goto	u1821
  4137  000F74  D001               	goto	u1820
  4138  000F76                     u1821:
  4139  000F76  D005               	goto	l2244
  4140  000F78                     u1820:
  4141                           opt subtitle "HI-TECH Software Omniscient Code Generator (Lite mode) build 49521"
  4142  000F78                     l2242:; BSR set to: 0
  4143                           opt subtitle "HI-TECH Software Omniscient Code Generator (Lite mode) build 49521"
  4144  000F78  0100               	movlb	0	; () banked
  4145  000F7A  0100               	movlb	0	; () banked
  4146  000F7C  519A               	movf	((setupIO@mask))&0ffh,w	;volatile
  4147  000F7E  1294               	iorwf	((c:3988)),c	;volatile
  4148  000F80  D073               	goto	l194
  4149                           opt subtitle "HI-TECH Software Omniscient Code Generator (Lite mode) build 49521"
  4150  000F82                     l179:; BSR set to: 0
  4151                           opt subtitle "HI-TECH Software Omniscient Code Generator (Lite mode) build 49521"
  4152                           
  4153  000F82                     l2244:; BSR set to: 0
  4154                           opt subtitle "HI-TECH Software Omniscient Code Generator (Lite mode) build 49521"
  4155  000F82  0100               	movlb	0	; () banked
  4156  000F84  0100               	movlb	0	; () banked
  4157  000F86  519A               	movf	((setupIO@mask))&0ffh,w	;volatile
  4158  000F88  0AFF               	xorlw	0ffh
  4159  000F8A  1694               	andwf	((c:3988)),c	;volatile
  4160  000F8C  D06D               	goto	l194
  4161                           opt subtitle "HI-TECH Software Omniscient Code Generator (Lite mode) build 49521"
  4162  000F8E                     l180:; BSR set to: 0
  4163                           opt subtitle "HI-TECH Software Omniscient Code Generator (Lite mode) build 49521"
  4164                           
  4165                           opt pagewidth 120
  4166  000F8E  D06C               	goto	l194
  4167                           opt subtitle "HI-TECH Software Omniscient Code Generator (Lite mode) build 49521"
  4168                           
  4169                           opt pagewidth 120
  4170  000F90                     l181:; BSR set to: 0
  4171                           opt subtitle "HI-TECH Software Omniscient Code Generator (Lite mode) build 49521"
  4172                           
  4173                           opt pagewidth 120
  4174  000F90                     l2246:; BSR set to: 0
  4175                           opt subtitle "HI-TECH Software Omniscient Code Generator (Lite mode) build 49521"
  4176                           
  4177  000F90  0422               	decf	((c:setupIO@direction)),c,w
  4178  000F92  1023               	iorwf ((c:setupIO@direction+1)),c,w
  4179                           opt subtitle "HI-TECH Software Omniscient Code Generator (Lite mode) build 49521"
  4180  000F94  A4D8               	btfss	status,2
  4181  000F96  D001               	goto	u1831
  4182  000F98  D001               	goto	u1830
  4183  000F9A                     u1831:
  4184  000F9A  D005               	goto	l2250
  4185  000F9C                     u1830:
  4186                           opt subtitle "HI-TECH Software Omniscient Code Generator (Lite mode) build 49521"
  4187  000F9C                     l2248:; BSR set to: 0
  4188                           opt subtitle "HI-TECH Software Omniscient Code Generator (Lite mode) build 49521"
  4189  000F9C  0100               	movlb	0	; () banked
  4190  000F9E  0100               	movlb	0	; () banked
  4191  000FA0  519A               	movf	((setupIO@mask))&0ffh,w	;volatile
  4192  000FA2  1295               	iorwf	((c:3989)),c	;volatile
  4193  000FA4  D061               	goto	l194
  4194                           opt subtitle "HI-TECH Software Omniscient Code Generator (Lite mode) build 49521"
  4195  000FA6                     l182:; BSR set to: 0
  4196                           opt subtitle "HI-TECH Software Omniscient Code Generator (Lite mode) build 49521"
  4197                           
  4198  000FA6                     l2250:; BSR set to: 0
  4199                           opt subtitle "HI-TECH Software Omniscient Code Generator (Lite mode) build 49521"
  4200  000FA6  0100               	movlb	0	; () banked
  4201  000FA8  0100               	movlb	0	; () banked
  4202  000FAA  519A               	movf	((setupIO@mask))&0ffh,w	;volatile
  4203  000FAC  0AFF               	xorlw	0ffh
  4204  000FAE  1695               	andwf	((c:3989)),c	;volatile
  4205  000FB0  D05B               	goto	l194
  4206                           opt subtitle "HI-TECH Software Omniscient Code Generator (Lite mode) build 49521"
  4207  000FB2                     l183:; BSR set to: 0
  4208                           opt subtitle "HI-TECH Software Omniscient Code Generator (Lite mode) build 49521"
  4209                           
  4210                           opt pagewidth 120
  4211  000FB2  D05A               	goto	l194
  4212                           opt subtitle "HI-TECH Software Omniscient Code Generator (Lite mode) build 49521"
  4213                           
  4214                           opt pagewidth 120
  4215  000FB4                     l184:; BSR set to: 0
  4216                           opt subtitle "HI-TECH Software Omniscient Code Generator (Lite mode) build 49521"
  4217                           
  4218                           opt pagewidth 120
  4219  000FB4                     l2252:; BSR set to: 0
  4220                           opt subtitle "HI-TECH Software Omniscient Code Generator (Lite mode) build 49521"
  4221                           
  4222  000FB4  0422               	decf	((c:setupIO@direction)),c,w
  4223  000FB6  1023               	iorwf ((c:setupIO@direction+1)),c,w
  4224                           opt subtitle "HI-TECH Software Omniscient Code Generator (Lite mode) build 49521"
  4225  000FB8  A4D8               	btfss	status,2
  4226  000FBA  D001               	goto	u1841
  4227  000FBC  D001               	goto	u1840
  4228  000FBE                     u1841:
  4229  000FBE  D005               	goto	l2256
  4230  000FC0                     u1840:
  4231                           opt subtitle "HI-TECH Software Omniscient Code Generator (Lite mode) build 49521"
  4232  000FC0                     l2254:; BSR set to: 0
  4233                           opt subtitle "HI-TECH Software Omniscient Code Generator (Lite mode) build 49521"
  4234  000FC0  0100               	movlb	0	; () banked
  4235  000FC2  0100               	movlb	0	; () banked
  4236  000FC4  519A               	movf	((setupIO@mask))&0ffh,w	;volatile
  4237  000FC6  1296               	iorwf	((c:3990)),c	;volatile
  4238  000FC8  D04F               	goto	l194
  4239                           opt subtitle "HI-TECH Software Omniscient Code Generator (Lite mode) build 49521"
  4240  000FCA                     l185:; BSR set to: 0
  4241                           opt subtitle "HI-TECH Software Omniscient Code Generator (Lite mode) build 49521"
  4242                           
  4243  000FCA                     l2256:; BSR set to: 0
  4244                           opt subtitle "HI-TECH Software Omniscient Code Generator (Lite mode) build 49521"
  4245  000FCA  0100               	movlb	0	; () banked
  4246  000FCC  0100               	movlb	0	; () banked
  4247  000FCE  519A               	movf	((setupIO@mask))&0ffh,w	;volatile
  4248  000FD0  0AFF               	xorlw	0ffh
  4249  000FD2  1696               	andwf	((c:3990)),c	;volatile
  4250  000FD4  D049               	goto	l194
  4251                           opt subtitle "HI-TECH Software Omniscient Code Generator (Lite mode) build 49521"
  4252  000FD6                     l186:; BSR set to: 0
  4253                           opt subtitle "HI-TECH Software Omniscient Code Generator (Lite mode) build 49521"
  4254                           
  4255                           opt pagewidth 120
  4256  000FD6  D048               	goto	l194
  4257                           opt subtitle "HI-TECH Software Omniscient Code Generator (Lite mode) build 49521"
  4258                           
  4259                           opt pagewidth 120
  4260  000FD8                     l187:; BSR set to: 0
  4261                           opt subtitle "HI-TECH Software Omniscient Code Generator (Lite mode) build 49521"
  4262                           
  4263                           opt pagewidth 120
  4264  000FD8                     l2258:; BSR set to: 0
  4265                           opt subtitle "HI-TECH Software Omniscient Code Generator (Lite mode) build 49521"
  4266                           
  4267  000FD8  0422               	decf	((c:setupIO@direction)),c,w
  4268  000FDA  1023               	iorwf ((c:setupIO@direction+1)),c,w
  4269                           opt subtitle "HI-TECH Software Omniscient Code Generator (Lite mode) build 49521"
  4270  000FDC  A4D8               	btfss	status,2
  4271  000FDE  D001               	goto	u1851
  4272  000FE0  D001               	goto	u1850
  4273  000FE2                     u1851:
  4274  000FE2  D005               	goto	l2262
  4275  000FE4                     u1850:
  4276                           opt subtitle "HI-TECH Software Omniscient Code Generator (Lite mode) build 49521"
  4277  000FE4                     l2260:; BSR set to: 0
  4278                           opt subtitle "HI-TECH Software Omniscient Code Generator (Lite mode) build 49521"
  4279  000FE4  0100               	movlb	0	; () banked
  4280  000FE6  0100               	movlb	0	; () banked
  4281  000FE8  519A               	movf	((setupIO@mask))&0ffh,w	;volatile
  4282  000FEA  1297               	iorwf	((c:3991)),c	;volatile
  4283  000FEC  D03D               	goto	l194
  4284                           opt subtitle "HI-TECH Software Omniscient Code Generator (Lite mode) build 49521"
  4285  000FEE                     l188:; BSR set to: 0
  4286                           opt subtitle "HI-TECH Software Omniscient Code Generator (Lite mode) build 49521"
  4287                           
  4288  000FEE                     l2262:; BSR set to: 0
  4289                           opt subtitle "HI-TECH Software Omniscient Code Generator (Lite mode) build 49521"
  4290  000FEE  0100               	movlb	0	; () banked
  4291  000FF0  0100               	movlb	0	; () banked
  4292  000FF2  519A               	movf	((setupIO@mask))&0ffh,w	;volatile
  4293  000FF4  0AFF               	xorlw	0ffh
  4294  000FF6  1697               	andwf	((c:3991)),c	;volatile
  4295  000FF8  D037               	goto	l194
  4296                           opt subtitle "HI-TECH Software Omniscient Code Generator (Lite mode) build 49521"
  4297  000FFA                     l189:; BSR set to: 0
  4298                           opt subtitle "HI-TECH Software Omniscient Code Generator (Lite mode) build 49521"
  4299                           
  4300                           opt pagewidth 120
  4301  000FFA  D036               	goto	l194
  4302                           opt subtitle "HI-TECH Software Omniscient Code Generator (Lite mode) build 49521"
  4303                           
  4304                           opt pagewidth 120
  4305  000FFC                     l190:; BSR set to: 0
  4306                           opt subtitle "HI-TECH Software Omniscient Code Generator (Lite mode) build 49521"
  4307                           
  4308                           opt pagewidth 120
  4309  000FFC                     l2264:; BSR set to: 0
  4310                           opt subtitle "HI-TECH Software Omniscient Code Generator (Lite mode) build 49521"
  4311                           
  4312  000FFC  0422               	decf	((c:setupIO@direction)),c,w
  4313  000FFE  1023               	iorwf ((c:setupIO@direction+1)),c,w
  4314                           opt subtitle "HI-TECH Software Omniscient Code Generator (Lite mode) build 49521"
  4315  001000  A4D8               	btfss	status,2
  4316  001002  D001               	goto	u1861
  4317  001004  D001               	goto	u1860
  4318  001006                     u1861:
  4319  001006  D005               	goto	l2268
  4320  001008                     u1860:
  4321                           opt subtitle "HI-TECH Software Omniscient Code Generator (Lite mode) build 49521"
  4322  001008                     l2266:; BSR set to: 0
  4323                           opt subtitle "HI-TECH Software Omniscient Code Generator (Lite mode) build 49521"
  4324  001008  0100               	movlb	0	; () banked
  4325  00100A  0100               	movlb	0	; () banked
  4326  00100C  519A               	movf	((setupIO@mask))&0ffh,w	;volatile
  4327  00100E  1298               	iorwf	((c:3992)),c	;volatile
  4328  001010  D02B               	goto	l194
  4329                           opt subtitle "HI-TECH Software Omniscient Code Generator (Lite mode) build 49521"
  4330  001012                     l191:; BSR set to: 0
  4331                           opt subtitle "HI-TECH Software Omniscient Code Generator (Lite mode) build 49521"
  4332                           
  4333  001012                     l2268:; BSR set to: 0
  4334                           opt subtitle "HI-TECH Software Omniscient Code Generator (Lite mode) build 49521"
  4335  001012  0100               	movlb	0	; () banked
  4336  001014  0100               	movlb	0	; () banked
  4337  001016  519A               	movf	((setupIO@mask))&0ffh,w	;volatile
  4338  001018  0AFF               	xorlw	0ffh
  4339  00101A  1698               	andwf	((c:3992)),c	;volatile
  4340  00101C  D025               	goto	l194
  4341                           opt subtitle "HI-TECH Software Omniscient Code Generator (Lite mode) build 49521"
  4342  00101E                     l192:; BSR set to: 0
  4343                           opt subtitle "HI-TECH Software Omniscient Code Generator (Lite mode) build 49521"
  4344                           
  4345                           opt pagewidth 120
  4346  00101E  D024               	goto	l194
  4347                           opt subtitle "HI-TECH Software Omniscient Code Generator (Lite mode) build 49521"
  4348                           
  4349                           opt pagewidth 120
  4350  001020                     l193:; BSR set to: 0
  4351                           opt subtitle "HI-TECH Software Omniscient Code Generator (Lite mode) build 49521"
  4352                           
  4353                           opt pagewidth 120
  4354  001020  D023               	goto	l194
  4355                           opt subtitle "HI-TECH Software Omniscient Code Generator (Lite mode) build 49521"
  4356                           
  4357  001022                     l2270:; BSR set to: 0
  4358                           opt subtitle "HI-TECH Software Omniscient Code Generator (Lite mode) build 49521"
  4359                           
  4360  001022  D022               	goto	l194
  4361                           opt subtitle "HI-TECH Software Omniscient Code Generator (Lite mode) build 49521"
  4362                           
  4363  001024                     l170:; BSR set to: 0
  4364                           opt subtitle "HI-TECH Software Omniscient Code Generator (Lite mode) build 49521"
  4365                           
  4366  001024                     l2272:; BSR set to: 0
  4367                           opt subtitle "HI-TECH Software Omniscient Code Generator (Lite mode) build 49521"
  4368  001024  0100               	movlb	0	; () banked
  4369  001026  C098  F024         	movff	(setupIO@port),??_setupIO+0+0	;volatile
  4370  00102A  0100               	movlb	0	; () banked
  4371  00102C  C099  F025         	movff	(setupIO@port+1),??_setupIO+0+0+1	;volatile
  4372                           opt subtitle "HI-TECH Software Omniscient Code Generator (Lite mode) build 49521"
  4373                           
  4374                           opt pagewidth 120
  4375                           
  4376                           	opt lm
  4377                           
  4378                           	processor	18F65K22
  4379                           porta	equ	0F80h
  4380  001030  5025               	movf ??_setupIO+0+1,c,w
  4381  001032  0A00               	xorlw	0^0	; case 0
  4382  001034  B4D8               	skipnz
  4383  001036  D001               	goto	l2438
  4384  001038  D017               	goto	l194
  4385                           opt subtitle "HI-TECH Software Omniscient Code Generator (Lite mode) build 49521"
  4386  00103A                     l2438:; BSR set to: 0
  4387                           opt subtitle "HI-TECH Software Omniscient Code Generator (Lite mode) build 49521"
  4388                           
  4389                           opt pagewidth 120
  4390                           
  4391                           	opt lm
  4392                           
  4393                           	processor	18F65K22
  4394                           porta	equ	0F80h
  4395  00103A  5024               	movf ??_setupIO+0+0,c,w
  4396  00103C  0A00               	xorlw	0^0	; case 0
  4397  00103E  B4D8               	skipnz
  4398  001040  D771               	goto	l2228
  4399  001042  0A01               	xorlw	1^0	; case 1
  4400  001044  B4D8               	skipnz
  4401  001046  D780               	goto	l2234
  4402  001048  0A03               	xorlw	2^1	; case 2
  4403  00104A  B4D8               	skipnz
  4404  00104C  D78F               	goto	l2240
  4405  00104E  0A01               	xorlw	3^2	; case 3
  4406  001050  B4D8               	skipnz
  4407  001052  D79E               	goto	l2246
  4408  001054  0A07               	xorlw	4^3	; case 4
  4409  001056  B4D8               	skipnz
  4410  001058  D7AD               	goto	l2252
  4411  00105A  0A01               	xorlw	5^4	; case 5
  4412  00105C  B4D8               	skipnz
  4413  00105E  D7BC               	goto	l2258
  4414  001060  0A03               	xorlw	6^5	; case 6
  4415  001062  B4D8               	skipnz
  4416  001064  D7CB               	goto	l2264
  4417  001066  D000               	goto	l194
  4418                           opt subtitle "HI-TECH Software Omniscient Code Generator (Lite mode) build 49521"
  4419                           
  4420                           opt pagewidth 120
  4421  001068                     l174:; BSR set to: 0
  4422                           opt subtitle "HI-TECH Software Omniscient Code Generator (Lite mode) build 49521"
  4423                           
  4424                           opt pagewidth 120
  4425  001068                     l194:; BSR set to: 0
  4426                           opt subtitle "HI-TECH Software Omniscient Code Generator (Lite mode) build 49521"
  4427  001068  0012               	return
  4428                           opt subtitle "HI-TECH Software Omniscient Code Generator (Lite mode) build 49521"
  4429                           
  4430  00106A                     	__end_of_setupIO:
  4431                           opt subtitle "HI-TECH Software Omniscient Code Generator (Lite mode) build 49521"
  4432                           
  4433                           opt pagewidth 120
  4434                           
  4435                           	opt lm
  4436                           
  4437                           	processor	18F65K22
  4438                           porta	equ	0F80h
  4439                           portb	equ	0F81h
  4440                           portc	equ	0F82h
  4441                           portd	equ	0F83h
  4442                           porte	equ	0F84h
  4443                           lata	equ	0F89h
  4444                           latb	equ	0F8Ah
  4445                           latc	equ	0F8Bh
  4446                           latd	equ	0F8Ch
  4447                           late	equ	0F8Dh
  4448                           trisa	equ	0F92h
  4449                           trisb	equ	0F93h
  4450                           trisc	equ	0F94h
  4451                           trisd	equ	0F95h
  4452                           trise	equ	0F96h
  4453                           pie1	equ	0F9Dh
  4454                           pir1	equ	0F9Eh
  4455                           ipr1	equ	0F9Fh
  4456                           pie2	equ	0FA0h
  4457                           pir2	equ	0FA1h
  4458                           ipr2	equ	0FA2h
  4459                           t3con	equ	0FB1h
  4460                           tmr3l	equ	0FB2h
  4461                           tmr3h	equ	0FB3h
  4462                           ccp1con	equ	0FBDh
  4463                           ccpr1l	equ	0FBEh
  4464                           ccpr1h	equ	0FBFh
  4465  00155C                     __ptext5:
  4466                           opt subtitle "HI-TECH Software Omniscient Code Generator (Lite mode) build 49521"
  4467                           
  4468                           opt pagewidth 120
  4469                           
  4470  0000                     	__size_of_Read_b_eep	equ	__end_of_Read_b_eep-_Read_b_eep
  4471                           opt subtitle "HI-TECH Software Omniscient Code Generator (Lite mode) build 49521"
  4472  00155C                     _Read_b_eep:; BSR set to: 0
  4473                           opt subtitle "HI-TECH Software Omniscient Code Generator (Lite mode) build 49521"
  4474                           
  4475                           opt pagewidth 120
  4476                           
  4477  00155C                     l2280:
  4478  00155C  5021               	movf	((c:Read_b_eep@badd+1)),c,w
  4479  00155E  0B03               	andlw	low(03h)
  4480  001560  6E63               	movwf	((c:3939)),c	;volatile
  4481                           opt subtitle "HI-TECH Software Omniscient Code Generator (Lite mode) build 49521"
  4482                           
  4483  001562                     l2282:
  4484  001562  C020  FF62         	movff	(c:Read_b_eep@badd),(c:3938)	;volatile
  4485                           opt subtitle "HI-TECH Software Omniscient Code Generator (Lite mode) build 49521"
  4486                           
  4487  001566                     l2284:
  4488  001566  9C7F               	bcf	((c:3967)),c,6	;volatile
  4489                           opt subtitle "HI-TECH Software Omniscient Code Generator (Lite mode) build 49521"
  4490                           
  4491  001568                     l2286:
  4492  001568  9E7F               	bcf	((c:3967)),c,7	;volatile
  4493                           opt subtitle "HI-TECH Software Omniscient Code Generator (Lite mode) build 49521"
  4494                           
  4495  00156A                     l2288:
  4496  00156A  807F               	bsf	((c:3967)),c,0	;volatile
  4497                           opt subtitle "HI-TECH Software Omniscient Code Generator (Lite mode) build 49521"
  4498                           
  4499  00156C  F000               nop ;# 
  4500                           opt subtitle "HI-TECH Software Omniscient Code Generator (Lite mode) build 49521"
  4501                           
  4502  00156E  F000               nop ;# 
  4503                           opt subtitle "HI-TECH Software Omniscient Code Generator (Lite mode) build 49521"
  4504                           
  4505                           opt pagewidth 120
  4506  001570                     l2290:
  4507  001570  5061               	movf	((c:3937)),c,w	;volatile
  4508  001572  D000               	goto	l273
  4509                           opt subtitle "HI-TECH Software Omniscient Code Generator (Lite mode) build 49521"
  4510  001574                     l2292:
  4511                           opt subtitle "HI-TECH Software Omniscient Code Generator (Lite mode) build 49521"
  4512                           
  4513  001574                     l273:
  4514  001574  0012               	return
  4515                           opt subtitle "HI-TECH Software Omniscient Code Generator (Lite mode) build 49521"
  4516                           
  4517  001576                     	__end_of_Read_b_eep:
  4518                           opt subtitle "HI-TECH Software Omniscient Code Generator (Lite mode) build 49521"
  4519                           
  4520                           opt pagewidth 120
  4521                           
  4522                           	opt lm
  4523                           
  4524                           	processor	18F65K22
  4525                           porta	equ	0F80h
  4526                           portb	equ	0F81h
  4527                           portc	equ	0F82h
  4528                           portd	equ	0F83h
  4529                           porte	equ	0F84h
  4530                           lata	equ	0F89h
  4531                           latb	equ	0F8Ah
  4532                           latc	equ	0F8Bh
  4533                           latd	equ	0F8Ch
  4534                           late	equ	0F8Dh
  4535                           trisa	equ	0F92h
  4536                           trisb	equ	0F93h
  4537                           trisc	equ	0F94h
  4538                           trisd	equ	0F95h
  4539                           trise	equ	0F96h
  4540                           pie1	equ	0F9Dh
  4541                           pir1	equ	0F9Eh
  4542                           ipr1	equ	0F9Fh
  4543                           pie2	equ	0FA0h
  4544                           pir2	equ	0FA1h
  4545                           ipr2	equ	0FA2h
  4546                           t3con	equ	0FB1h
  4547                           tmr3l	equ	0FB2h
  4548                           tmr3h	equ	0FB3h
  4549                           ccp1con	equ	0FBDh
  4550                           ccpr1l	equ	0FBEh
  4551                           ccpr1h	equ	0FBFh
  4552                           adcon1	equ	0FC1h
  4553  0013F8                     __ptext6:
  4554                           opt subtitle "HI-TECH Software Omniscient Code Generator (Lite mode) build 49521"
  4555                           
  4556                           opt pagewidth 120
  4557                           
  4558  0000                     	__size_of__delay_ms	equ	__end_of__delay_ms-__delay_ms
  4559                           opt subtitle "HI-TECH Software Omniscient Code Generator (Lite mode) build 49521"
  4560  0013F8                     __delay_ms:
  4561                           opt subtitle "HI-TECH Software Omniscient Code Generator (Lite mode) build 49521"
  4562                           
  4563                           opt pagewidth 120
  4564  0013F8                     l2294:
  4565                           opt subtitle "HI-TECH Software Omniscient Code Generator (Lite mode) build 49521"
  4566  0013F8  0E00               	movlw	high(0)
  4567  0013FA  6E23               	movwf	((c:__delay_ms@i+1)),c
  4568  0013FC  0E00               	movlw	low(0)
  4569  0013FE  6E22               	movwf	((c:__delay_ms@i)),c
  4570  001400  D020               	goto	l2308
  4571                           opt subtitle "HI-TECH Software Omniscient Code Generator (Lite mode) build 49521"
  4572                           
  4573  001402                     l163:
  4574                           opt subtitle "HI-TECH Software Omniscient Code Generator (Lite mode) build 49521"
  4575                           
  4576  001402                     l2296:
  4577                           opt subtitle "HI-TECH Software Omniscient Code Generator (Lite mode) build 49521"
  4578                           
  4579  001402  0E00               	movlw	high(0)
  4580  001404  6E25               	movwf	((c:__delay_ms@j+1)),c
  4581  001406  0E00               	movlw	low(0)
  4582  001408  6E24               	movwf	((c:__delay_ms@j)),c
  4583                           opt subtitle "HI-TECH Software Omniscient Code Generator (Lite mode) build 49521"
  4584  00140A                     l2298:
  4585  00140A  5025               	movf	((c:__delay_ms@j+1)),c,w
  4586  00140C  0A80               	xorlw	80h
  4587  00140E  0F80               	addlw	-((0)^80h)
  4588  001410  0E91               	movlw	091h
  4589  001412  B4D8               	btfsc	status,2
  4590  001414  5C24               	subwf	((c:__delay_ms@j)),c,w
  4591  001416  A0D8               	btfss	status,0
  4592  001418  D001               	goto	u1871
  4593  00141A  D001               	goto	u1870
  4594  00141C                     u1871:
  4595  00141C  D002               	goto	l2302
  4596  00141E                     u1870:
  4597  00141E  D00E               	goto	l2306
  4598                           opt subtitle "HI-TECH Software Omniscient Code Generator (Lite mode) build 49521"
  4599  001420                     l2300:
  4600  001420  D00D               	goto	l2306
  4601                           opt subtitle "HI-TECH Software Omniscient Code Generator (Lite mode) build 49521"
  4602  001422                     l164:
  4603                           opt subtitle "HI-TECH Software Omniscient Code Generator (Lite mode) build 49521"
  4604  001422                     l2302:
  4605  001422  4A24               	infsnz	((c:__delay_ms@j)),c
  4606  001424  2A25               	incf	((c:__delay_ms@j+1)),c
  4607                           opt subtitle "HI-TECH Software Omniscient Code Generator (Lite mode) build 49521"
  4608  001426                     l2304:
  4609  001426  5025               	movf	((c:__delay_ms@j+1)),c,w
  4610  001428  0A80               	xorlw	80h
  4611  00142A  0F80               	addlw	-((0)^80h)
  4612  00142C  0E91               	movlw	091h
  4613  00142E  B4D8               	btfsc	status,2
  4614  001430  5C24               	subwf	((c:__delay_ms@j)),c,w
  4615  001432  A0D8               	btfss	status,0
  4616  001434  D001               	goto	u1881
  4617  001436  D001               	goto	u1880
  4618  001438                     u1881:
  4619  001438  D7F4               	goto	l2302
  4620  00143A                     u1880:
  4621  00143A  D000               	goto	l2306
  4622                           opt subtitle "HI-TECH Software Omniscient Code Generator (Lite mode) build 49521"
  4623  00143C                     l165:
  4624                           opt subtitle "HI-TECH Software Omniscient Code Generator (Lite mode) build 49521"
  4625                           
  4626  00143C                     l2306:
  4627  00143C  4A22               	infsnz	((c:__delay_ms@i)),c
  4628  00143E  2A23               	incf	((c:__delay_ms@i+1)),c
  4629  001440  D000               	goto	l2308
  4630                           opt subtitle "HI-TECH Software Omniscient Code Generator (Lite mode) build 49521"
  4631  001442                     l162:
  4632                           opt subtitle "HI-TECH Software Omniscient Code Generator (Lite mode) build 49521"
  4633  001442                     l2308:
  4634  001442  5020               	movf	((c:__delay_ms@ms)),c,w
  4635  001444  5C22               	subwf	((c:__delay_ms@i)),c,w
  4636  001446  5021               	movf	((c:__delay_ms@ms+1)),c,w
  4637  001448  5823               	subwfb	((c:__delay_ms@i+1)),c,w
  4638  00144A  A0D8               	btfss	status,0
  4639  00144C  D001               	goto	u1891
  4640  00144E  D001               	goto	u1890
  4641  001450                     u1891:
  4642  001450  D7D8               	goto	l2296
  4643  001452                     u1890:
  4644  001452  D000               	goto	l167
  4645                           opt subtitle "HI-TECH Software Omniscient Code Generator (Lite mode) build 49521"
  4646  001454                     l166:
  4647                           opt subtitle "HI-TECH Software Omniscient Code Generator (Lite mode) build 49521"
  4648                           
  4649  001454                     l167:
  4650  001454  0012               	return
  4651                           opt subtitle "HI-TECH Software Omniscient Code Generator (Lite mode) build 49521"
  4652                           
  4653  001456                     	__end_of__delay_ms:
  4654                           opt subtitle "HI-TECH Software Omniscient Code Generator (Lite mode) build 49521"
  4655                           
  4656                           opt pagewidth 120
  4657                           
  4658                           	opt lm
  4659                           
  4660                           	processor	18F65K22
  4661                           porta	equ	0F80h
  4662                           portb	equ	0F81h
  4663                           portc	equ	0F82h
  4664                           portd	equ	0F83h
  4665                           porte	equ	0F84h
  4666                           lata	equ	0F89h
  4667                           latb	equ	0F8Ah
  4668                           latc	equ	0F8Bh
  4669                           latd	equ	0F8Ch
  4670                           late	equ	0F8Dh
  4671                           trisa	equ	0F92h
  4672                           trisb	equ	0F93h
  4673                           trisc	equ	0F94h
  4674                           trisd	equ	0F95h
  4675                           trise	equ	0F96h
  4676                           pie1	equ	0F9Dh
  4677                           pir1	equ	0F9Eh
  4678                           ipr1	equ	0F9Fh
  4679                           pie2	equ	0FA0h
  4680                           pir2	equ	0FA1h
  4681                           ipr2	equ	0FA2h
  4682                           t3con	equ	0FB1h
  4683                           tmr3l	equ	0FB2h
  4684                           tmr3h	equ	0FB3h
  4685                           ccp1con	equ	0FBDh
  4686                           ccpr1l	equ	0FBEh
  4687                           ccpr1h	equ	0FBFh
  4688  0015C8                     __ptext7:
  4689                           opt subtitle "HI-TECH Software Omniscient Code Generator (Lite mode) build 49521"
  4690                           
  4691                           opt pagewidth 120
  4692                           
  4693  0000                     	__size_of_BusyADC	equ	__end_of_BusyADC-_BusyADC
  4694                           opt subtitle "HI-TECH Software Omniscient Code Generator (Lite mode) build 49521"
  4695  0015C8                     _BusyADC:
  4696                           opt subtitle "HI-TECH Software Omniscient Code Generator (Lite mode) build 49521"
  4697                           
  4698                           opt pagewidth 120
  4699  0015C8                     l2310:
  4700  0015C8  30C2               	rrcf	((c:4034)),c,w	;volatile
  4701  0015CA  0B01               	andlw	(1<<1)-1
  4702  0015CC  D000               	goto	l242
  4703                           opt subtitle "HI-TECH Software Omniscient Code Generator (Lite mode) build 49521"
  4704  0015CE                     l2312:
  4705                           opt subtitle "HI-TECH Software Omniscient Code Generator (Lite mode) build 49521"
  4706                           
  4707  0015CE                     l242:
  4708  0015CE  0012               	return
  4709                           opt subtitle "HI-TECH Software Omniscient Code Generator (Lite mode) build 49521"
  4710                           
  4711  0015D0                     	__end_of_BusyADC:
  4712                           opt subtitle "HI-TECH Software Omniscient Code Generator (Lite mode) build 49521"
  4713                           
  4714                           opt pagewidth 120
  4715                           
  4716                           	opt lm
  4717                           
  4718                           	processor	18F65K22
  4719                           porta	equ	0F80h
  4720                           portb	equ	0F81h
  4721                           portc	equ	0F82h
  4722                           portd	equ	0F83h
  4723                           porte	equ	0F84h
  4724                           lata	equ	0F89h
  4725                           latb	equ	0F8Ah
  4726                           latc	equ	0F8Bh
  4727                           latd	equ	0F8Ch
  4728                           late	equ	0F8Dh
  4729                           trisa	equ	0F92h
  4730                           trisb	equ	0F93h
  4731                           trisc	equ	0F94h
  4732                           trisd	equ	0F95h
  4733                           trise	equ	0F96h
  4734                           pie1	equ	0F9Dh
  4735                           pir1	equ	0F9Eh
  4736                           ipr1	equ	0F9Fh
  4737                           pie2	equ	0FA0h
  4738                           pir2	equ	0FA1h
  4739                           ipr2	equ	0FA2h
  4740                           t3con	equ	0FB1h
  4741                           tmr3l	equ	0FB2h
  4742                           tmr3h	equ	0FB3h
  4743                           ccp1con	equ	0FBDh
  4744                           ccpr1l	equ	0FBEh
  4745                           ccpr1h	equ	0FBFh
  4746  0015BC                     __ptext8:
  4747                           opt subtitle "HI-TECH Software Omniscient Code Generator (Lite mode) build 49521"
  4748                           
  4749                           opt pagewidth 120
  4750                           
  4751  0000                     	__size_of_ReadADC	equ	__end_of_ReadADC-_ReadADC
  4752                           opt subtitle "HI-TECH Software Omniscient Code Generator (Lite mode) build 49521"
  4753  0015BC                     _ReadADC:
  4754                           opt subtitle "HI-TECH Software Omniscient Code Generator (Lite mode) build 49521"
  4755                           
  4756                           opt pagewidth 120
  4757  0015BC                     l2314:
  4758  0015BC  50C4               	movf	((c:4036)),c,w	;volatile
  4759  0015BE  6E21               	movwf	((c:?_ReadADC+1)),c
  4760  0015C0  50C3               	movf	((c:4035)),c,w	;volatile
  4761  0015C2  6E20               	movwf	((c:?_ReadADC)),c
  4762  0015C4  D000               	goto	l254
  4763                           opt subtitle "HI-TECH Software Omniscient Code Generator (Lite mode) build 49521"
  4764  0015C6                     l2316:
  4765                           opt subtitle "HI-TECH Software Omniscient Code Generator (Lite mode) build 49521"
  4766                           
  4767  0015C6                     l254:
  4768  0015C6  0012               	return
  4769                           opt subtitle "HI-TECH Software Omniscient Code Generator (Lite mode) build 49521"
  4770                           
  4771  0015C8                     	__end_of_ReadADC:
  4772                           opt subtitle "HI-TECH Software Omniscient Code Generator (Lite mode) build 49521"
  4773                           
  4774                           opt pagewidth 120
  4775                           
  4776                           	opt lm
  4777                           
  4778                           	processor	18F65K22
  4779                           porta	equ	0F80h
  4780                           portb	equ	0F81h
  4781                           portc	equ	0F82h
  4782                           portd	equ	0F83h
  4783                           porte	equ	0F84h
  4784                           lata	equ	0F89h
  4785                           latb	equ	0F8Ah
  4786                           latc	equ	0F8Bh
  4787                           latd	equ	0F8Ch
  4788                           late	equ	0F8Dh
  4789                           trisa	equ	0F92h
  4790                           trisb	equ	0F93h
  4791                           trisc	equ	0F94h
  4792                           trisd	equ	0F95h
  4793                           trise	equ	0F96h
  4794                           pie1	equ	0F9Dh
  4795                           pir1	equ	0F9Eh
  4796                           ipr1	equ	0F9Fh
  4797                           pie2	equ	0FA0h
  4798                           pir2	equ	0FA1h
  4799                           ipr2	equ	0FA2h
  4800                           t3con	equ	0FB1h
  4801                           tmr3l	equ	0FB2h
  4802                           tmr3h	equ	0FB3h
  4803                           ccp1con	equ	0FBDh
  4804                           ccpr1l	equ	0FBEh
  4805                           ccpr1h	equ	0FBFh
  4806                           adcon1	equ	0FC1h
  4807                           adcon0	equ	0FC2h
  4808  001296                     __ptext9:
  4809                           opt subtitle "HI-TECH Software Omniscient Code Generator (Lite mode) build 49521"
  4810                           
  4811                           opt pagewidth 120
  4812                           
  4813  0000                     	__size_of_checkButton	equ	__end_of_checkButton-_checkButton
  4814                           opt subtitle "HI-TECH Software Omniscient Code Generator (Lite mode) build 49521"
  4815  001296                     _checkButton:
  4816                           opt subtitle "HI-TECH Software Omniscient Code Generator (Lite mode) build 49521"
  4817                           
  4818                           opt pagewidth 120
  4819  001296                     l2318:
  4820                           opt subtitle "HI-TECH Software Omniscient Code Generator (Lite mode) build 49521"
  4821                           
  4822                           opt pagewidth 120
  4823  001296  0E00               	movlw	high(0)
  4824  001298  6E27               	movwf	((c:checkButton@state+1)),c	;volatile
  4825  00129A  0E00               	movlw	low(0)
  4826  00129C  6E26               	movwf	((c:checkButton@state)),c	;volatile
  4827                           opt subtitle "HI-TECH Software Omniscient Code Generator (Lite mode) build 49521"
  4828                           
  4829  00129E  5021               	movf	((c:checkButton@row+1)),c,w
  4830  0012A0  6E24               	movwf	((c:checkButton@port)),c	;volatile
  4831  0012A2  6A25               	clrf	((c:checkButton@port+1)),c	;volatile
  4832                           opt subtitle "HI-TECH Software Omniscient Code Generator (Lite mode) build 49521"
  4833                           
  4834  0012A4                     l2320:
  4835                           opt subtitle "HI-TECH Software Omniscient Code Generator (Lite mode) build 49521"
  4836  0012A4  C020  F028         	movff	(c:checkButton@row),(c:checkButton@mask)	;volatile
  4837                           opt subtitle "HI-TECH Software Omniscient Code Generator (Lite mode) build 49521"
  4838                           
  4839  0012A8  D041               	goto	l2338
  4840                           opt subtitle "HI-TECH Software Omniscient Code Generator (Lite mode) build 49521"
  4841                           
  4842                           opt pagewidth 120
  4843                           
  4844  0012AA                     l198:
  4845                           opt subtitle "HI-TECH Software Omniscient Code Generator (Lite mode) build 49521"
  4846                           
  4847  0012AA                     l2322:
  4848                           opt subtitle "HI-TECH Software Omniscient Code Generator (Lite mode) build 49521"
  4849  0012AA  5080               	movf	((c:3968)),c,w	;volatile
  4850  0012AC  1428               	andwf	((c:checkButton@mask)),c,w	;volatile
  4851  0012AE  0900               	iorlw	0
  4852  0012B0  0E00               	movlw	0
  4853  0012B2  B4D8               	btfsc	status,2
  4854  0012B4  0E01               	movlw	1
  4855  0012B6  6E26               	movwf	((c:checkButton@state)),c	;volatile
  4856  0012B8  6A27               	clrf	((c:checkButton@state+1)),c	;volatile
  4857                           opt subtitle "HI-TECH Software Omniscient Code Generator (Lite mode) build 49521"
  4858                           
  4859  0012BA  D058               	goto	l2340
  4860                           opt subtitle "HI-TECH Software Omniscient Code Generator (Lite mode) build 49521"
  4861                           
  4862                           opt pagewidth 120
  4863  0012BC                     l200:
  4864                           opt subtitle "HI-TECH Software Omniscient Code Generator (Lite mode) build 49521"
  4865                           
  4866  0012BC                     l2324:
  4867                           opt subtitle "HI-TECH Software Omniscient Code Generator (Lite mode) build 49521"
  4868  0012BC  5081               	movf	((c:3969)),c,w	;volatile
  4869  0012BE  1428               	andwf	((c:checkButton@mask)),c,w	;volatile
  4870  0012C0  0900               	iorlw	0
  4871  0012C2  0E00               	movlw	0
  4872  0012C4  B4D8               	btfsc	status,2
  4873  0012C6  0E01               	movlw	1
  4874  0012C8  6E26               	movwf	((c:checkButton@state)),c	;volatile
  4875  0012CA  6A27               	clrf	((c:checkButton@state+1)),c	;volatile
  4876                           opt subtitle "HI-TECH Software Omniscient Code Generator (Lite mode) build 49521"
  4877                           
  4878  0012CC  D04F               	goto	l2340
  4879                           opt subtitle "HI-TECH Software Omniscient Code Generator (Lite mode) build 49521"
  4880                           
  4881                           opt pagewidth 120
  4882  0012CE                     l201:
  4883                           opt subtitle "HI-TECH Software Omniscient Code Generator (Lite mode) build 49521"
  4884                           
  4885  0012CE                     l2326:
  4886                           opt subtitle "HI-TECH Software Omniscient Code Generator (Lite mode) build 49521"
  4887  0012CE  5082               	movf	((c:3970)),c,w	;volatile
  4888  0012D0  1428               	andwf	((c:checkButton@mask)),c,w	;volatile
  4889  0012D2  0900               	iorlw	0
  4890  0012D4  0E00               	movlw	0
  4891  0012D6  B4D8               	btfsc	status,2
  4892  0012D8  0E01               	movlw	1
  4893  0012DA  6E26               	movwf	((c:checkButton@state)),c	;volatile
  4894  0012DC  6A27               	clrf	((c:checkButton@state+1)),c	;volatile
  4895                           opt subtitle "HI-TECH Software Omniscient Code Generator (Lite mode) build 49521"
  4896                           
  4897  0012DE  D046               	goto	l2340
  4898                           opt subtitle "HI-TECH Software Omniscient Code Generator (Lite mode) build 49521"
  4899                           
  4900                           opt pagewidth 120
  4901  0012E0                     l202:
  4902                           opt subtitle "HI-TECH Software Omniscient Code Generator (Lite mode) build 49521"
  4903                           
  4904  0012E0                     l2328:
  4905                           opt subtitle "HI-TECH Software Omniscient Code Generator (Lite mode) build 49521"
  4906  0012E0  5083               	movf	((c:3971)),c,w	;volatile
  4907  0012E2  1428               	andwf	((c:checkButton@mask)),c,w	;volatile
  4908  0012E4  0900               	iorlw	0
  4909  0012E6  0E00               	movlw	0
  4910  0012E8  B4D8               	btfsc	status,2
  4911  0012EA  0E01               	movlw	1
  4912  0012EC  6E26               	movwf	((c:checkButton@state)),c	;volatile
  4913  0012EE  6A27               	clrf	((c:checkButton@state+1)),c	;volatile
  4914                           opt subtitle "HI-TECH Software Omniscient Code Generator (Lite mode) build 49521"
  4915                           
  4916  0012F0  D03D               	goto	l2340
  4917                           opt subtitle "HI-TECH Software Omniscient Code Generator (Lite mode) build 49521"
  4918                           
  4919                           opt pagewidth 120
  4920  0012F2                     l203:
  4921                           opt subtitle "HI-TECH Software Omniscient Code Generator (Lite mode) build 49521"
  4922                           
  4923  0012F2                     l2330:
  4924                           opt subtitle "HI-TECH Software Omniscient Code Generator (Lite mode) build 49521"
  4925  0012F2  5084               	movf	((c:3972)),c,w	;volatile
  4926  0012F4  1428               	andwf	((c:checkButton@mask)),c,w	;volatile
  4927  0012F6  0900               	iorlw	0
  4928  0012F8  0E00               	movlw	0
  4929  0012FA  B4D8               	btfsc	status,2
  4930  0012FC  0E01               	movlw	1
  4931  0012FE  6E26               	movwf	((c:checkButton@state)),c	;volatile
  4932  001300  6A27               	clrf	((c:checkButton@state+1)),c	;volatile
  4933                           opt subtitle "HI-TECH Software Omniscient Code Generator (Lite mode) build 49521"
  4934                           
  4935  001302  D034               	goto	l2340
  4936                           opt subtitle "HI-TECH Software Omniscient Code Generator (Lite mode) build 49521"
  4937                           
  4938                           opt pagewidth 120
  4939  001304                     l204:
  4940                           opt subtitle "HI-TECH Software Omniscient Code Generator (Lite mode) build 49521"
  4941                           
  4942  001304                     l2332:
  4943                           opt subtitle "HI-TECH Software Omniscient Code Generator (Lite mode) build 49521"
  4944  001304  5085               	movf	((c:3973)),c,w	;volatile
  4945  001306  1428               	andwf	((c:checkButton@mask)),c,w	;volatile
  4946  001308  0900               	iorlw	0
  4947  00130A  0E00               	movlw	0
  4948  00130C  B4D8               	btfsc	status,2
  4949  00130E  0E01               	movlw	1
  4950  001310  6E26               	movwf	((c:checkButton@state)),c	;volatile
  4951  001312  6A27               	clrf	((c:checkButton@state+1)),c	;volatile
  4952                           opt subtitle "HI-TECH Software Omniscient Code Generator (Lite mode) build 49521"
  4953                           
  4954  001314  D02B               	goto	l2340
  4955                           opt subtitle "HI-TECH Software Omniscient Code Generator (Lite mode) build 49521"
  4956                           
  4957                           opt pagewidth 120
  4958  001316                     l205:
  4959                           opt subtitle "HI-TECH Software Omniscient Code Generator (Lite mode) build 49521"
  4960                           
  4961  001316                     l2334:
  4962                           opt subtitle "HI-TECH Software Omniscient Code Generator (Lite mode) build 49521"
  4963  001316  5086               	movf	((c:3974)),c,w	;volatile
  4964  001318  1428               	andwf	((c:checkButton@mask)),c,w	;volatile
  4965  00131A  0900               	iorlw	0
  4966  00131C  0E00               	movlw	0
  4967  00131E  B4D8               	btfsc	status,2
  4968  001320  0E01               	movlw	1
  4969  001322  6E26               	movwf	((c:checkButton@state)),c	;volatile
  4970  001324  6A27               	clrf	((c:checkButton@state+1)),c	;volatile
  4971                           opt subtitle "HI-TECH Software Omniscient Code Generator (Lite mode) build 49521"
  4972                           
  4973  001326  D022               	goto	l2340
  4974                           opt subtitle "HI-TECH Software Omniscient Code Generator (Lite mode) build 49521"
  4975                           
  4976                           opt pagewidth 120
  4977  001328                     l206:
  4978                           opt subtitle "HI-TECH Software Omniscient Code Generator (Lite mode) build 49521"
  4979                           
  4980  001328  D021               	goto	l2340
  4981                           opt subtitle "HI-TECH Software Omniscient Code Generator (Lite mode) build 49521"
  4982                           
  4983  00132A                     l2336:
  4984                           opt subtitle "HI-TECH Software Omniscient Code Generator (Lite mode) build 49521"
  4985  00132A  D020               	goto	l2340
  4986                           opt subtitle "HI-TECH Software Omniscient Code Generator (Lite mode) build 49521"
  4987                           
  4988  00132C                     l197:
  4989                           opt subtitle "HI-TECH Software Omniscient Code Generator (Lite mode) build 49521"
  4990  00132C                     l2338:
  4991  00132C  C024  F022         	movff	(c:checkButton@port),??_checkButton+0+0	;volatile
  4992  001330  C025  F023         	movff	(c:checkButton@port+1),??_checkButton+0+0+1	;volatile
  4993                           opt subtitle "HI-TECH Software Omniscient Code Generator (Lite mode) build 49521"
  4994                           
  4995                           opt pagewidth 120
  4996                           
  4997                           	opt lm
  4998                           
  4999                           	processor	18F65K22
  5000                           porta	equ	0F80h
  5001  001334  5023               	movf ??_checkButton+0+1,c,w
  5002  001336  0A00               	xorlw	0^0	; case 0
  5003  001338  B4D8               	skipnz
  5004  00133A  D001               	goto	l2440
  5005  00133C  D017               	goto	l2340
  5006                           opt subtitle "HI-TECH Software Omniscient Code Generator (Lite mode) build 49521"
  5007  00133E                     l2440:
  5008                           opt subtitle "HI-TECH Software Omniscient Code Generator (Lite mode) build 49521"
  5009                           
  5010                           opt pagewidth 120
  5011                           
  5012                           	opt lm
  5013                           
  5014                           	processor	18F65K22
  5015  00133E  5022               	movf ??_checkButton+0+0,c,w
  5016  001340  0A00               	xorlw	0^0	; case 0
  5017  001342  B4D8               	skipnz
  5018  001344  D7B2               	goto	l2322
  5019  001346  0A01               	xorlw	1^0	; case 1
  5020  001348  B4D8               	skipnz
  5021  00134A  D7B8               	goto	l2324
  5022  00134C  0A03               	xorlw	2^1	; case 2
  5023  00134E  B4D8               	skipnz
  5024  001350  D7BE               	goto	l2326
  5025  001352  0A01               	xorlw	3^2	; case 3
  5026  001354  B4D8               	skipnz
  5027  001356  D7C4               	goto	l2328
  5028  001358  0A07               	xorlw	4^3	; case 4
  5029  00135A  B4D8               	skipnz
  5030  00135C  D7CA               	goto	l2330
  5031  00135E  0A01               	xorlw	5^4	; case 5
  5032  001360  B4D8               	skipnz
  5033  001362  D7D0               	goto	l2332
  5034  001364  0A03               	xorlw	6^5	; case 6
  5035  001366  B4D8               	skipnz
  5036  001368  D7D6               	goto	l2334
  5037  00136A  D000               	goto	l2340
  5038                           opt subtitle "HI-TECH Software Omniscient Code Generator (Lite mode) build 49521"
  5039                           
  5040                           opt pagewidth 120
  5041  00136C                     l199:
  5042                           opt subtitle "HI-TECH Software Omniscient Code Generator (Lite mode) build 49521"
  5043                           
  5044  00136C                     l2340:
  5045                           opt subtitle "HI-TECH Software Omniscient Code Generator (Lite mode) build 49521"
  5046  00136C  5026               	movf	((c:checkButton@state)),c,w	;volatile
  5047  00136E  D000               	goto	l207
  5048                           opt subtitle "HI-TECH Software Omniscient Code Generator (Lite mode) build 49521"
  5049  001370                     l2342:
  5050                           opt subtitle "HI-TECH Software Omniscient Code Generator (Lite mode) build 49521"
  5051                           
  5052  001370                     l207:
  5053  001370  0012               	return
  5054                           opt subtitle "HI-TECH Software Omniscient Code Generator (Lite mode) build 49521"
  5055                           
  5056  001372                     	__end_of_checkButton:
  5057                           opt subtitle "HI-TECH Software Omniscient Code Generator (Lite mode) build 49521"
  5058                           
  5059                           opt pagewidth 120
  5060                           
  5061                           	opt lm
  5062                           
  5063                           	processor	18F65K22
  5064                           porta	equ	0F80h
  5065                           portb	equ	0F81h
  5066                           portc	equ	0F82h
  5067                           portd	equ	0F83h
  5068                           porte	equ	0F84h
  5069                           lata	equ	0F89h
  5070                           latb	equ	0F8Ah
  5071                           latc	equ	0F8Bh
  5072                           latd	equ	0F8Ch
  5073                           late	equ	0F8Dh
  5074                           trisa	equ	0F92h
  5075                           trisb	equ	0F93h
  5076                           trisc	equ	0F94h
  5077                           trisd	equ	0F95h
  5078                           trise	equ	0F96h
  5079                           pie1	equ	0F9Dh
  5080                           pir1	equ	0F9Eh
  5081                           ipr1	equ	0F9Fh
  5082                           pie2	equ	0FA0h
  5083                           pir2	equ	0FA1h
  5084                           ipr2	equ	0FA2h
  5085                           t3con	equ	0FB1h
  5086                           tmr3l	equ	0FB2h
  5087                           tmr3h	equ	0FB3h
  5088                           ccp1con	equ	0FBDh
  5089                           ccpr1l	equ	0FBEh
  5090                           ccpr1h	equ	0FBFh
  5091                           adcon1	equ	0FC1h
  5092                           adcon0	equ	0FC2h
  5093                           adresl	equ	0FC3h
  5094  001456                     __ptext10:
  5095                           opt subtitle "HI-TECH Software Omniscient Code Generator (Lite mode) build 49521"
  5096                           
  5097                           opt pagewidth 120
  5098                           
  5099  0000                     	__size_of_setOutputs	equ	__end_of_setOutputs-_setOutputs
  5100                           opt subtitle "HI-TECH Software Omniscient Code Generator (Lite mode) build 49521"
  5101  001456                     _setOutputs:
  5102                           opt subtitle "HI-TECH Software Omniscient Code Generator (Lite mode) build 49521"
  5103                           
  5104                           opt pagewidth 120
  5105  001456                     l2346:
  5106                           opt subtitle "HI-TECH Software Omniscient Code Generator (Lite mode) build 49521"
  5107  001456  C096  F03D         	movff	(setOutputs@alwayson),(c:_outputAlwaysOnFlag)	;volatile
  5108  00145A  C097  F03E         	movff	(setOutputs@alwayson+1),(c:_outputAlwaysOnFlag+1)	;volatile
  5109                           opt subtitle "HI-TECH Software Omniscient Code Generator (Lite mode) build 49521"
  5110                           
  5111  00145E                     l2348:
  5112                           opt subtitle "HI-TECH Software Omniscient Code Generator (Lite mode) build 49521"
  5113  00145E  90D8               	bcf	status,0
  5114  001460  0100               	movlb	0	; () banked
  5115  001462  0100               	movlb	0	; () banked
  5116  001464  3598               	rlcf	((setOutputs@ledIndex))&0ffh,w
  5117  001466  0100               	movlb	0	; () banked
  5118  001468  6F9E               	movwf	(??_setOutputs+0+0)&0ffh
  5119  00146A  0100               	movlb	0	; () banked
  5120  00146C  0100               	movlb	0	; () banked
  5121  00146E  3599               	rlcf	((setOutputs@ledIndex+1))&0ffh,w
  5122  001470  0100               	movlb	0	; () banked
  5123  001472  6F9F               	movwf	1+(??_setOutputs+0+0)&0ffh
  5124  001474  0100               	movlb	0	; () banked
  5125  001476  0E84               	movlw	low(_outputFlag)	;volatile
  5126  001478  0100               	movlb	0	; () banked
  5127  00147A  259E               	addwf	(??_setOutputs+0+0)&0ffh,w
  5128  00147C  6ED9               	movwf	c:fsr2l
  5129  00147E  0100               	movlb	0	; () banked
  5130  001480  0E00               	movlw	high(_outputFlag)	;volatile
  5131  001482  0100               	movlb	0	; () banked
  5132  001484  219F               	addwfc	(??_setOutputs+0+1)&0ffh,w
  5133  001486  6EDA               	movwf	1+c:fsr2l
  5134  001488  0100               	movlb	0	; () banked
  5135  00148A  C09C  FFDE         	movff	(setOutputs@value),postinc2
  5136  00148E  0100               	movlb	0	; () banked
  5137  001490  C09D  FFDD         	movff	(setOutputs@value+1),postdec2
  5138                           opt subtitle "HI-TECH Software Omniscient Code Generator (Lite mode) build 49521"
  5139                           
  5140  001494                     l2350:; BSR set to: 0
  5141                           opt subtitle "HI-TECH Software Omniscient Code Generator (Lite mode) build 49521"
  5142                           
  5143  001494  C09A  F020         	movff	(setOutputs@relay),(c:?_setOutput)
  5144  001498  C09B  F021         	movff	(setOutputs@relay+1),(c:?_setOutput+1)
  5145  00149C  C09C  F022         	movff	(setOutputs@value),0+((c:?_setOutput)+02h)
  5146  0014A0  C09D  F023         	movff	(setOutputs@value+1),1+((c:?_setOutput)+02h)
  5147  0014A4  EC35  F008         	call	_setOutput	;wreg free
  5148                           opt subtitle "HI-TECH Software Omniscient Code Generator (Lite mode) build 49521"
  5149                           
  5150  0014A8                     l237:
  5151  0014A8  0012               	return
  5152                           opt subtitle "HI-TECH Software Omniscient Code Generator (Lite mode) build 49521"
  5153                           
  5154  0014AA                     	__end_of_setOutputs:
  5155                           opt subtitle "HI-TECH Software Omniscient Code Generator (Lite mode) build 49521"
  5156                           
  5157                           opt pagewidth 120
  5158                           
  5159                           	opt lm
  5160                           
  5161                           	processor	18F65K22
  5162                           porta	equ	0F80h
  5163                           portb	equ	0F81h
  5164                           portc	equ	0F82h
  5165                           portd	equ	0F83h
  5166                           porte	equ	0F84h
  5167                           lata	equ	0F89h
  5168                           latb	equ	0F8Ah
  5169                           latc	equ	0F8Bh
  5170                           latd	equ	0F8Ch
  5171                           late	equ	0F8Dh
  5172                           trisa	equ	0F92h
  5173                           trisb	equ	0F93h
  5174                           trisc	equ	0F94h
  5175                           trisd	equ	0F95h
  5176                           trise	equ	0F96h
  5177                           pie1	equ	0F9Dh
  5178                           pir1	equ	0F9Eh
  5179                           ipr1	equ	0F9Fh
  5180                           pie2	equ	0FA0h
  5181                           pir2	equ	0FA1h
  5182                           ipr2	equ	0FA2h
  5183                           t3con	equ	0FB1h
  5184                           tmr3l	equ	0FB2h
  5185                           tmr3h	equ	0FB3h
  5186                           ccp1con	equ	0FBDh
  5187                           ccpr1l	equ	0FBEh
  5188                           ccpr1h	equ	0FBFh
  5189                           adcon1	equ	0FC1h
  5190                           adcon0	equ	0FC2h
  5191  00106A                     __ptext11:
  5192                           opt subtitle "HI-TECH Software Omniscient Code Generator (Lite mode) build 49521"
  5193                           
  5194                           opt pagewidth 120
  5195                           
  5196  0000                     	__size_of_setOutput	equ	__end_of_setOutput-_setOutput
  5197                           opt subtitle "HI-TECH Software Omniscient Code Generator (Lite mode) build 49521"
  5198  00106A                     _setOutput:
  5199                           opt subtitle "HI-TECH Software Omniscient Code Generator (Lite mode) build 49521"
  5200                           
  5201                           opt pagewidth 120
  5202  00106A                     l1988:
  5203                           opt subtitle "HI-TECH Software Omniscient Code Generator (Lite mode) build 49521"
  5204                           
  5205                           opt pagewidth 120
  5206  00106A  5021               	movf	((c:setOutput@row+1)),c,w
  5207  00106C  6E26               	movwf	((c:setOutput@port)),c	;volatile
  5208  00106E  6A27               	clrf	((c:setOutput@port+1)),c	;volatile
  5209                           opt subtitle "HI-TECH Software Omniscient Code Generator (Lite mode) build 49521"
  5210                           
  5211  001070                     l1990:
  5212                           opt subtitle "HI-TECH Software Omniscient Code Generator (Lite mode) build 49521"
  5213  001070  C020  F028         	movff	(c:setOutput@row),(c:setOutput@mask)	;volatile
  5214                           opt subtitle "HI-TECH Software Omniscient Code Generator (Lite mode) build 49521"
  5215                           
  5216  001074  D064               	goto	l2036
  5217                           opt subtitle "HI-TECH Software Omniscient Code Generator (Lite mode) build 49521"
  5218                           
  5219                           opt pagewidth 120
  5220                           
  5221  001076                     l211:
  5222                           opt subtitle "HI-TECH Software Omniscient Code Generator (Lite mode) build 49521"
  5223                           
  5224  001076                     l1992:
  5225                           opt subtitle "HI-TECH Software Omniscient Code Generator (Lite mode) build 49521"
  5226  001076  0422               	decf	((c:setOutput@value)),c,w
  5227  001078  1023               	iorwf ((c:setOutput@value+1)),c,w
  5228                           opt subtitle "HI-TECH Software Omniscient Code Generator (Lite mode) build 49521"
  5229  00107A  A4D8               	btfss	status,2
  5230  00107C  D001               	goto	u1401
  5231  00107E  D001               	goto	u1400
  5232  001080                     u1401:
  5233  001080  D003               	goto	l1996
  5234  001082                     u1400:
  5235                           opt subtitle "HI-TECH Software Omniscient Code Generator (Lite mode) build 49521"
  5236  001082                     l1994:
  5237  001082  5028               	movf	((c:setOutput@mask)),c,w	;volatile
  5238  001084  1289               	iorwf	((c:3977)),c	;volatile
  5239  001086  D07B               	goto	l234
  5240                           opt subtitle "HI-TECH Software Omniscient Code Generator (Lite mode) build 49521"
  5241  001088                     l212:
  5242                           opt subtitle "HI-TECH Software Omniscient Code Generator (Lite mode) build 49521"
  5243  001088                     l1996:
  5244  001088  5028               	movf	((c:setOutput@mask)),c,w	;volatile
  5245  00108A  0AFF               	xorlw	0ffh
  5246  00108C  1689               	andwf	((c:3977)),c	;volatile
  5247  00108E  D077               	goto	l234
  5248                           opt subtitle "HI-TECH Software Omniscient Code Generator (Lite mode) build 49521"
  5249  001090                     l213:
  5250                           opt subtitle "HI-TECH Software Omniscient Code Generator (Lite mode) build 49521"
  5251                           
  5252  001090  D076               	goto	l234
  5253                           opt subtitle "HI-TECH Software Omniscient Code Generator (Lite mode) build 49521"
  5254                           
  5255                           opt pagewidth 120
  5256  001092                     l215:
  5257                           opt subtitle "HI-TECH Software Omniscient Code Generator (Lite mode) build 49521"
  5258                           
  5259  001092                     l1998:
  5260                           opt subtitle "HI-TECH Software Omniscient Code Generator (Lite mode) build 49521"
  5261  001092  0422               	decf	((c:setOutput@value)),c,w
  5262  001094  1023               	iorwf ((c:setOutput@value+1)),c,w
  5263                           opt subtitle "HI-TECH Software Omniscient Code Generator (Lite mode) build 49521"
  5264  001096  A4D8               	btfss	status,2
  5265  001098  D001               	goto	u1411
  5266  00109A  D001               	goto	u1410
  5267  00109C                     u1411:
  5268  00109C  D003               	goto	l2002
  5269  00109E                     u1410:
  5270                           opt subtitle "HI-TECH Software Omniscient Code Generator (Lite mode) build 49521"
  5271  00109E                     l2000:
  5272  00109E  5028               	movf	((c:setOutput@mask)),c,w	;volatile
  5273  0010A0  128A               	iorwf	((c:3978)),c	;volatile
  5274  0010A2  D06D               	goto	l234
  5275                           opt subtitle "HI-TECH Software Omniscient Code Generator (Lite mode) build 49521"
  5276  0010A4                     l216:
  5277                           opt subtitle "HI-TECH Software Omniscient Code Generator (Lite mode) build 49521"
  5278  0010A4                     l2002:
  5279  0010A4  5028               	movf	((c:setOutput@mask)),c,w	;volatile
  5280  0010A6  0AFF               	xorlw	0ffh
  5281  0010A8  168A               	andwf	((c:3978)),c	;volatile
  5282  0010AA  D069               	goto	l234
  5283                           opt subtitle "HI-TECH Software Omniscient Code Generator (Lite mode) build 49521"
  5284  0010AC                     l217:
  5285                           opt subtitle "HI-TECH Software Omniscient Code Generator (Lite mode) build 49521"
  5286                           
  5287  0010AC  D068               	goto	l234
  5288                           opt subtitle "HI-TECH Software Omniscient Code Generator (Lite mode) build 49521"
  5289                           
  5290                           opt pagewidth 120
  5291  0010AE                     l218:
  5292                           opt subtitle "HI-TECH Software Omniscient Code Generator (Lite mode) build 49521"
  5293                           
  5294  0010AE                     l2004:
  5295                           opt subtitle "HI-TECH Software Omniscient Code Generator (Lite mode) build 49521"
  5296  0010AE  0422               	decf	((c:setOutput@value)),c,w
  5297  0010B0  1023               	iorwf ((c:setOutput@value+1)),c,w
  5298                           opt subtitle "HI-TECH Software Omniscient Code Generator (Lite mode) build 49521"
  5299  0010B2  A4D8               	btfss	status,2
  5300  0010B4  D001               	goto	u1421
  5301  0010B6  D001               	goto	u1420
  5302  0010B8                     u1421:
  5303  0010B8  D003               	goto	l2008
  5304  0010BA                     u1420:
  5305                           opt subtitle "HI-TECH Software Omniscient Code Generator (Lite mode) build 49521"
  5306  0010BA                     l2006:
  5307  0010BA  5028               	movf	((c:setOutput@mask)),c,w	;volatile
  5308  0010BC  128B               	iorwf	((c:3979)),c	;volatile
  5309  0010BE  D05F               	goto	l234
  5310                           opt subtitle "HI-TECH Software Omniscient Code Generator (Lite mode) build 49521"
  5311  0010C0                     l219:
  5312                           opt subtitle "HI-TECH Software Omniscient Code Generator (Lite mode) build 49521"
  5313  0010C0                     l2008:
  5314  0010C0  5028               	movf	((c:setOutput@mask)),c,w	;volatile
  5315  0010C2  0AFF               	xorlw	0ffh
  5316  0010C4  168B               	andwf	((c:3979)),c	;volatile
  5317  0010C6  D05B               	goto	l234
  5318                           opt subtitle "HI-TECH Software Omniscient Code Generator (Lite mode) build 49521"
  5319  0010C8                     l220:
  5320                           opt subtitle "HI-TECH Software Omniscient Code Generator (Lite mode) build 49521"
  5321                           
  5322  0010C8  D05A               	goto	l234
  5323                           opt subtitle "HI-TECH Software Omniscient Code Generator (Lite mode) build 49521"
  5324                           
  5325                           opt pagewidth 120
  5326  0010CA                     l221:
  5327                           opt subtitle "HI-TECH Software Omniscient Code Generator (Lite mode) build 49521"
  5328                           
  5329  0010CA                     l2010:
  5330                           opt subtitle "HI-TECH Software Omniscient Code Generator (Lite mode) build 49521"
  5331  0010CA  0422               	decf	((c:setOutput@value)),c,w
  5332  0010CC  1023               	iorwf ((c:setOutput@value+1)),c,w
  5333                           opt subtitle "HI-TECH Software Omniscient Code Generator (Lite mode) build 49521"
  5334  0010CE  A4D8               	btfss	status,2
  5335  0010D0  D001               	goto	u1431
  5336  0010D2  D001               	goto	u1430
  5337  0010D4                     u1431:
  5338  0010D4  D003               	goto	l2014
  5339  0010D6                     u1430:
  5340                           opt subtitle "HI-TECH Software Omniscient Code Generator (Lite mode) build 49521"
  5341  0010D6                     l2012:
  5342  0010D6  5028               	movf	((c:setOutput@mask)),c,w	;volatile
  5343  0010D8  128C               	iorwf	((c:3980)),c	;volatile
  5344  0010DA  D051               	goto	l234
  5345                           opt subtitle "HI-TECH Software Omniscient Code Generator (Lite mode) build 49521"
  5346  0010DC                     l222:
  5347                           opt subtitle "HI-TECH Software Omniscient Code Generator (Lite mode) build 49521"
  5348  0010DC                     l2014:
  5349  0010DC  5028               	movf	((c:setOutput@mask)),c,w	;volatile
  5350  0010DE  0AFF               	xorlw	0ffh
  5351  0010E0  168C               	andwf	((c:3980)),c	;volatile
  5352  0010E2  D04D               	goto	l234
  5353                           opt subtitle "HI-TECH Software Omniscient Code Generator (Lite mode) build 49521"
  5354  0010E4                     l223:
  5355                           opt subtitle "HI-TECH Software Omniscient Code Generator (Lite mode) build 49521"
  5356                           
  5357  0010E4  D04C               	goto	l234
  5358                           opt subtitle "HI-TECH Software Omniscient Code Generator (Lite mode) build 49521"
  5359                           
  5360                           opt pagewidth 120
  5361  0010E6                     l224:
  5362                           opt subtitle "HI-TECH Software Omniscient Code Generator (Lite mode) build 49521"
  5363                           
  5364  0010E6                     l2016:
  5365                           opt subtitle "HI-TECH Software Omniscient Code Generator (Lite mode) build 49521"
  5366  0010E6  0422               	decf	((c:setOutput@value)),c,w
  5367  0010E8  1023               	iorwf ((c:setOutput@value+1)),c,w
  5368                           opt subtitle "HI-TECH Software Omniscient Code Generator (Lite mode) build 49521"
  5369  0010EA  A4D8               	btfss	status,2
  5370  0010EC  D001               	goto	u1441
  5371  0010EE  D001               	goto	u1440
  5372  0010F0                     u1441:
  5373  0010F0  D003               	goto	l2020
  5374  0010F2                     u1440:
  5375                           opt subtitle "HI-TECH Software Omniscient Code Generator (Lite mode) build 49521"
  5376  0010F2                     l2018:
  5377  0010F2  5028               	movf	((c:setOutput@mask)),c,w	;volatile
  5378  0010F4  128D               	iorwf	((c:3981)),c	;volatile
  5379  0010F6  D043               	goto	l234
  5380                           opt subtitle "HI-TECH Software Omniscient Code Generator (Lite mode) build 49521"
  5381  0010F8                     l225:
  5382                           opt subtitle "HI-TECH Software Omniscient Code Generator (Lite mode) build 49521"
  5383  0010F8                     l2020:
  5384  0010F8  5028               	movf	((c:setOutput@mask)),c,w	;volatile
  5385  0010FA  0AFF               	xorlw	0ffh
  5386  0010FC  168D               	andwf	((c:3981)),c	;volatile
  5387  0010FE  D03F               	goto	l234
  5388                           opt subtitle "HI-TECH Software Omniscient Code Generator (Lite mode) build 49521"
  5389  001100                     l226:
  5390                           opt subtitle "HI-TECH Software Omniscient Code Generator (Lite mode) build 49521"
  5391                           
  5392  001100  D03E               	goto	l234
  5393                           opt subtitle "HI-TECH Software Omniscient Code Generator (Lite mode) build 49521"
  5394                           
  5395                           opt pagewidth 120
  5396  001102                     l227:
  5397                           opt subtitle "HI-TECH Software Omniscient Code Generator (Lite mode) build 49521"
  5398                           
  5399  001102                     l2022:
  5400                           opt subtitle "HI-TECH Software Omniscient Code Generator (Lite mode) build 49521"
  5401  001102  0422               	decf	((c:setOutput@value)),c,w
  5402  001104  1023               	iorwf ((c:setOutput@value+1)),c,w
  5403                           opt subtitle "HI-TECH Software Omniscient Code Generator (Lite mode) build 49521"
  5404  001106  A4D8               	btfss	status,2
  5405  001108  D001               	goto	u1451
  5406  00110A  D001               	goto	u1450
  5407  00110C                     u1451:
  5408  00110C  D003               	goto	l2026
  5409  00110E                     u1450:
  5410                           opt subtitle "HI-TECH Software Omniscient Code Generator (Lite mode) build 49521"
  5411  00110E                     l2024:
  5412  00110E  5028               	movf	((c:setOutput@mask)),c,w	;volatile
  5413  001110  128E               	iorwf	((c:3982)),c	;volatile
  5414  001112  D035               	goto	l234
  5415                           opt subtitle "HI-TECH Software Omniscient Code Generator (Lite mode) build 49521"
  5416  001114                     l228:
  5417                           opt subtitle "HI-TECH Software Omniscient Code Generator (Lite mode) build 49521"
  5418  001114                     l2026:
  5419  001114  5028               	movf	((c:setOutput@mask)),c,w	;volatile
  5420  001116  0AFF               	xorlw	0ffh
  5421  001118  168E               	andwf	((c:3982)),c	;volatile
  5422  00111A  D031               	goto	l234
  5423                           opt subtitle "HI-TECH Software Omniscient Code Generator (Lite mode) build 49521"
  5424  00111C                     l229:
  5425                           opt subtitle "HI-TECH Software Omniscient Code Generator (Lite mode) build 49521"
  5426                           
  5427  00111C  D030               	goto	l234
  5428                           opt subtitle "HI-TECH Software Omniscient Code Generator (Lite mode) build 49521"
  5429                           
  5430                           opt pagewidth 120
  5431  00111E                     l230:
  5432                           opt subtitle "HI-TECH Software Omniscient Code Generator (Lite mode) build 49521"
  5433                           
  5434  00111E                     l2028:
  5435                           opt subtitle "HI-TECH Software Omniscient Code Generator (Lite mode) build 49521"
  5436  00111E  0422               	decf	((c:setOutput@value)),c,w
  5437  001120  1023               	iorwf ((c:setOutput@value+1)),c,w
  5438                           opt subtitle "HI-TECH Software Omniscient Code Generator (Lite mode) build 49521"
  5439  001122  A4D8               	btfss	status,2
  5440  001124  D001               	goto	u1461
  5441  001126  D001               	goto	u1460
  5442  001128                     u1461:
  5443  001128  D003               	goto	l2032
  5444  00112A                     u1460:
  5445                           opt subtitle "HI-TECH Software Omniscient Code Generator (Lite mode) build 49521"
  5446  00112A                     l2030:
  5447  00112A  5028               	movf	((c:setOutput@mask)),c,w	;volatile
  5448  00112C  128F               	iorwf	((c:3983)),c	;volatile
  5449  00112E  D027               	goto	l234
  5450                           opt subtitle "HI-TECH Software Omniscient Code Generator (Lite mode) build 49521"
  5451  001130                     l231:
  5452                           opt subtitle "HI-TECH Software Omniscient Code Generator (Lite mode) build 49521"
  5453  001130                     l2032:
  5454  001130  5028               	movf	((c:setOutput@mask)),c,w	;volatile
  5455  001132  0AFF               	xorlw	0ffh
  5456  001134  168F               	andwf	((c:3983)),c	;volatile
  5457  001136  D023               	goto	l234
  5458                           opt subtitle "HI-TECH Software Omniscient Code Generator (Lite mode) build 49521"
  5459  001138                     l232:
  5460                           opt subtitle "HI-TECH Software Omniscient Code Generator (Lite mode) build 49521"
  5461                           
  5462  001138  D022               	goto	l234
  5463                           opt subtitle "HI-TECH Software Omniscient Code Generator (Lite mode) build 49521"
  5464                           
  5465                           opt pagewidth 120
  5466  00113A                     l233:
  5467                           opt subtitle "HI-TECH Software Omniscient Code Generator (Lite mode) build 49521"
  5468                           
  5469  00113A  D021               	goto	l234
  5470                           opt subtitle "HI-TECH Software Omniscient Code Generator (Lite mode) build 49521"
  5471                           
  5472  00113C                     l2034:
  5473                           opt subtitle "HI-TECH Software Omniscient Code Generator (Lite mode) build 49521"
  5474  00113C  D020               	goto	l234
  5475                           opt subtitle "HI-TECH Software Omniscient Code Generator (Lite mode) build 49521"
  5476                           
  5477  00113E                     l210:
  5478                           opt subtitle "HI-TECH Software Omniscient Code Generator (Lite mode) build 49521"
  5479  00113E                     l2036:
  5480  00113E  C026  F024         	movff	(c:setOutput@port),??_setOutput+0+0	;volatile
  5481  001142  C027  F025         	movff	(c:setOutput@port+1),??_setOutput+0+0+1	;volatile
  5482                           opt subtitle "HI-TECH Software Omniscient Code Generator (Lite mode) build 49521"
  5483                           
  5484                           opt pagewidth 120
  5485                           
  5486                           	opt lm
  5487                           
  5488                           	processor	18F65K22
  5489                           porta	equ	0F80h
  5490  001146  5025               	movf ??_setOutput+0+1,c,w
  5491  001148  0A00               	xorlw	0^0	; case 0
  5492  00114A  B4D8               	skipnz
  5493  00114C  D001               	goto	l2442
  5494  00114E  D017               	goto	l234
  5495                           opt subtitle "HI-TECH Software Omniscient Code Generator (Lite mode) build 49521"
  5496  001150                     l2442:
  5497                           opt subtitle "HI-TECH Software Omniscient Code Generator (Lite mode) build 49521"
  5498                           
  5499                           opt pagewidth 120
  5500                           
  5501                           	opt lm
  5502                           
  5503                           	processor	18F65K22
  5504  001150  5024               	movf ??_setOutput+0+0,c,w
  5505  001152  0A00               	xorlw	0^0	; case 0
  5506  001154  B4D8               	skipnz
  5507  001156  D78F               	goto	l1992
  5508  001158  0A01               	xorlw	1^0	; case 1
  5509  00115A  B4D8               	skipnz
  5510  00115C  D79A               	goto	l1998
  5511  00115E  0A03               	xorlw	2^1	; case 2
  5512  001160  B4D8               	skipnz
  5513  001162  D7A5               	goto	l2004
  5514  001164  0A01               	xorlw	3^2	; case 3
  5515  001166  B4D8               	skipnz
  5516  001168  D7B0               	goto	l2010
  5517  00116A  0A07               	xorlw	4^3	; case 4
  5518  00116C  B4D8               	skipnz
  5519  00116E  D7BB               	goto	l2016
  5520  001170  0A01               	xorlw	5^4	; case 5
  5521  001172  B4D8               	skipnz
  5522  001174  D7C6               	goto	l2022
  5523  001176  0A03               	xorlw	6^5	; case 6
  5524  001178  B4D8               	skipnz
  5525  00117A  D7D1               	goto	l2028
  5526  00117C  D000               	goto	l234
  5527                           opt subtitle "HI-TECH Software Omniscient Code Generator (Lite mode) build 49521"
  5528                           
  5529                           opt pagewidth 120
  5530  00117E                     l214:
  5531                           opt subtitle "HI-TECH Software Omniscient Code Generator (Lite mode) build 49521"
  5532                           
  5533  00117E                     l234:
  5534  00117E  0012               	return
  5535                           opt subtitle "HI-TECH Software Omniscient Code Generator (Lite mode) build 49521"
  5536                           
  5537  001180                     	__end_of_setOutput:
  5538                           opt subtitle "HI-TECH Software Omniscient Code Generator (Lite mode) build 49521"
  5539                           
  5540                           opt pagewidth 120
  5541                           
  5542                           	opt lm
  5543                           
  5544                           	processor	18F65K22
  5545                           porta	equ	0F80h
  5546                           portb	equ	0F81h
  5547                           portc	equ	0F82h
  5548                           portd	equ	0F83h
  5549                           porte	equ	0F84h
  5550                           lata	equ	0F89h
  5551                           latb	equ	0F8Ah
  5552                           latc	equ	0F8Bh
  5553                           latd	equ	0F8Ch
  5554                           late	equ	0F8Dh
  5555                           trisa	equ	0F92h
  5556                           trisb	equ	0F93h
  5557                           trisc	equ	0F94h
  5558                           trisd	equ	0F95h
  5559                           trise	equ	0F96h
  5560                           pie1	equ	0F9Dh
  5561                           pir1	equ	0F9Eh
  5562                           ipr1	equ	0F9Fh
  5563                           pie2	equ	0FA0h
  5564                           pir2	equ	0FA1h
  5565                           ipr2	equ	0FA2h
  5566                           t3con	equ	0FB1h
  5567                           tmr3l	equ	0FB2h
  5568                           tmr3h	equ	0FB3h
  5569                           ccp1con	equ	0FBDh
  5570                           ccpr1l	equ	0FBEh
  5571                           ccpr1h	equ	0FBFh
  5572                           adcon1	equ	0FC1h
  5573  0014AA                     __ptext12:
  5574                           opt subtitle "HI-TECH Software Omniscient Code Generator (Lite mode) build 49521"
  5575                           
  5576                           opt pagewidth 120
  5577                           
  5578  0000                     	__size_of_Write_b_eep	equ	__end_of_Write_b_eep-_Write_b_eep
  5579                           opt subtitle "HI-TECH Software Omniscient Code Generator (Lite mode) build 49521"
  5580  0014AA                     _Write_b_eep:
  5581                           opt subtitle "HI-TECH Software Omniscient Code Generator (Lite mode) build 49521"
  5582                           
  5583                           opt pagewidth 120
  5584  0014AA                     l2352:
  5585  0014AA  6E23               	movwf	(??_Write_b_eep+0+0)&0ffh,c
  5586  0014AC  0E00               	movlw	low(0)
  5587  0014AE  6E24               	movwf	((c:Write_b_eep@GIE_BIT_VAL)),c
  5588  0014B0  5023               	movf	(??_Write_b_eep+0+0)&0ffh,c,w
  5589                           opt subtitle "HI-TECH Software Omniscient Code Generator (Lite mode) build 49521"
  5590                           
  5591  0014B2                     l2354:
  5592  0014B2  5021               	movf	((c:Write_b_eep@badd+1)),c,w
  5593  0014B4  0B03               	andlw	low(03h)
  5594  0014B6  6E63               	movwf	((c:3939)),c	;volatile
  5595                           opt subtitle "HI-TECH Software Omniscient Code Generator (Lite mode) build 49521"
  5596                           
  5597  0014B8                     l2356:
  5598  0014B8  C020  FF62         	movff	(c:Write_b_eep@badd),(c:3938)	;volatile
  5599                           opt subtitle "HI-TECH Software Omniscient Code Generator (Lite mode) build 49521"
  5600                           
  5601  0014BC                     l2358:
  5602  0014BC  C022  FF61         	movff	(c:Write_b_eep@bdat),(c:3937)	;volatile
  5603                           opt subtitle "HI-TECH Software Omniscient Code Generator (Lite mode) build 49521"
  5604                           
  5605  0014C0                     l2360:
  5606  0014C0  9E7F               	bcf	((c:3967)),c,7	;volatile
  5607                           opt subtitle "HI-TECH Software Omniscient Code Generator (Lite mode) build 49521"
  5608                           
  5609  0014C2                     l2362:
  5610  0014C2  9C7F               	bcf	((c:3967)),c,6	;volatile
  5611                           opt subtitle "HI-TECH Software Omniscient Code Generator (Lite mode) build 49521"
  5612                           
  5613  0014C4                     l2364:
  5614  0014C4  847F               	bsf	((c:3967)),c,2	;volatile
  5615                           opt subtitle "HI-TECH Software Omniscient Code Generator (Lite mode) build 49521"
  5616                           
  5617  0014C6                     l2366:
  5618  0014C6  0E00               	movlw	0
  5619  0014C8  BEF2               	btfsc	((c:4082)),c,7	;volatile
  5620  0014CA  0E01               	movlw	1
  5621  0014CC  6E24               	movwf	((c:Write_b_eep@GIE_BIT_VAL)),c
  5622                           opt subtitle "HI-TECH Software Omniscient Code Generator (Lite mode) build 49521"
  5623                           
  5624  0014CE                     l2368:
  5625  0014CE  9EF2               	bcf	((c:4082)),c,7	;volatile
  5626                           opt subtitle "HI-TECH Software Omniscient Code Generator (Lite mode) build 49521"
  5627                           
  5628  0014D0                     l2370:
  5629  0014D0  0E55               	movlw	low(055h)
  5630  0014D2  6E7E               	movwf	((c:3966)),c	;volatile
  5631                           opt subtitle "HI-TECH Software Omniscient Code Generator (Lite mode) build 49521"
  5632                           
  5633  0014D4                     l2372:
  5634  0014D4  0EAA               	movlw	low(0AAh)
  5635  0014D6  6E7E               	movwf	((c:3966)),c	;volatile
  5636                           opt subtitle "HI-TECH Software Omniscient Code Generator (Lite mode) build 49521"
  5637                           
  5638  0014D8                     l2374:
  5639  0014D8  827F               	bsf	((c:3967)),c,1	;volatile
  5640                           opt subtitle "HI-TECH Software Omniscient Code Generator (Lite mode) build 49521"
  5641  0014DA  D000               	goto	l288
  5642                           opt subtitle "HI-TECH Software Omniscient Code Generator (Lite mode) build 49521"
  5643  0014DC                     l289:
  5644                           opt subtitle "HI-TECH Software Omniscient Code Generator (Lite mode) build 49521"
  5645  0014DC                     l288:
  5646                           opt subtitle "HI-TECH Software Omniscient Code Generator (Lite mode) build 49521"
  5647  0014DC  B27F               	btfsc	((c:3967)),c,1	;volatile
  5648  0014DE  D001               	goto	u1901
  5649  0014E0  D001               	goto	u1900
  5650  0014E2                     u1901:
  5651  0014E2  D7FC               	goto	l288
  5652  0014E4                     u1900:
  5653                           opt subtitle "HI-TECH Software Omniscient Code Generator (Lite mode) build 49521"
  5654  0014E4                     l290:
  5655                           opt subtitle "HI-TECH Software Omniscient Code Generator (Lite mode) build 49521"
  5656  0014E4  B024               	btfsc	(c:Write_b_eep@GIE_BIT_VAL),c,0
  5657  0014E6  D002               	bra	u1915
  5658  0014E8  9EF2               	bcf	((c:4082)),c,7	;volatile
  5659  0014EA  D001               	bra	u1916
  5660  0014EC                     	u1915:
  5661  0014EC  8EF2               	bsf	((c:4082)),c,7	;volatile
  5662  0014EE                     	u1916:
  5663                           opt subtitle "HI-TECH Software Omniscient Code Generator (Lite mode) build 49521"
  5664                           
  5665  0014EE  947F               	bcf	((c:3967)),c,2	;volatile
  5666                           opt subtitle "HI-TECH Software Omniscient Code Generator (Lite mode) build 49521"
  5667                           
  5668  0014F0                     l291:
  5669  0014F0  0012               	return
  5670                           opt subtitle "HI-TECH Software Omniscient Code Generator (Lite mode) build 49521"
  5671                           
  5672  0014F2                     	__end_of_Write_b_eep:
  5673                           opt subtitle "HI-TECH Software Omniscient Code Generator (Lite mode) build 49521"
  5674                           
  5675                           opt pagewidth 120
  5676                           
  5677                           	opt lm
  5678                           
  5679                           	processor	18F65K22
  5680                           porta	equ	0F80h
  5681                           portb	equ	0F81h
  5682                           portc	equ	0F82h
  5683                           portd	equ	0F83h
  5684                           porte	equ	0F84h
  5685                           lata	equ	0F89h
  5686                           latb	equ	0F8Ah
  5687                           latc	equ	0F8Bh
  5688                           latd	equ	0F8Ch
  5689                           late	equ	0F8Dh
  5690                           trisa	equ	0F92h
  5691                           trisb	equ	0F93h
  5692                           trisc	equ	0F94h
  5693                           trisd	equ	0F95h
  5694                           trise	equ	0F96h
  5695                           pie1	equ	0F9Dh
  5696                           pir1	equ	0F9Eh
  5697                           ipr1	equ	0F9Fh
  5698                           pie2	equ	0FA0h
  5699                           pir2	equ	0FA1h
  5700                           ipr2	equ	0FA2h
  5701                           t3con	equ	0FB1h
  5702                           tmr3l	equ	0FB2h
  5703                           tmr3h	equ	0FB3h
  5704                           ccp1con	equ	0FBDh
  5705                           ccpr1l	equ	0FBEh
  5706                           ccpr1h	equ	0FBFh
  5707  0015AE                     __ptext13:
  5708                           opt subtitle "HI-TECH Software Omniscient Code Generator (Lite mode) build 49521"
  5709                           
  5710                           opt pagewidth 120
  5711                           
  5712  0000                     	__size_of_Busy_eep	equ	__end_of_Busy_eep-_Busy_eep
  5713                           opt subtitle "HI-TECH Software Omniscient Code Generator (Lite mode) build 49521"
  5714  0015AE                     _Busy_eep:
  5715                           opt subtitle "HI-TECH Software Omniscient Code Generator (Lite mode) build 49521"
  5716                           
  5717                           opt pagewidth 120
  5718  0015AE                     l2376:
  5719  0015AE  D000               	goto	l259
  5720                           opt subtitle "HI-TECH Software Omniscient Code Generator (Lite mode) build 49521"
  5721  0015B0                     l260:
  5722                           opt subtitle "HI-TECH Software Omniscient Code Generator (Lite mode) build 49521"
  5723  0015B0                     l259:
  5724                           opt subtitle "HI-TECH Software Omniscient Code Generator (Lite mode) build 49521"
  5725  0015B0  B27F               	btfsc	((c:3967)),c,1	;volatile
  5726  0015B2  D001               	goto	u1921
  5727  0015B4  D001               	goto	u1920
  5728  0015B6                     u1921:
  5729  0015B6  D7FC               	goto	l259
  5730  0015B8                     u1920:
  5731  0015B8  D000               	goto	l262
  5732                           opt subtitle "HI-TECH Software Omniscient Code Generator (Lite mode) build 49521"
  5733  0015BA                     l261:
  5734                           opt subtitle "HI-TECH Software Omniscient Code Generator (Lite mode) build 49521"
  5735                           
  5736  0015BA                     l262:
  5737  0015BA  0012               	return
  5738                           opt subtitle "HI-TECH Software Omniscient Code Generator (Lite mode) build 49521"
  5739                           
  5740  0015BC                     	__end_of_Busy_eep:
  5741                           opt subtitle "HI-TECH Software Omniscient Code Generator (Lite mode) build 49521"
  5742                           
  5743                           opt pagewidth 120
  5744                           
  5745                           	opt lm
  5746                           
  5747                           	processor	18F65K22
  5748                           porta	equ	0F80h
  5749                           portb	equ	0F81h
  5750                           portc	equ	0F82h
  5751                           portd	equ	0F83h
  5752                           porte	equ	0F84h
  5753                           lata	equ	0F89h
  5754                           latb	equ	0F8Ah
  5755                           latc	equ	0F8Bh
  5756                           latd	equ	0F8Ch
  5757                           late	equ	0F8Dh
  5758                           trisa	equ	0F92h
  5759                           trisb	equ	0F93h
  5760                           trisc	equ	0F94h
  5761                           trisd	equ	0F95h
  5762                           trise	equ	0F96h
  5763                           pie1	equ	0F9Dh
  5764                           pir1	equ	0F9Eh
  5765                           ipr1	equ	0F9Fh
  5766                           pie2	equ	0FA0h
  5767                           pir2	equ	0FA1h
  5768                           ipr2	equ	0FA2h
  5769                           t3con	equ	0FB1h
  5770                           tmr3l	equ	0FB2h
  5771                           tmr3h	equ	0FB3h
  5772                           ccp1con	equ	0FBDh
  5773                           ccpr1l	equ	0FBEh
  5774                           ccpr1h	equ	0FBFh
  5775                           adcon1	equ	0FC1h
  5776  000008                     __pintcode:
  5777                           opt subtitle "HI-TECH Software Omniscient Code Generator (Lite mode) build 49521"
  5778                           
  5779                           opt pagewidth 120
  5780                           
  5781  0000                     	__size_of_pwm_int	equ	__end_of_pwm_int-_pwm_int
  5782                           opt subtitle "HI-TECH Software Omniscient Code Generator (Lite mode) build 49521"
  5783  000008                     _pwm_int:
  5784                           opt subtitle "HI-TECH Software Omniscient Code Generator (Lite mode) build 49521"
  5785  000008  CFFA F010          	movff	pclat+0,??_pwm_int+6
  5786  00000C  CFFB F011          	movff	pclat+1,??_pwm_int+7
  5787  000010  CFE9 F012          	movff	fsr0l+0,??_pwm_int+8
  5788  000014  CFEA F013          	movff	fsr0h+0,??_pwm_int+9
  5789  000018  CFE1 F014          	movff	fsr1l+0,??_pwm_int+10
  5790  00001C  CFE2 F015          	movff	fsr1h+0,??_pwm_int+11
  5791  000020  CFD9 F016          	movff	fsr2l+0,??_pwm_int+12
  5792  000024  CFDA F017          	movff	fsr2h+0,??_pwm_int+13
  5793  000028  CFF3 F018          	movff	prodl+0,??_pwm_int+14
  5794  00002C  CFF4 F019          	movff	prodh+0,??_pwm_int+15
  5795  000030  CFF6 F01A          	movff	tblptrl+0,??_pwm_int+16
  5796  000034  CFF7 F01B          	movff	tblptrh+0,??_pwm_int+17
  5797  000038  CFF8 F01C          	movff	tblptru+0,??_pwm_int+18
  5798  00003C  CFF5 F01D          	movff	tablat+0,??_pwm_int+19
  5799                           opt subtitle "HI-TECH Software Omniscient Code Generator (Lite mode) build 49521"
  5800                           
  5801  000040                     i2l1914:
  5802                           opt subtitle "HI-TECH Software Omniscient Code Generator (Lite mode) build 49521"
  5803                           
  5804  000040  AAF2               	btfss	c:(32661/8),(32661)&7	;volatile
  5805  000042  D001               	goto	i2u134_41
  5806  000044  D001               	goto	i2u134_40
  5807  000046                     i2u134_41:
  5808  000046  D0CD               	goto	i2l112
  5809  000048                     i2u134_40:
  5810                           opt subtitle "HI-TECH Software Omniscient Code Generator (Lite mode) build 49521"
  5811  000048                     i2l1916:
  5812  000048  A4F2               	btfss	c:(32658/8),(32658)&7	;volatile
  5813  00004A  D001               	goto	i2u135_41
  5814  00004C  D001               	goto	i2u135_40
  5815  00004E                     i2u135_41:
  5816  00004E  D0C9               	goto	i2l112
  5817  000050                     i2u135_40:
  5818                           opt subtitle "HI-TECH Software Omniscient Code Generator (Lite mode) build 49521"
  5819                           
  5820  000050                     i2l1918:
  5821                           opt subtitle "HI-TECH Software Omniscient Code Generator (Lite mode) build 49521"
  5822                           
  5823  000050  94F2               	bcf	c:(32658/8),(32658)&7	;volatile
  5824                           opt subtitle "HI-TECH Software Omniscient Code Generator (Lite mode) build 49521"
  5825                           
  5826  000052                     i2l1920:
  5827                           opt subtitle "HI-TECH Software Omniscient Code Generator (Lite mode) build 49521"
  5828  000052  043F               	decf	((c:_outputPWMState)),c,w	;volatile
  5829  000054  1040               	iorwf ((c:_outputPWMState+1)),c,w	;volatile
  5830                           opt subtitle "HI-TECH Software Omniscient Code Generator (Lite mode) build 49521"
  5831  000056  A4D8               	btfss	status,2
  5832  000058  D001               	goto	i2u136_41
  5833  00005A  D001               	goto	i2u136_40
  5834  00005C                     i2u136_41:
  5835  00005C  D011               	goto	i2l1924
  5836  00005E                     i2u136_40:
  5837                           opt subtitle "HI-TECH Software Omniscient Code Generator (Lite mode) build 49521"
  5838                           
  5839  00005E                     i2l1922:
  5840                           opt subtitle "HI-TECH Software Omniscient Code Generator (Lite mode) build 49521"
  5841                           
  5842  00005E  C03B  F00A         	movff	(c:_outputHighLength),??_pwm_int+0+0	;volatile
  5843  000062  C03C  F00B         	movff	(c:_outputHighLength+1),??_pwm_int+0+0+1	;volatile
  5844  000066  1E0A               	comf	(??_pwm_int+0+0),c
  5845  000068  1E0B               	comf	(??_pwm_int+0+1),c
  5846  00006A  4A0A               	infsnz	(??_pwm_int+0+0),c
  5847  00006C  2A0B               	incf	(??_pwm_int+0+1),c
  5848  00006E  0EFF               	movlw	low(0FFFFh)
  5849  000070  240A               	addwf	(??_pwm_int+0+0),c,w
  5850                           opt subtitle "HI-TECH Software Omniscient Code Generator (Lite mode) build 49521"
  5851  000072  6E01               	movwf	((c:?i2_WriteTimer0)),c
  5852  000074  0EFF               	movlw	high(0FFFFh)
  5853  000076  200B               	addwfc	(??_pwm_int+0+1),c,w
  5854  000078  6E02               	movwf	1+((c:?i2_WriteTimer0)),c
  5855  00007A  ECCE  F00A         	call	i2_WriteTimer0	;wreg free
  5856                           opt subtitle "HI-TECH Software Omniscient Code Generator (Lite mode) build 49521"
  5857                           
  5858  00007E  D009               	goto	i2l1926
  5859                           opt subtitle "HI-TECH Software Omniscient Code Generator (Lite mode) build 49521"
  5860                           
  5861  000080                     i2l106:
  5862                           opt subtitle "HI-TECH Software Omniscient Code Generator (Lite mode) build 49521"
  5863                           
  5864  000080                     i2l1924:
  5865                           opt subtitle "HI-TECH Software Omniscient Code Generator (Lite mode) build 49521"
  5866                           
  5867                           opt pagewidth 120
  5868  000080  0EFF               	movlw	low(0EFFFh)
  5869  000082  243B               	addwf	((c:_outputHighLength)),c,w	;volatile
  5870                           opt subtitle "HI-TECH Software Omniscient Code Generator (Lite mode) build 49521"
  5871  000084  6E01               	movwf	((c:?i2_WriteTimer0)),c
  5872  000086  0EEF               	movlw	high(0EFFFh)
  5873  000088  203C               	addwfc	((c:_outputHighLength+1)),c,w	;volatile
  5874  00008A  6E02               	movwf	1+((c:?i2_WriteTimer0)),c
  5875  00008C  ECCE  F00A         	call	i2_WriteTimer0	;wreg free
  5876  000090  D000               	goto	i2l1926
  5877                           opt subtitle "HI-TECH Software Omniscient Code Generator (Lite mode) build 49521"
  5878                           
  5879  000092                     i2l107:
  5880                           opt subtitle "HI-TECH Software Omniscient Code Generator (Lite mode) build 49521"
  5881                           
  5882  000092                     i2l1926:
  5883                           opt subtitle "HI-TECH Software Omniscient Code Generator (Lite mode) build 49521"
  5884                           
  5885  000092  0E00               	movlw	high(0)
  5886  000094  6E1F               	movwf	((c:pwm_int@i+1)),c
  5887  000096  0E00               	movlw	low(0)
  5888  000098  6E1E               	movwf	((c:pwm_int@i)),c
  5889                           opt subtitle "HI-TECH Software Omniscient Code Generator (Lite mode) build 49521"
  5890  00009A                     i2l1928:
  5891  00009A  0E09               	movlw	09h
  5892  00009C  5C1E               	subwf	((c:pwm_int@i)),c,w
  5893  00009E  0E00               	movlw	0
  5894  0000A0  581F               	subwfb	((c:pwm_int@i+1)),c,w
  5895  0000A2  A0D8               	btfss	status,0
  5896  0000A4  D001               	goto	i2u137_41
  5897  0000A6  D001               	goto	i2u137_40
  5898  0000A8                     i2u137_41:
  5899  0000A8  D002               	goto	i2l1932
  5900  0000AA                     i2u137_40:
  5901  0000AA  D092               	goto	i2l1942
  5902                           opt subtitle "HI-TECH Software Omniscient Code Generator (Lite mode) build 49521"
  5903  0000AC                     i2l1930:
  5904  0000AC  D091               	goto	i2l1942
  5905                           opt subtitle "HI-TECH Software Omniscient Code Generator (Lite mode) build 49521"
  5906                           
  5907  0000AE                     i2l108:
  5908                           opt subtitle "HI-TECH Software Omniscient Code Generator (Lite mode) build 49521"
  5909                           
  5910  0000AE                     i2l1932:
  5911                           opt subtitle "HI-TECH Software Omniscient Code Generator (Lite mode) build 49521"
  5912                           
  5913  0000AE  503E               	movf	((c:_outputAlwaysOnFlag+1)),c,w	;volatile
  5914  0000B0  103D               	iorwf ((c:_outputAlwaysOnFlag)),c,w	;volatile
  5915                           opt subtitle "HI-TECH Software Omniscient Code Generator (Lite mode) build 49521"
  5916  0000B2  A4D8               	btfss	status,2
  5917  0000B4  D001               	goto	i2u138_41
  5918  0000B6  D001               	goto	i2u138_40
  5919  0000B8                     i2u138_41:
  5920  0000B8  D040               	goto	i2l1936
  5921  0000BA                     i2u138_40:
  5922                           opt subtitle "HI-TECH Software Omniscient Code Generator (Lite mode) build 49521"
  5923                           
  5924  0000BA                     i2l1934:
  5925                           opt subtitle "HI-TECH Software Omniscient Code Generator (Lite mode) build 49521"
  5926                           
  5927  0000BA  90D8               	bcf	status,0
  5928  0000BC  341E               	rlcf	((c:pwm_int@i)),c,w
  5929  0000BE  6E0A               	movwf	(??_pwm_int+0+0)&0ffh,c
  5930  0000C0  341F               	rlcf	((c:pwm_int@i+1)),c,w
  5931  0000C2  6E0B               	movwf	1+(??_pwm_int+0+0)&0ffh,c
  5932  0000C4  0E29               	movlw	low((c:_leftLEDMask))	;volatile
  5933  0000C6  240A               	addwf	(??_pwm_int+0+0),c,w
  5934  0000C8  6ED9               	movwf	c:fsr2l
  5935  0000CA  0E00               	movlw	high((c:_leftLEDMask))	;volatile
  5936  0000CC  200B               	addwfc	(??_pwm_int+0+1),c,w
  5937  0000CE  6EDA               	movwf	1+c:fsr2l
  5938  0000D0  CFDE F001          	movff	postinc2,(c:?i2_setOutput)
  5939  0000D4  CFDD F002          	movff	postdec2,(c:?i2_setOutput+1)
  5940  0000D8  C03F  F003         	movff	(c:_outputPWMState),0+((c:?i2_setOutput)+02h)	;volatile
  5941  0000DC  C040  F004         	movff	(c:_outputPWMState+1),1+((c:?i2_setOutput)+02h)	;volatile
  5942  0000E0  ECC0  F008         	call	i2_setOutput	;wreg free
  5943                           opt subtitle "HI-TECH Software Omniscient Code Generator (Lite mode) build 49521"
  5944                           
  5945  0000E4  90D8               	bcf	status,0
  5946  0000E6  341E               	rlcf	((c:pwm_int@i)),c,w
  5947  0000E8  6E0A               	movwf	(??_pwm_int+0+0)&0ffh,c
  5948  0000EA  341F               	rlcf	((c:pwm_int@i+1)),c,w
  5949  0000EC  6E0B               	movwf	1+(??_pwm_int+0+0)&0ffh,c
  5950  0000EE  0100               	movlb	0	; () banked
  5951  0000F0  0E72               	movlw	low(_rightLEDMask)	;volatile
  5952  0000F2  240A               	addwf	(??_pwm_int+0+0),c,w
  5953  0000F4  6ED9               	movwf	c:fsr2l
  5954  0000F6  0100               	movlb	0	; () banked
  5955  0000F8  0E00               	movlw	high(_rightLEDMask)	;volatile
  5956  0000FA  200B               	addwfc	(??_pwm_int+0+1),c,w
  5957  0000FC  6EDA               	movwf	1+c:fsr2l
  5958  0000FE  CFDE F001          	movff	postinc2,(c:?i2_setOutput)
  5959  000102  CFDD F002          	movff	postdec2,(c:?i2_setOutput+1)
  5960  000106  90D8               	bcf	status,0
  5961  000108  341E               	rlcf	((c:pwm_int@i)),c,w
  5962  00010A  6E0C               	movwf	(??_pwm_int+2+0)&0ffh,c
  5963  00010C  341F               	rlcf	((c:pwm_int@i+1)),c,w
  5964  00010E  6E0D               	movwf	1+(??_pwm_int+2+0)&0ffh,c
  5965  000110  0100               	movlb	0	; () banked
  5966  000112  0E84               	movlw	low(_outputFlag)	;volatile
  5967  000114  240C               	addwf	(??_pwm_int+2+0),c,w
  5968  000116  6ED9               	movwf	c:fsr2l
  5969  000118  0100               	movlb	0	; () banked
  5970  00011A  0E00               	movlw	high(_outputFlag)	;volatile
  5971  00011C  200D               	addwfc	(??_pwm_int+2+1),c,w
  5972  00011E  6EDA               	movwf	1+c:fsr2l
  5973  000120  CFDE F00E          	movff	postinc2,??_pwm_int+4+0
  5974  000124  CFDD F00F          	movff	postdec2,??_pwm_int+4+0+1
  5975  000128  503F               	movf	((c:_outputPWMState)),c,w	;volatile
  5976  00012A  140E               	andwf	(??_pwm_int+4+0),c,w
  5977                           opt subtitle "HI-TECH Software Omniscient Code Generator (Lite mode) build 49521"
  5978  00012C  6E03               	movwf	(0+((c:?i2_setOutput)+02h)),c
  5979  00012E  5040               	movf	((c:_outputPWMState+1)),c,w	;volatile
  5980  000130  140F               	andwf	(??_pwm_int+4+1),c,w
  5981  000132  6E04               	movwf	1+(0+((c:?i2_setOutput)+02h)),c
  5982  000134  ECC0  F008         	call	i2_setOutput	;wreg free
  5983                           opt subtitle "HI-TECH Software Omniscient Code Generator (Lite mode) build 49521"
  5984                           
  5985  000138  D040               	goto	i2l1938
  5986                           opt subtitle "HI-TECH Software Omniscient Code Generator (Lite mode) build 49521"
  5987                           
  5988  00013A                     i2l110:
  5989                           opt subtitle "HI-TECH Software Omniscient Code Generator (Lite mode) build 49521"
  5990                           
  5991  00013A                     i2l1936:
  5992                           opt subtitle "HI-TECH Software Omniscient Code Generator (Lite mode) build 49521"
  5993                           
  5994                           opt pagewidth 120
  5995  00013A  90D8               	bcf	status,0
  5996  00013C  341E               	rlcf	((c:pwm_int@i)),c,w
  5997  00013E  6E0A               	movwf	(??_pwm_int+0+0)&0ffh,c
  5998  000140  341F               	rlcf	((c:pwm_int@i+1)),c,w
  5999  000142  6E0B               	movwf	1+(??_pwm_int+0+0)&0ffh,c
  6000  000144  0E29               	movlw	low((c:_leftLEDMask))	;volatile
  6001  000146  240A               	addwf	(??_pwm_int+0+0),c,w
  6002  000148  6ED9               	movwf	c:fsr2l
  6003  00014A  0E00               	movlw	high((c:_leftLEDMask))	;volatile
  6004  00014C  200B               	addwfc	(??_pwm_int+0+1),c,w
  6005  00014E  6EDA               	movwf	1+c:fsr2l
  6006  000150  CFDE F001          	movff	postinc2,(c:?i2_setOutput)
  6007  000154  CFDD F002          	movff	postdec2,(c:?i2_setOutput+1)
  6008  000158  90D8               	bcf	status,0
  6009  00015A  341E               	rlcf	((c:pwm_int@i)),c,w
  6010  00015C  6E0C               	movwf	(??_pwm_int+2+0)&0ffh,c
  6011  00015E  341F               	rlcf	((c:pwm_int@i+1)),c,w
  6012  000160  6E0D               	movwf	1+(??_pwm_int+2+0)&0ffh,c
  6013  000162  0100               	movlb	0	; () banked
  6014  000164  0E84               	movlw	low(_outputFlag)	;volatile
  6015  000166  240C               	addwf	(??_pwm_int+2+0),c,w
  6016  000168  6ED9               	movwf	c:fsr2l
  6017  00016A  0100               	movlb	0	; () banked
  6018  00016C  0E00               	movlw	high(_outputFlag)	;volatile
  6019  00016E  200D               	addwfc	(??_pwm_int+2+1),c,w
  6020  000170  6EDA               	movwf	1+c:fsr2l
  6021  000172  CFDE F00E          	movff	postinc2,??_pwm_int+4+0
  6022  000176  CFDD F00F          	movff	postdec2,??_pwm_int+4+0+1
  6023  00017A  503F               	movf	((c:_outputPWMState)),c,w	;volatile
  6024  00017C  140E               	andwf	(??_pwm_int+4+0),c,w
  6025                           opt subtitle "HI-TECH Software Omniscient Code Generator (Lite mode) build 49521"
  6026  00017E  6E03               	movwf	(0+((c:?i2_setOutput)+02h)),c
  6027  000180  5040               	movf	((c:_outputPWMState+1)),c,w	;volatile
  6028  000182  140F               	andwf	(??_pwm_int+4+1),c,w
  6029  000184  6E04               	movwf	1+(0+((c:?i2_setOutput)+02h)),c
  6030  000186  ECC0  F008         	call	i2_setOutput	;wreg free
  6031                           opt subtitle "HI-TECH Software Omniscient Code Generator (Lite mode) build 49521"
  6032                           
  6033  00018A  90D8               	bcf	status,0
  6034  00018C  341E               	rlcf	((c:pwm_int@i)),c,w
  6035  00018E  6E0A               	movwf	(??_pwm_int+0+0)&0ffh,c
  6036  000190  341F               	rlcf	((c:pwm_int@i+1)),c,w
  6037  000192  6E0B               	movwf	1+(??_pwm_int+0+0)&0ffh,c
  6038  000194  0100               	movlb	0	; () banked
  6039  000196  0E72               	movlw	low(_rightLEDMask)	;volatile
  6040  000198  240A               	addwf	(??_pwm_int+0+0),c,w
  6041  00019A  6ED9               	movwf	c:fsr2l
  6042  00019C  0100               	movlb	0	; () banked
  6043  00019E  0E00               	movlw	high(_rightLEDMask)	;volatile
  6044  0001A0  200B               	addwfc	(??_pwm_int+0+1),c,w
  6045  0001A2  6EDA               	movwf	1+c:fsr2l
  6046  0001A4  CFDE F001          	movff	postinc2,(c:?i2_setOutput)
  6047  0001A8  CFDD F002          	movff	postdec2,(c:?i2_setOutput+1)
  6048  0001AC  C03F  F003         	movff	(c:_outputPWMState),0+((c:?i2_setOutput)+02h)	;volatile
  6049  0001B0  C040  F004         	movff	(c:_outputPWMState+1),1+((c:?i2_setOutput)+02h)	;volatile
  6050  0001B4  ECC0  F008         	call	i2_setOutput	;wreg free
  6051  0001B8  D000               	goto	i2l1938
  6052                           opt subtitle "HI-TECH Software Omniscient Code Generator (Lite mode) build 49521"
  6053                           
  6054  0001BA                     i2l111:
  6055                           opt subtitle "HI-TECH Software Omniscient Code Generator (Lite mode) build 49521"
  6056                           
  6057  0001BA                     i2l1938:
  6058  0001BA  4A1E               	infsnz	((c:pwm_int@i)),c
  6059  0001BC  2A1F               	incf	((c:pwm_int@i+1)),c
  6060                           opt subtitle "HI-TECH Software Omniscient Code Generator (Lite mode) build 49521"
  6061  0001BE                     i2l1940:
  6062  0001BE  0E09               	movlw	09h
  6063  0001C0  5C1E               	subwf	((c:pwm_int@i)),c,w
  6064  0001C2  0E00               	movlw	0
  6065  0001C4  581F               	subwfb	((c:pwm_int@i+1)),c,w
  6066  0001C6  A0D8               	btfss	status,0
  6067  0001C8  D001               	goto	i2u139_41
  6068  0001CA  D001               	goto	i2u139_40
  6069  0001CC                     i2u139_41:
  6070  0001CC  D770               	goto	i2l1932
  6071  0001CE                     i2u139_40:
  6072  0001CE  D000               	goto	i2l1942
  6073                           opt subtitle "HI-TECH Software Omniscient Code Generator (Lite mode) build 49521"
  6074  0001D0                     i2l109:
  6075                           opt subtitle "HI-TECH Software Omniscient Code Generator (Lite mode) build 49521"
  6076                           
  6077  0001D0                     i2l1942:
  6078                           opt subtitle "HI-TECH Software Omniscient Code Generator (Lite mode) build 49521"
  6079                           
  6080                           opt pagewidth 120
  6081  0001D0  5040               	movf	((c:_outputPWMState+1)),c,w	;volatile
  6082  0001D2  103F               	iorwf ((c:_outputPWMState)),c,w	;volatile
  6083                           opt subtitle "HI-TECH Software Omniscient Code Generator (Lite mode) build 49521"
  6084  0001D4  0E00               	movlw	0
  6085  0001D6  B4D8               	btfsc	status,2
  6086  0001D8  0E01               	movlw	1
  6087  0001DA  6E3F               	movwf	((c:_outputPWMState)),c	;volatile
  6088  0001DC  6A40               	clrf	((c:_outputPWMState+1)),c	;volatile
  6089  0001DE  D001               	goto	i2l112
  6090                           opt subtitle "HI-TECH Software Omniscient Code Generator (Lite mode) build 49521"
  6091                           
  6092  0001E0                     i2l1944:
  6093                           opt subtitle "HI-TECH Software Omniscient Code Generator (Lite mode) build 49521"
  6094  0001E0  D000               	goto	i2l112
  6095                           opt subtitle "HI-TECH Software Omniscient Code Generator (Lite mode) build 49521"
  6096                           
  6097  0001E2                     i2l105:
  6098                           opt subtitle "HI-TECH Software Omniscient Code Generator (Lite mode) build 49521"
  6099                           
  6100  0001E2                     i2l112:
  6101  0001E2  C01D  FFF5         	movff	??_pwm_int+19,tablat+0
  6102  0001E6  C01C  FFF8         	movff	??_pwm_int+18,tblptru+0
  6103  0001EA  C01B  FFF7         	movff	??_pwm_int+17,tblptrh+0
  6104  0001EE  C01A  FFF6         	movff	??_pwm_int+16,tblptrl+0
  6105  0001F2  C019  FFF4         	movff	??_pwm_int+15,prodh+0
  6106  0001F6  C018  FFF3         	movff	??_pwm_int+14,prodl+0
  6107  0001FA  C017  FFDA         	movff	??_pwm_int+13,fsr2h+0
  6108  0001FE  C016  FFD9         	movff	??_pwm_int+12,fsr2l+0
  6109  000202  C015  FFE2         	movff	??_pwm_int+11,fsr1h+0
  6110  000206  C014  FFE1         	movff	??_pwm_int+10,fsr1l+0
  6111  00020A  C013  FFEA         	movff	??_pwm_int+9,fsr0h+0
  6112  00020E  C012  FFE9         	movff	??_pwm_int+8,fsr0l+0
  6113  000212  C011  FFFB         	movff	??_pwm_int+7,pclat+1
  6114  000216  C010  FFFA         	movff	??_pwm_int+6,pclat+0
  6115  00021A  0011               	retfie f
  6116                           opt subtitle "HI-TECH Software Omniscient Code Generator (Lite mode) build 49521"
  6117                           
  6118  00021C                     	__end_of_pwm_int:
  6119                           opt subtitle "HI-TECH Software Omniscient Code Generator (Lite mode) build 49521"
  6120                           
  6121                           opt pagewidth 120
  6122                           
  6123                           	opt lm
  6124                           
  6125                           	processor	18F65K22
  6126                           porta	equ	0F80h
  6127                           portb	equ	0F81h
  6128                           portc	equ	0F82h
  6129                           portd	equ	0F83h
  6130                           porte	equ	0F84h
  6131                           lata	equ	0F89h
  6132                           latb	equ	0F8Ah
  6133                           latc	equ	0F8Bh
  6134                           latd	equ	0F8Ch
  6135                           late	equ	0F8Dh
  6136                           trisa	equ	0F92h
  6137                           trisb	equ	0F93h
  6138                           trisc	equ	0F94h
  6139                           trisd	equ	0F95h
  6140                           trise	equ	0F96h
  6141                           pie1	equ	0F9Dh
  6142                           pir1	equ	0F9Eh
  6143                           ipr1	equ	0F9Fh
  6144                           pie2	equ	0FA0h
  6145                           pir2	equ	0FA1h
  6146                           ipr2	equ	0FA2h
  6147                           t3con	equ	0FB1h
  6148                           tmr3l	equ	0FB2h
  6149                           tmr3h	equ	0FB3h
  6150                           ccp1con	equ	0FBDh
  6151                           ccpr1l	equ	0FBEh
  6152                           ccpr1h	equ	0FBFh
  6153                           adcon1	equ	0FC1h
  6154  001180                     __ptext15:
  6155                           opt subtitle "HI-TECH Software Omniscient Code Generator (Lite mode) build 49521"
  6156                           
  6157                           opt pagewidth 120
  6158                           
  6159  0000                     	__size_ofi2_setOutput	equ	__end_ofi2_setOutput-i2_setOutput
  6160                           opt subtitle "HI-TECH Software Omniscient Code Generator (Lite mode) build 49521"
  6161  001180                     i2_setOutput:
  6162                           opt subtitle "HI-TECH Software Omniscient Code Generator (Lite mode) build 49521"
  6163                           
  6164                           opt pagewidth 120
  6165  001180                     i2l1860:
  6166                           opt subtitle "HI-TECH Software Omniscient Code Generator (Lite mode) build 49521"
  6167                           
  6168                           opt pagewidth 120
  6169  001180  5002               	movf	((c:i2setOutput@row+1)),c,w
  6170  001182  6E07               	movwf	((c:i2setOutput@port)),c	;volatile
  6171  001184  6A08               	clrf	((c:i2setOutput@port+1)),c	;volatile
  6172                           opt subtitle "HI-TECH Software Omniscient Code Generator (Lite mode) build 49521"
  6173                           
  6174  001186                     i2l1862:
  6175                           opt subtitle "HI-TECH Software Omniscient Code Generator (Lite mode) build 49521"
  6176  001186  C001  F009         	movff	(c:i2setOutput@row),(c:i2setOutput@mask)	;volatile
  6177                           opt subtitle "HI-TECH Software Omniscient Code Generator (Lite mode) build 49521"
  6178                           
  6179  00118A  D064               	goto	i2l1908
  6180                           opt subtitle "HI-TECH Software Omniscient Code Generator (Lite mode) build 49521"
  6181                           
  6182                           opt pagewidth 120
  6183                           
  6184  00118C                     i2l211:
  6185                           opt subtitle "HI-TECH Software Omniscient Code Generator (Lite mode) build 49521"
  6186                           
  6187  00118C                     i2l1864:
  6188                           opt subtitle "HI-TECH Software Omniscient Code Generator (Lite mode) build 49521"
  6189  00118C  0403               	decf	((c:i2setOutput@value)),c,w
  6190  00118E  1004               	iorwf ((c:i2setOutput@value+1)),c,w
  6191                           opt subtitle "HI-TECH Software Omniscient Code Generator (Lite mode) build 49521"
  6192  001190  A4D8               	btfss	status,2
  6193  001192  D001               	goto	i2u127_41
  6194  001194  D001               	goto	i2u127_40
  6195  001196                     i2u127_41:
  6196  001196  D003               	goto	i2l1868
  6197  001198                     i2u127_40:
  6198                           opt subtitle "HI-TECH Software Omniscient Code Generator (Lite mode) build 49521"
  6199  001198                     i2l1866:
  6200  001198  5009               	movf	((c:i2setOutput@mask)),c,w	;volatile
  6201  00119A  1289               	iorwf	((c:3977)),c	;volatile
  6202  00119C  D07B               	goto	i2l234
  6203                           opt subtitle "HI-TECH Software Omniscient Code Generator (Lite mode) build 49521"
  6204  00119E                     i2l212:
  6205                           opt subtitle "HI-TECH Software Omniscient Code Generator (Lite mode) build 49521"
  6206  00119E                     i2l1868:
  6207  00119E  5009               	movf	((c:i2setOutput@mask)),c,w	;volatile
  6208  0011A0  0AFF               	xorlw	0ffh
  6209  0011A2  1689               	andwf	((c:3977)),c	;volatile
  6210  0011A4  D077               	goto	i2l234
  6211                           opt subtitle "HI-TECH Software Omniscient Code Generator (Lite mode) build 49521"
  6212  0011A6                     i2l213:
  6213                           opt subtitle "HI-TECH Software Omniscient Code Generator (Lite mode) build 49521"
  6214                           
  6215  0011A6  D076               	goto	i2l234
  6216                           opt subtitle "HI-TECH Software Omniscient Code Generator (Lite mode) build 49521"
  6217                           
  6218                           opt pagewidth 120
  6219  0011A8                     i2l215:
  6220                           opt subtitle "HI-TECH Software Omniscient Code Generator (Lite mode) build 49521"
  6221                           
  6222  0011A8                     i2l1870:
  6223                           opt subtitle "HI-TECH Software Omniscient Code Generator (Lite mode) build 49521"
  6224  0011A8  0403               	decf	((c:i2setOutput@value)),c,w
  6225  0011AA  1004               	iorwf ((c:i2setOutput@value+1)),c,w
  6226                           opt subtitle "HI-TECH Software Omniscient Code Generator (Lite mode) build 49521"
  6227  0011AC  A4D8               	btfss	status,2
  6228  0011AE  D001               	goto	i2u128_41
  6229  0011B0  D001               	goto	i2u128_40
  6230  0011B2                     i2u128_41:
  6231  0011B2  D003               	goto	i2l1874
  6232  0011B4                     i2u128_40:
  6233                           opt subtitle "HI-TECH Software Omniscient Code Generator (Lite mode) build 49521"
  6234  0011B4                     i2l1872:
  6235  0011B4  5009               	movf	((c:i2setOutput@mask)),c,w	;volatile
  6236  0011B6  128A               	iorwf	((c:3978)),c	;volatile
  6237  0011B8  D06D               	goto	i2l234
  6238                           opt subtitle "HI-TECH Software Omniscient Code Generator (Lite mode) build 49521"
  6239  0011BA                     i2l216:
  6240                           opt subtitle "HI-TECH Software Omniscient Code Generator (Lite mode) build 49521"
  6241  0011BA                     i2l1874:
  6242  0011BA  5009               	movf	((c:i2setOutput@mask)),c,w	;volatile
  6243  0011BC  0AFF               	xorlw	0ffh
  6244  0011BE  168A               	andwf	((c:3978)),c	;volatile
  6245  0011C0  D069               	goto	i2l234
  6246                           opt subtitle "HI-TECH Software Omniscient Code Generator (Lite mode) build 49521"
  6247  0011C2                     i2l217:
  6248                           opt subtitle "HI-TECH Software Omniscient Code Generator (Lite mode) build 49521"
  6249                           
  6250  0011C2  D068               	goto	i2l234
  6251                           opt subtitle "HI-TECH Software Omniscient Code Generator (Lite mode) build 49521"
  6252                           
  6253                           opt pagewidth 120
  6254  0011C4                     i2l218:
  6255                           opt subtitle "HI-TECH Software Omniscient Code Generator (Lite mode) build 49521"
  6256                           
  6257  0011C4                     i2l1876:
  6258                           opt subtitle "HI-TECH Software Omniscient Code Generator (Lite mode) build 49521"
  6259  0011C4  0403               	decf	((c:i2setOutput@value)),c,w
  6260  0011C6  1004               	iorwf ((c:i2setOutput@value+1)),c,w
  6261                           opt subtitle "HI-TECH Software Omniscient Code Generator (Lite mode) build 49521"
  6262  0011C8  A4D8               	btfss	status,2
  6263  0011CA  D001               	goto	i2u129_41
  6264  0011CC  D001               	goto	i2u129_40
  6265  0011CE                     i2u129_41:
  6266  0011CE  D003               	goto	i2l1880
  6267  0011D0                     i2u129_40:
  6268                           opt subtitle "HI-TECH Software Omniscient Code Generator (Lite mode) build 49521"
  6269  0011D0                     i2l1878:
  6270  0011D0  5009               	movf	((c:i2setOutput@mask)),c,w	;volatile
  6271  0011D2  128B               	iorwf	((c:3979)),c	;volatile
  6272  0011D4  D05F               	goto	i2l234
  6273                           opt subtitle "HI-TECH Software Omniscient Code Generator (Lite mode) build 49521"
  6274  0011D6                     i2l219:
  6275                           opt subtitle "HI-TECH Software Omniscient Code Generator (Lite mode) build 49521"
  6276  0011D6                     i2l1880:
  6277  0011D6  5009               	movf	((c:i2setOutput@mask)),c,w	;volatile
  6278  0011D8  0AFF               	xorlw	0ffh
  6279  0011DA  168B               	andwf	((c:3979)),c	;volatile
  6280  0011DC  D05B               	goto	i2l234
  6281                           opt subtitle "HI-TECH Software Omniscient Code Generator (Lite mode) build 49521"
  6282  0011DE                     i2l220:
  6283                           opt subtitle "HI-TECH Software Omniscient Code Generator (Lite mode) build 49521"
  6284                           
  6285  0011DE  D05A               	goto	i2l234
  6286                           opt subtitle "HI-TECH Software Omniscient Code Generator (Lite mode) build 49521"
  6287                           
  6288                           opt pagewidth 120
  6289  0011E0                     i2l221:
  6290                           opt subtitle "HI-TECH Software Omniscient Code Generator (Lite mode) build 49521"
  6291                           
  6292  0011E0                     i2l1882:
  6293                           opt subtitle "HI-TECH Software Omniscient Code Generator (Lite mode) build 49521"
  6294  0011E0  0403               	decf	((c:i2setOutput@value)),c,w
  6295  0011E2  1004               	iorwf ((c:i2setOutput@value+1)),c,w
  6296                           opt subtitle "HI-TECH Software Omniscient Code Generator (Lite mode) build 49521"
  6297  0011E4  A4D8               	btfss	status,2
  6298  0011E6  D001               	goto	i2u130_41
  6299  0011E8  D001               	goto	i2u130_40
  6300  0011EA                     i2u130_41:
  6301  0011EA  D003               	goto	i2l1886
  6302  0011EC                     i2u130_40:
  6303                           opt subtitle "HI-TECH Software Omniscient Code Generator (Lite mode) build 49521"
  6304  0011EC                     i2l1884:
  6305  0011EC  5009               	movf	((c:i2setOutput@mask)),c,w	;volatile
  6306  0011EE  128C               	iorwf	((c:3980)),c	;volatile
  6307  0011F0  D051               	goto	i2l234
  6308                           opt subtitle "HI-TECH Software Omniscient Code Generator (Lite mode) build 49521"
  6309  0011F2                     i2l222:
  6310                           opt subtitle "HI-TECH Software Omniscient Code Generator (Lite mode) build 49521"
  6311  0011F2                     i2l1886:
  6312  0011F2  5009               	movf	((c:i2setOutput@mask)),c,w	;volatile
  6313  0011F4  0AFF               	xorlw	0ffh
  6314  0011F6  168C               	andwf	((c:3980)),c	;volatile
  6315  0011F8  D04D               	goto	i2l234
  6316                           opt subtitle "HI-TECH Software Omniscient Code Generator (Lite mode) build 49521"
  6317  0011FA                     i2l223:
  6318                           opt subtitle "HI-TECH Software Omniscient Code Generator (Lite mode) build 49521"
  6319                           
  6320  0011FA  D04C               	goto	i2l234
  6321                           opt subtitle "HI-TECH Software Omniscient Code Generator (Lite mode) build 49521"
  6322                           
  6323                           opt pagewidth 120
  6324  0011FC                     i2l224:
  6325                           opt subtitle "HI-TECH Software Omniscient Code Generator (Lite mode) build 49521"
  6326                           
  6327  0011FC                     i2l1888:
  6328                           opt subtitle "HI-TECH Software Omniscient Code Generator (Lite mode) build 49521"
  6329  0011FC  0403               	decf	((c:i2setOutput@value)),c,w
  6330  0011FE  1004               	iorwf ((c:i2setOutput@value+1)),c,w
  6331                           opt subtitle "HI-TECH Software Omniscient Code Generator (Lite mode) build 49521"
  6332  001200  A4D8               	btfss	status,2
  6333  001202  D001               	goto	i2u131_41
  6334  001204  D001               	goto	i2u131_40
  6335  001206                     i2u131_41:
  6336  001206  D003               	goto	i2l1892
  6337  001208                     i2u131_40:
  6338                           opt subtitle "HI-TECH Software Omniscient Code Generator (Lite mode) build 49521"
  6339  001208                     i2l1890:
  6340  001208  5009               	movf	((c:i2setOutput@mask)),c,w	;volatile
  6341  00120A  128D               	iorwf	((c:3981)),c	;volatile
  6342  00120C  D043               	goto	i2l234
  6343                           opt subtitle "HI-TECH Software Omniscient Code Generator (Lite mode) build 49521"
  6344  00120E                     i2l225:
  6345                           opt subtitle "HI-TECH Software Omniscient Code Generator (Lite mode) build 49521"
  6346  00120E                     i2l1892:
  6347  00120E  5009               	movf	((c:i2setOutput@mask)),c,w	;volatile
  6348  001210  0AFF               	xorlw	0ffh
  6349  001212  168D               	andwf	((c:3981)),c	;volatile
  6350  001214  D03F               	goto	i2l234
  6351                           opt subtitle "HI-TECH Software Omniscient Code Generator (Lite mode) build 49521"
  6352  001216                     i2l226:
  6353                           opt subtitle "HI-TECH Software Omniscient Code Generator (Lite mode) build 49521"
  6354                           
  6355  001216  D03E               	goto	i2l234
  6356                           opt subtitle "HI-TECH Software Omniscient Code Generator (Lite mode) build 49521"
  6357                           
  6358                           opt pagewidth 120
  6359  001218                     i2l227:
  6360                           opt subtitle "HI-TECH Software Omniscient Code Generator (Lite mode) build 49521"
  6361                           
  6362  001218                     i2l1894:
  6363                           opt subtitle "HI-TECH Software Omniscient Code Generator (Lite mode) build 49521"
  6364  001218  0403               	decf	((c:i2setOutput@value)),c,w
  6365  00121A  1004               	iorwf ((c:i2setOutput@value+1)),c,w
  6366                           opt subtitle "HI-TECH Software Omniscient Code Generator (Lite mode) build 49521"
  6367  00121C  A4D8               	btfss	status,2
  6368  00121E  D001               	goto	i2u132_41
  6369  001220  D001               	goto	i2u132_40
  6370  001222                     i2u132_41:
  6371  001222  D003               	goto	i2l1898
  6372  001224                     i2u132_40:
  6373                           opt subtitle "HI-TECH Software Omniscient Code Generator (Lite mode) build 49521"
  6374  001224                     i2l1896:
  6375  001224  5009               	movf	((c:i2setOutput@mask)),c,w	;volatile
  6376  001226  128E               	iorwf	((c:3982)),c	;volatile
  6377  001228  D035               	goto	i2l234
  6378                           opt subtitle "HI-TECH Software Omniscient Code Generator (Lite mode) build 49521"
  6379  00122A                     i2l228:
  6380                           opt subtitle "HI-TECH Software Omniscient Code Generator (Lite mode) build 49521"
  6381  00122A                     i2l1898:
  6382  00122A  5009               	movf	((c:i2setOutput@mask)),c,w	;volatile
  6383  00122C  0AFF               	xorlw	0ffh
  6384  00122E  168E               	andwf	((c:3982)),c	;volatile
  6385  001230  D031               	goto	i2l234
  6386                           opt subtitle "HI-TECH Software Omniscient Code Generator (Lite mode) build 49521"
  6387  001232                     i2l229:
  6388                           opt subtitle "HI-TECH Software Omniscient Code Generator (Lite mode) build 49521"
  6389                           
  6390  001232  D030               	goto	i2l234
  6391                           opt subtitle "HI-TECH Software Omniscient Code Generator (Lite mode) build 49521"
  6392                           
  6393                           opt pagewidth 120
  6394  001234                     i2l230:
  6395                           opt subtitle "HI-TECH Software Omniscient Code Generator (Lite mode) build 49521"
  6396                           
  6397  001234                     i2l1900:
  6398                           opt subtitle "HI-TECH Software Omniscient Code Generator (Lite mode) build 49521"
  6399  001234  0403               	decf	((c:i2setOutput@value)),c,w
  6400  001236  1004               	iorwf ((c:i2setOutput@value+1)),c,w
  6401                           opt subtitle "HI-TECH Software Omniscient Code Generator (Lite mode) build 49521"
  6402  001238  A4D8               	btfss	status,2
  6403  00123A  D001               	goto	i2u133_41
  6404  00123C  D001               	goto	i2u133_40
  6405  00123E                     i2u133_41:
  6406  00123E  D003               	goto	i2l1904
  6407  001240                     i2u133_40:
  6408                           opt subtitle "HI-TECH Software Omniscient Code Generator (Lite mode) build 49521"
  6409  001240                     i2l1902:
  6410  001240  5009               	movf	((c:i2setOutput@mask)),c,w	;volatile
  6411  001242  128F               	iorwf	((c:3983)),c	;volatile
  6412  001244  D027               	goto	i2l234
  6413                           opt subtitle "HI-TECH Software Omniscient Code Generator (Lite mode) build 49521"
  6414  001246                     i2l231:
  6415                           opt subtitle "HI-TECH Software Omniscient Code Generator (Lite mode) build 49521"
  6416  001246                     i2l1904:
  6417  001246  5009               	movf	((c:i2setOutput@mask)),c,w	;volatile
  6418  001248  0AFF               	xorlw	0ffh
  6419  00124A  168F               	andwf	((c:3983)),c	;volatile
  6420  00124C  D023               	goto	i2l234
  6421                           opt subtitle "HI-TECH Software Omniscient Code Generator (Lite mode) build 49521"
  6422  00124E                     i2l232:
  6423                           opt subtitle "HI-TECH Software Omniscient Code Generator (Lite mode) build 49521"
  6424                           
  6425  00124E  D022               	goto	i2l234
  6426                           opt subtitle "HI-TECH Software Omniscient Code Generator (Lite mode) build 49521"
  6427                           
  6428                           opt pagewidth 120
  6429  001250                     i2l233:
  6430                           opt subtitle "HI-TECH Software Omniscient Code Generator (Lite mode) build 49521"
  6431                           
  6432  001250  D021               	goto	i2l234
  6433                           opt subtitle "HI-TECH Software Omniscient Code Generator (Lite mode) build 49521"
  6434                           
  6435  001252                     i2l1906:
  6436                           opt subtitle "HI-TECH Software Omniscient Code Generator (Lite mode) build 49521"
  6437  001252  D020               	goto	i2l234
  6438                           opt subtitle "HI-TECH Software Omniscient Code Generator (Lite mode) build 49521"
  6439                           
  6440  001254                     i2l210:
  6441                           opt subtitle "HI-TECH Software Omniscient Code Generator (Lite mode) build 49521"
  6442  001254                     i2l1908:
  6443  001254  C007  F005         	movff	(c:i2setOutput@port),??i2_setOutput+0+0	;volatile
  6444  001258  C008  F006         	movff	(c:i2setOutput@port+1),??i2_setOutput+0+0+1	;volatile
  6445                           opt subtitle "HI-TECH Software Omniscient Code Generator (Lite mode) build 49521"
  6446                           
  6447                           opt pagewidth 120
  6448                           
  6449                           	opt lm
  6450                           
  6451                           	processor	18F65K22
  6452                           porta	equ	0F80h
  6453  00125C  5006               	movf ??i2_setOutput+0+1,c,w
  6454  00125E  0A00               	xorlw	0^0	; case 0
  6455  001260  B4D8               	skipnz
  6456  001262  D001               	goto	i2l2444
  6457  001264  D017               	goto	i2l234
  6458                           opt subtitle "HI-TECH Software Omniscient Code Generator (Lite mode) build 49521"
  6459  001266                     i2l2444:
  6460                           opt subtitle "HI-TECH Software Omniscient Code Generator (Lite mode) build 49521"
  6461                           
  6462                           opt pagewidth 120
  6463                           
  6464                           	opt lm
  6465                           
  6466                           	processor	18F65K22
  6467  001266  5005               	movf ??i2_setOutput+0+0,c,w
  6468  001268  0A00               	xorlw	0^0	; case 0
  6469  00126A  B4D8               	skipnz
  6470  00126C  D78F               	goto	i2l1864
  6471  00126E  0A01               	xorlw	1^0	; case 1
  6472  001270  B4D8               	skipnz
  6473  001272  D79A               	goto	i2l1870
  6474  001274  0A03               	xorlw	2^1	; case 2
  6475  001276  B4D8               	skipnz
  6476  001278  D7A5               	goto	i2l1876
  6477  00127A  0A01               	xorlw	3^2	; case 3
  6478  00127C  B4D8               	skipnz
  6479  00127E  D7B0               	goto	i2l1882
  6480  001280  0A07               	xorlw	4^3	; case 4
  6481  001282  B4D8               	skipnz
  6482  001284  D7BB               	goto	i2l1888
  6483  001286  0A01               	xorlw	5^4	; case 5
  6484  001288  B4D8               	skipnz
  6485  00128A  D7C6               	goto	i2l1894
  6486  00128C  0A03               	xorlw	6^5	; case 6
  6487  00128E  B4D8               	skipnz
  6488  001290  D7D1               	goto	i2l1900
  6489  001292  D000               	goto	i2l234
  6490                           opt subtitle "HI-TECH Software Omniscient Code Generator (Lite mode) build 49521"
  6491                           
  6492                           opt pagewidth 120
  6493  001294                     i2l214:
  6494                           opt subtitle "HI-TECH Software Omniscient Code Generator (Lite mode) build 49521"
  6495                           
  6496  001294                     i2l234:
  6497  001294  0012               	return
  6498                           opt subtitle "HI-TECH Software Omniscient Code Generator (Lite mode) build 49521"
  6499                           
  6500  001296                     	__end_ofi2_setOutput:
  6501                           opt subtitle "HI-TECH Software Omniscient Code Generator (Lite mode) build 49521"
  6502                           
  6503                           opt pagewidth 120
  6504                           
  6505                           	opt lm
  6506                           
  6507                           	processor	18F65K22
  6508                           porta	equ	0F80h
  6509                           portb	equ	0F81h
  6510                           portc	equ	0F82h
  6511                           portd	equ	0F83h
  6512                           porte	equ	0F84h
  6513                           lata	equ	0F89h
  6514                           latb	equ	0F8Ah
  6515                           latc	equ	0F8Bh
  6516                           latd	equ	0F8Ch
  6517                           late	equ	0F8Dh
  6518                           trisa	equ	0F92h
  6519                           trisb	equ	0F93h
  6520                           trisc	equ	0F94h
  6521                           trisd	equ	0F95h
  6522                           trise	equ	0F96h
  6523                           pie1	equ	0F9Dh
  6524                           pir1	equ	0F9Eh
  6525                           ipr1	equ	0F9Fh
  6526                           pie2	equ	0FA0h
  6527                           pir2	equ	0FA1h
  6528                           ipr2	equ	0FA2h
  6529                           t3con	equ	0FB1h
  6530                           tmr3l	equ	0FB2h
  6531                           tmr3h	equ	0FB3h
  6532                           ccp1con	equ	0FBDh
  6533                           ccpr1l	equ	0FBEh
  6534  00159C                     __ptext16:
  6535                           opt subtitle "HI-TECH Software Omniscient Code Generator (Lite mode) build 49521"
  6536                           
  6537                           opt pagewidth 120
  6538                           
  6539  0000                     	__size_ofi2_WriteTimer0	equ	__end_ofi2_WriteTimer0-i2_WriteTimer0
  6540                           opt subtitle "HI-TECH Software Omniscient Code Generator (Lite mode) build 49521"
  6541  00159C                     i2_WriteTimer0:
  6542                           opt subtitle "HI-TECH Software Omniscient Code Generator (Lite mode) build 49521"
  6543                           
  6544                           opt pagewidth 120
  6545  00159C                     i2l1912:
  6546  00159C  C001  F003         	movff	(c:i2WriteTimer0@timer0),(c:i2WriteTimer0@timer)
  6547  0015A0  C002  F004         	movff	(c:i2WriteTimer0@timer0+1),(c:i2WriteTimer0@timer+1)
  6548                           opt subtitle "HI-TECH Software Omniscient Code Generator (Lite mode) build 49521"
  6549  0015A4  C004  FFD7         	movff	0+((c:i2WriteTimer0@timer)+01h),(c:4055)	;volatile
  6550                           opt subtitle "HI-TECH Software Omniscient Code Generator (Lite mode) build 49521"
  6551  0015A8  C003  FFD6         	movff	(c:i2WriteTimer0@timer),(c:4054)	;volatile
  6552                           opt subtitle "HI-TECH Software Omniscient Code Generator (Lite mode) build 49521"
  6553                           
  6554  0015AC                     i2l313:
  6555  0015AC  0012               	return
  6556                           opt subtitle "HI-TECH Software Omniscient Code Generator (Lite mode) build 49521"
  6557                           
  6558  0015AE                     	__end_ofi2_WriteTimer0:
  6559                           opt subtitle "HI-TECH Software Omniscient Code Generator (Lite mode) build 49521"
  6560                           
  6561  0000                     __activetblptr	EQU	0
  6562                           opt subtitle "HI-TECH Software Omniscient Code Generator (Lite mode) build 49521"
  6563                           
  6564                           opt pagewidth 120
  6565                           
  6566                           	opt lm
  6567  000000                     __ptext17:
  6568  000000                     fp__Read_b_eep:
  6569                           opt subtitle "HI-TECH Software Omniscient Code Generator (Lite mode) build 49521"
  6570                           
  6571                           opt pagewidth 120
  6572                           
  6573                           	opt lm
  6574  0000                     __Lparam	EQU	__Lrparam
  6575  0000                     __Hparam	EQU	__Hrparam


Data Sizes:
    Strings     0
    Constant    0
    Data        92
    BSS         94
    Persistent  0
    Stack       0

Auto Spaces:
    Space          Size  Autos    Used
    COMRAM           95     40      64
    BANK0           160     14      68
    BANK1           256     96     204
    BANK2           256      0       0
    BANK3           256      0       0
    BANK4           256      0       0
    BANK5           256      0       0
    BANK6           256      0       0
    BANK7           256      0       0

Pointer List with Targets:

    ?_ReadADC	int  size(2) Largest target is 0


Critical Paths under _main in COMRAM

    _main->_checkButton
    _setOutputs->_setOutput
    _setOutputs->_checkButton

Critical Paths under _pwm_int in COMRAM

    _pwm_int->i2_setOutput

Critical Paths under _main in BANK0

    _main->_setOutputs

Critical Paths under _pwm_int in BANK0

    None.

Critical Paths under _main in BANK1

    None.

Critical Paths under _pwm_int in BANK1

    None.

Critical Paths under _main in BANK2

    None.

Critical Paths under _pwm_int in BANK2

    None.

Critical Paths under _main in BANK3

    None.

Critical Paths under _pwm_int in BANK3

    None.

Critical Paths under _main in BANK4

    None.

Critical Paths under _pwm_int in BANK4

    None.

Critical Paths under _main in BANK5

    None.

Critical Paths under _pwm_int in BANK5

    None.

Critical Paths under _main in BANK6

    None.

Critical Paths under _pwm_int in BANK6

    None.

Critical Paths under _main in BANK7

    None.

Critical Paths under _pwm_int in BANK7

    None.

Call Graph Tables:

 ---------------------------------------------------------------------------------
 (Depth) Function   	        Calls       Base Space   Used Autos Params    Refs
 ---------------------------------------------------------------------------------
 (0) _main                                               100   100      0    5659
                                             10 BANK0      4     4      0
                                              0 BANK1     96    96      0
                        _WriteTimer0
                         _OpenTimer0
                         _ConvertADC
                            _setupIO
                         _Read_b_eep
                          __delay_ms
                            _BusyADC
                            _ReadADC
                        _checkButton
                         _setOutputs
                        _Write_b_eep
                           _Busy_eep
 ---------------------------------------------------------------------------------
 (1) _WriteTimer0                                          4     2      2     104
                                             31 COMRAM     4     2      2
 ---------------------------------------------------------------------------------
 (1) _OpenTimer0                                           1     0      1      62
                                             31 COMRAM     1     0      1
 ---------------------------------------------------------------------------------
 (1) _ConvertADC                                           0     0      0       0
 ---------------------------------------------------------------------------------
 (1) _setupIO                                             11     7      4     753
                                             31 COMRAM     6     2      4
                                              0 BANK0      5     5      0
 ---------------------------------------------------------------------------------
 (1) _Read_b_eep                                           2     0      2      62
                                             31 COMRAM     2     0      2
 ---------------------------------------------------------------------------------
 (1) __delay_ms                                            6     4      2     136
                                             31 COMRAM     6     4      2
 ---------------------------------------------------------------------------------
 (1) _BusyADC                                              0     0      0       0
 ---------------------------------------------------------------------------------
 (1) _ReadADC                                              2     0      2       0
                                             31 COMRAM     2     0      2
 ---------------------------------------------------------------------------------
 (1) _checkButton                                          9     7      2     371
                                             31 COMRAM     9     7      2
 ---------------------------------------------------------------------------------
 (1) _setOutputs                                          10     2      8     905
                                              0 BANK0     10     2      8
                          _setOutput
                        _checkButton (ARG)
 ---------------------------------------------------------------------------------
 (2) _setOutput                                            9     5      4     750
                                             31 COMRAM     9     5      4
 ---------------------------------------------------------------------------------
 (1) _Write_b_eep                                          5     2      3     130
                                             31 COMRAM     5     2      3
 ---------------------------------------------------------------------------------
 (1) _Busy_eep                                             0     0      0       0
 ---------------------------------------------------------------------------------
 Estimated maximum stack depth 2
 ---------------------------------------------------------------------------------
 (Depth) Function   	        Calls       Base Space   Used Autos Params    Refs
 ---------------------------------------------------------------------------------
 (3) _pwm_int                                             22    22      0    2155
                                              9 COMRAM    22    22      0
                      i2_WriteTimer0
                        i2_setOutput
 ---------------------------------------------------------------------------------
 (4) i2_setOutput                                          9     5      4    1756
                                              0 COMRAM     9     5      4
 ---------------------------------------------------------------------------------
 (4) i2_WriteTimer0                                        4     2      2     221
                                              0 COMRAM     4     2      2
 ---------------------------------------------------------------------------------
 Estimated maximum stack depth 4
 ---------------------------------------------------------------------------------

 Call Graph Graphs:

 _main (ROOT)
   _WriteTimer0
   _OpenTimer0
   _ConvertADC
   _setupIO
   _Read_b_eep
   __delay_ms
   _BusyADC
   _ReadADC
   _checkButton
   _setOutputs
     _setOutput
     _checkButton (ARG)
   _Write_b_eep
   _Busy_eep

 _pwm_int (ROOT)
   i2_WriteTimer0
   i2_setOutput

 Address spaces:
Name               Size   Autos  Total    Cost      Usage
BIGRAM             7FF      0       0      21        0.0%
EEDATA             400      0       0       0        0.0%
BITBANK7           100      0       0      19        0.0%
BANK7              100      0       0      20        0.0%
BITBANK6           100      0       0      17        0.0%
BANK6              100      0       0      18        0.0%
BITBANK5           100      0       0      15        0.0%
BANK5              100      0       0      16        0.0%
BITBANK4           100      0       0      13        0.0%
BANK4              100      0       0      14        0.0%
BITBANK3           100      0       0      11        0.0%
BANK3              100      0       0      12        0.0%
BITBANK2           100      0       0       9        0.0%
BANK2              100      0       0      10        0.0%
BITBANK1           100      0       0       7        0.0%
BANK1              100     60      CC       8       79.7%
BITBANK0            A0      0       0       4        0.0%
BANK0               A0      E      44       5       42.5%
BITCOMRAM           5F      0       0       0        0.0%
COMRAM              5F     28      40       1       67.4%
BITSFR_1             0      0       0      40        0.0%
SFR_1                0      0       0      40        0.0%
BITSFR               0      0       0      40        0.0%
SFR                  0      0       0      40        0.0%
STACK                0      0       6       2        0.0%
NULL                 0      0       0       0        0.0%
ABS                  0      0     150       6        0.0%
DATA                 0      0     156       3        0.0%
CODE                 0      0       0       0        0.0%


Microchip Technology PIC18 Macro Assembler V1.12 build 49521 
Symbol Table                                                                                   Mon Sep  2 18:03:43 2013

    __end_ofi2_setOutput 1296              __CFG_BORV$0 000000             __CFG_CP0$OFF 000000  
           __CFG_CP1$OFF 000000             __CFG_CP2$OFF 000000             __CFG_CP3$OFF 000000  
                    l200 12BC                      l201 12CE                      l210 113E  
                    l202 12E0                      l130 0528                      l211 1076  
                    l203 12F2                      l131 06C8                      l220 10C8  
                    l212 1088                      l204 1304                      l140 0852  
                    l132 060A                      l221 10CA                      l213 1090  
                    l205 1316                      l141 09EA                      l133 05D6  
                    l125 0342                      l214 117E                      l230 111E  
                    l222 10DC                      l206 1328                      l150 0EF8  
                    l142 095A                      l134 06A8                      l126 0498  
                    l231 1130                      l223 10E4                      l215 1092  
                    l207 1370                      l151 0D02                      l143 08F4  
                    l135 0674                      l127 049C                      l232 1138  
                    l224 10E6                      l216 10A4                      l304 1556  
                    l152 0D00                      l136 09EC                      l144 0926  
                    l128 0500                      l233 113A                      l225 10F8  
                    l217 10AC                      l305 1558                      l313 159A  
                    l145 0EFC                      l153 0C9A                      l137 082A  
                    l129 04FA                      l226 1100                      l218 10AE  
                    l234 117E                      l242 15CE                      l162 1442  
                    l170 1024                      l306 155A                      l154 0CCC  
                    l146 0B98                      l138 0728                      l227 1102  
                    l219 10C0                      l163 1402                      l171 0F24  
                    l155 0E3E                      l147 0A30                      l139 081C  
                    l260 15B0                      l228 1114                      l164 1422  
                    l180 0F8E                      l172 0F3A                      l156 0D9E  
                    l148 0B8A                      l261 15BA                      l229 111C  
                    l237 14A8                      l165 143C                      l181 0F90  
                    l173 0F46                      l157 0E3C                      l149 0BC0  
                    l262 15BA                      l254 15C6                      l166 1454  
                    l174 1068                      l190 0FFC                      l182 0FA6  
                    l158 0F00                      l167 1454                      l191 1012  
                    l183 0FB2                      l175 0F48                      l247 15D2  
                    l159 0F00                      l192 101E                      l184 0FB4  
                    l176 0F5E                      l273 1574                      l193 1020  
                    l185 0FCA                      l177 0F6A                      l290 14E4  
                    l186 0FD6                      l178 0F6C                      l194 1068  
                    l259 15B0                      l291 14F0                      l187 0FD8  
                    l179 0F82                      l188 0FEE                      l197 132C  
                    l189 0FFA                      l198 12AA                      l199 136C  
                    l288 14DC                      l289 14DC             __CFG_CPB$OFF 000000  
         i2setOutput@row 0001             __CFG_CPD$OFF 000000     __size_of_WriteTimer0 0012  
   __size_of_Write_b_eep 0048                      wreg 000FE8        main@buttonEventUp 0112  
                   l2000 109E                     l2010 10CA                     l2002 10A4  
                   l2020 10F8                     l2012 10D6                     l2004 10AE  
                   l2100 0526                     l2030 112A                     l2022 1102  
                   l2014 10DC                     l2006 10BA                     l2110 0642  
                   l2102 0528                     l2032 1130                     l2024 110E  
                   l2016 10E6                     l2008 10C0                     l2200 0D3A  
                   l2120 06F4                     l2112 06A8                     l2104 056E  
                   l2040 0220                     l2034 113C                     l2026 1114  
                   l2018 10F2                     l2210 153A                     l2202 0DD6  
                   l2130 0798                     l2122 0700                     l2114 06B0  
                   l2106 05A4                     l2050 02B2                     l2042 027A  
                   l2028 111E                     l2036 113E                     l2300 1420  
                   l2220 1552                     l2212 1540                     l2204 0E3E  
                   l2140 0838                     l2132 07CA                     l2124 070E  
                   l2108 060A                     l2116 06C8                     l2060 02D2  
                   l2052 02BA                     l2044 0288                     l2310 15C8  
                   l2302 1422                     l2230 0F30                     l2222 15D0  
                   l2214 1544                     l2206 0ED6                     l2150 08F4  
                   l2142 0850                     l2134 07FC                     l2126 0726  
                   l2118 06E4                     l2070 0306                     l2062 02D6  
                   l2054 02C2                     l2046 0296                     l2320 12A4  
                   l2312 15CE                     l2304 1426                     l2240 0F6C  
                   l2232 0F3A                     l2224 0F04                     l2216 1548  
                   l2208 0EDE                     l2160 09FC                     l2152 095A  
                   l2144 0852                     l2136 0804                     l2128 0728  
                   l2080 047A                     l2072 031A                     l2064 02DA  
                   l2056 02CA                     l2048 02A2                     l2330 12F2  
                   l2322 12AA                     l2314 15BC                     l2306 143C  
                   l2250 0FA6                     l2242 0F78                     l2234 0F48  
                   l2226 0F1E                     l2218 154A                     l2170 0A6A  
                   l2162 0A08                     l2154 09CA                     l2146 088A  
                   l2138 081C                     l2090 04E0                     l2082 0482  
                   l2074 0328                     l2066 02DE                     l2058 02CE  
                   l2332 1304                     l2324 12BC                     l2340 136C  
                   l2316 15C6                     l2308 1442                     l2260 0FE4  
                   l2252 0FB4                     l2244 0F82                     l2236 0F54  
                   l2228 0F24                     l2180 0B72                     l2172 0A6E  
                   l2164 0A16                     l2156 09D2                     l2148 08C0  
                   l2092 04F0                     l2084 049C                     l2076 0340  
                   l2068 02F2                     l2350 1494                     l2342 1370  
                   l2334 1316                     l2326 12CE                     l2318 1296  
                   l2270 1022                     l2262 0FEE                     l2254 0FC0  
                   l2246 0F90                     l2238 0F5E                     l2190 0BF8  
                   l2174 0B06                     l2166 0A2E                     l2182 0B8A  
                   l2158 09EC                     l2094 04FA                     l2086 04B6  
                   l2078 0342                     l2360 14C0                     l2352 14AA  
                   l2440 133E                     l2336 132A                     l2328 12E0  
                   l2280 155C                     l2264 0FFC                     l2256 0FCA  
                   l2248 0F9C                     l2272 1024                     l2192 0C30  
                   l2184 0BA6                     l2176 0B38                     l2168 0A30  
                   l2088 04CC                     l2096 0500                     l2370 14D0  
                   l2362 14C2                     l2354 14B2                     l2442 1150  
                   l2346 1456                     l2338 132C                     l2290 1570  
                   l2282 1562                     l2266 1008                     l2258 0FD8  
                   l2194 0C66                     l2186 0BBE                     l2178 0B6A  
                   l2098 050E                     l2372 14D4                     l2364 14C4  
                   l2356 14B8                     l2348 145E                     l2292 1574  
                   l2284 1566                     l2268 1012                     l2196 0C9A  
                   l2188 0BC0                     l2374 14D8                     l2366 14C6  
                   l2358 14BC                     l2294 13F8                     l2286 1568  
                   l2438 103A                     l2198 0D02                     l2376 15AE  
                   l2368 14CE                     l2296 1402                     l2288 156A  
                   l2298 140A                     l1990 1070                     l1992 1076  
                   l1994 1082                     l1986 158A                     l1996 1088  
                   l1988 106A                     l1998 1092          i2setOutput@mask 0009  
                   u1400 1082                     u1401 1080                     u1410 109E  
                   u1411 109C                     u1420 10BA                     u1421 10B8  
                   u1501 0260                     _LATA 000F89                     u1430 10D6  
                   _LATB 000F8A                     u1431 10D4                     u1511 0272  
                   _LATC 000F8B                     u1440 10F2                     u1600 06C6  
                   u1520 033E          i2setOutput@port 0007                     _LATD 000F8C  
                   u1441 10F0                     u1601 06C4                     u1521 033C  
                   _LATE 000F8D                     u1450 110E                     u1610 06E4  
                   u1530 0498                     _LATF 000F8E                     u1451 110C  
                   u1611 06E2                     u1531 0496                     _LATG 000F8F  
                   u1460 112A                     u1700 0A2C                     u1620 06F4  
                   u1540 04B6                     u1461 1128                     u1701 0A2A  
                   u1621 06F2                     u1541 04B4                     u1710 0B88  
                   u1630 0724                     u1550 04F0                     u1711 0B86  
                   u1631 0722                     u1551 04EE                     u1471 022A  
                   u1800 0F30                     u1720 0BBC                     u1640 081A  
                   u1560 0524                     u1801 0F2E                     u1721 0BBA  
                   u1641 0818                     u1561 0522                     u1481 023C  
                   u1810 0F54                     u1730 0BF8                     u1650 084E  
                   u1570 056E                     u1811 0F52                     u1731 0BF6  
                   u1651 084C                     u1571 056C                     u1491 024E  
                   u1900 14E4                     u1820 0F78                     u1740 0C30  
                   u1660 088A                     u1580 05A4                     u1901 14E2  
                   u1821 0F76                     u1741 0C2E                     u1661 0888  
                   u1581 05A2                     u1830 0F9C                     u1750 0C66  
                   u1670 08C0                     u1590 0642                     u1831 0F9A  
                   u1751 0C64                     u1671 08BE                     u1591 0640  
                   u1920 15B8                     u1840 0FC0                     u1760 0D3A  
                   u1680 09E8                     u1921 15B6                     u1841 0FBE  
                   u1761 0D38                     u1681 09E6                     u1850 0FE4  
                   u1770 0DD6                     u1690 09FC                     u1915 14EC  
                   u1851 0FE2                     u1771 0DD4                     u1691 09FA  
                   u1916 14EE                     u1860 1008                     u1780 0EF4  
                   u1861 1006                     u1781 0EF2                     u1870 141E  
                   u1790 1552                     u1871 141C                     u1791 1550  
                   u1880 143A                     u1881 1438                     u1890 1452  
                   u1891 1450                     _main 0220                     fsr0h 000FEA  
                   fsr1h 000FE2                     fsr0l 000FE9                     fsr2h 000FDA  
                   fsr1l 000FE1                     indf2 000FDF                     fsr2l 000FD9  
 __size_ofi2_WriteTimer0 0012                     pclat 000FFA                     prodh 000FF4  
                   prodl 000FF3                     start 021C            __CFG_IESO$OFF 000000  
          __CFG_MCLRE$ON 000000          __end_of_BusyADC 15D0          __end_of_ReadADC 15C8  
          __CFG_RETEN$ON 000000                    ?_main 0001                    _EEADR 000F62  
                  _T0CON 000FD5         i2setOutput@value 0003                    i2l110 013A  
                  i2l111 01BA                    i2l112 01E2                    i2l105 01E2  
                  i2l210 1254                    i2l106 0080                    i2l211 118C  
                  i2l107 0092                    i2l220 11DE                    i2l212 119E  
                  i2l108 00AE                    i2l221 11E0                    i2l213 11A6  
                  i2l109 01D0                    i2l214 1294                    i2l230 1234  
                  i2l222 11F2                    i2l231 1246                    i2l223 11FA  
                  i2l215 11A8                    i2l232 124E                    i2l224 11FC  
                  i2l216 11BA                    i2l313 15AC                    i2l233 1250  
                  i2l225 120E                    i2l217 11C2                    i2l226 1216  
                  i2l218 11C4                    i2l234 1294                    i2l227 1218  
                  i2l219 11D6                    i2l228 122A                    i2l229 1232  
           __delay_ms@ms 0020                    _TMR0H 000FD7                    _TMR0L 000FD6  
                  _PORTA 000F80                    _PORTB 000F81                    _PORTC 000F82  
                  _PORTD 000F83                    _PORTE 000F84                    _PORTF 000F85  
                  _PORTG 000F86                    _TRISA 000F92                    _TRISB 000F93  
                  _TRISC 000F94                    _TRISD 000F95                    _TRISE 000F96  
                  _TRISF 000F97                    _TRISG 000F98     __size_of_checkButton 00DC  
          __CFG_WRT0$OFF 000000            __CFG_WRT1$OFF 000000            __CFG_WRT2$OFF 000000  
          __CFG_WRT3$OFF 000000           __CFG_EBRT0$OFF 000000           __CFG_EBRT1$OFF 000000  
         __CFG_EBRT2$OFF 000000           __CFG_EBRT3$OFF 000000           __CFG_FCMEN$OFF 000000  
          __CFG_WRTB$OFF 000000            __CFG_WRTC$OFF 000000            __CFG_WRTD$OFF 000000  
         Read_b_eep@badd 0020           __CFG_EBRTB$OFF 000000   Write_b_eep@GIE_BIT_VAL 0024  
                  main@i 015E               _ConvertADC 15D0                    tablat 000FF5  
          main@adcResult 015A          __end_of_setupIO 106A          __end_of_pwm_int 021C  
                  status 000FD8      main@buttonEventDown 0148              i2_setOutput 1180  
        __initialization 1372             __end_of_main 0F04               _Read_b_eep 155C  
       __end_of_Busy_eep 15BC                   ??_main 00A0            i2_WriteTimer0 159C  
          __activetblptr 000000                   _ADCON0 000FC2                   _ADCON1 000FC1  
                 _ADCON2 000FC0                   _ADRESH 000FC4                   _EEADRH 000F63  
                 _ADRESL 000FC3                   _EEDATA 000F61                   _EECON2 000F7E  
                 _ANCON0 000F25                   _ANCON1 000F24                   _ANCON2 000F23  
        __CFG_BBSIZ$BB2K 000000               _OpenTimer0 153A                   i2l2444 1266  
                 i2l1900 1234                   i2l1902 1240           __CFG_WDTEN$OFF 000000  
                 i2l1912 159C                   i2l1904 1246                   i2l1920 0052  
                 i2l1906 1252                   i2l1930 00AC                   i2l1922 005E  
                 i2l1914 0040                   i2l1908 1254                   i2l1860 1180  
                 i2l1940 01BE                   i2l1932 00AE                   i2l1924 0080  
                 i2l1916 0048                   i2l1870 11A8                   i2l1862 1186  
                 i2l1934 00BA                   i2l1942 01D0                   i2l1926 0092  
                 i2l1918 0050                   i2l1880 11D6                   i2l1872 11B4  
                 i2l1864 118C                   i2l1944 01E0                   i2l1936 013A  
                 i2l1928 009A                   i2l1890 1208                   i2l1882 11E0  
                 i2l1874 11BA                   i2l1866 1198                   i2l1938 01BA  
                 i2l1892 120E                   i2l1884 11EC                   i2l1876 11C4  
                 i2l1868 119E                   i2l1894 1218                   i2l1886 11F2  
                 i2l1878 11D0                   i2l1896 1224                   i2l1888 11FC  
                 i2l1898 122A                   _TMR0IE 007F95                   _TMR0IF 007F92  
              ??_BusyADC 0020                ??_ReadADC 0022           __CFG_XINST$OFF 000000  
         __CFG_STVREN$ON 000000         OpenTimer0@config 0020                   clear_0 1378  
                 clear_1 1384           ?i2_WriteTimer0 0001             __pdataCOMRAM 0029  
                 tblptrh 000FF7                   tblptrl 000FF6                   tblptru 000FF8  
              ??_setupIO 0024       setOutputs@ledIndex 0098                ??_pwm_int 000A  
     setOutputs@alwayson 0096              ?_ConvertADC 0001               __accesstop 0060  
__end_of__initialization 13F2           setOutput@value 0022       __size_of__delay_ms 005E  
         __pcstackCOMRAM 0001             __pidataBANK0 14F2             __pidataBANK1 1516  
            ?_Read_b_eep 0020               __pbssBANK0 0084               __pbssBANK1 0160  
            ?_OpenTimer0 0020          __CFG_PLLCFG$OFF 000000                ?_Busy_eep 0001  
         _outputPWMState 003F          ??i2_WriteTimer0 0003         WriteTimer0@timer 0022  
          ??_WriteTimer0 0022      __size_of_ConvertADC 0004       __size_of_setOutput 0116  
          ??_Write_b_eep 0023        __end_of__delay_ms 1456         setupIO@direction 0022  
         main@buttonDown 0100      __size_of_Read_b_eep 001A               ??_Busy_eep 0020  
                _BusyADC 15C8                  _ReadADC 15BC      i2WriteTimer0@timer0 0001  
        __CFG_PWRTEN$OFF 000000                  __Hparam 0000             ?i2_setOutput 0001  
                __Lparam 0000               _buttonMask 01A8                  __pcinit 1372  
          ??_checkButton 0022                  __ramtop 0800      __size_of_OpenTimer0 0022  
                __ptext0 0220                  __ptext1 158A                  __ptext2 153A  
                __ptext3 15D0                  __ptext4 0F04                  __ptext5 155C  
                __ptext6 13F8                  __ptext7 15C8                  __ptext8 15BC  
                __ptext9 1296                _T0CONbits 000FD5         _outputHighLength 003B  
      __CFG_MSSPMSK$MSK7 000000           checkButton@row 0020      __end_of_WriteTimer0 159C  
    __end_of_Write_b_eep 14F2                  _setupIO 0F04                  _pwm_int 0008  
   end_of_initialization 13F2        __end_of_setOutput 1180               _setOutputs 1456  
                postdec1 000FE5                  postdec2 000FDD                  postinc0 000FEE  
                postinc1 000FE6                  postinc2 000FDE              setupIO@mask 009A  
            setupIO@port 0098         __CFG_FOSC$INTIO2 000000      __end_of_checkButton 1372  
           ??_ConvertADC 0020               _outputFlag 0084          setOutputs@relay 009A  
        setOutputs@value 009C             ??_Read_b_eep 0022              __delay_ms@i 0022  
            __delay_ms@j 0024            __pidataCOMRAM 1576              _WriteTimer0 158A  
     __end_of_ConvertADC 15D4              _Write_b_eep 14AA      start_initialization 1372  
           ??_OpenTimer0 0021       __end_of_Read_b_eep 1576              ?_setOutputs 0096  
      __size_of_Busy_eep 000E     __size_ofi2_setOutput 0116              __pdataBANK0 0060  
            __pdataBANK1 01A8              _checkButton 1296       __end_of_OpenTimer0 155C  
          setOutput@mask 0028            setOutput@port 0026              __pbssCOMRAM 003D  
          __pcstackBANK0 0096            __pcstackBANK1 0100                __delay_ms 13F8  
               ?_BusyADC 0001                 ?_ReadADC 0020        __CFG_CCP2MX$PORTC 000000  
              __pintcode 0008    __end_ofi2_WriteTimer0 15AE        WriteTimer0@timer0 0020  
     i2WriteTimer0@timer 0003      __size_of_setOutputs 0054                 ?_setupIO 0020  
             ?__delay_ms 0020                 ?_pwm_int 0001                _relayMask 0060  
     _outputAlwaysOnFlag 003D         checkButton@state 0026                _setOutput 106A  
               i2u130_40 11EC                 i2u130_41 11EA                 i2u131_40 1208  
               i2u131_41 1206                 i2u132_40 1224                 i2u132_41 1222  
               i2u133_40 1240                 i2u133_41 123E                 i2u134_40 0048  
               i2u134_41 0046                 i2u127_40 1198                 i2u135_40 0050  
               i2u127_41 1196                 i2u135_41 004E                 i2u128_40 11B4  
               i2u136_40 005E                 i2u128_41 11B2                 i2u136_41 005C  
               i2u129_40 11D0                 i2u137_40 00AA                 i2u129_41 11CE  
               i2u137_41 00A8                 i2u138_40 00BA                 i2u138_41 00B8  
               i2u139_40 01CE                 i2u139_41 01CC              _leftLEDMask 0029  
              main@F8001 01BA                main@F8003 0196                main@F7995 0160  
              main@F7997 0172                main@F7999 0184               setupIO@row 0020  
             _ADCON0bits 000FC2         __CFG_SOSCSEL$DIG 000000            fp__Read_b_eep 0000  
        main@buttonLatch 0136          Write_b_eep@badd 0020          Write_b_eep@bdat 0022  
        main@buttonState 0124                copy_data0 13A6                copy_data1 13C6  
              copy_data2 13E6                 _Busy_eep 15AE             _rightLEDMask 0072  
             _EECON1bits 000F7F         __size_of_BusyADC 0008         __size_of_ReadADC 000C  
               __Hrparam 0000               ?_setOutput 0020                 __Lrparam 0000  
     __CFG_BOREN$SBORDIS 000000             setOutput@row 0020             ?_WriteTimer0 0020  
           ?_Write_b_eep 0020              ??__delay_ms 0022                 __ptext10 1456  
               __ptext11 106A                 __ptext12 14AA                 __ptext13 15AE  
               __ptext15 1180                 __ptext16 159C                 __ptext17 0000  
       __size_of_setupIO 0166         __size_of_pwm_int 0214         main@programState 015C  
          __size_of_main 0CE4             ??_setOutputs 009E          checkButton@mask 0028  
    __CFG_RTCOSC$SOSCREF 000000          checkButton@port 0024      __CFG_INTOSCSEL$HIGH 000000  
           ?_checkButton 0020               _INTCONbits 000FF2       __end_of_setOutputs 14AA  
               intlevel2 0000            ??i2_setOutput 0005              ??_setOutput 0024  
     __CFG_WDTPS$1048576 000000                 pwm_int@i 001E             setupIO@state 0096  
    __CFG_BORPWR$ZPBORMV 000000  
