

Microchip Technology PIC18 LITE Macro Assembler V1.12 build 49521 
                                                                                               Tue Apr  9 00:51:30 2013

HI-TECH Software Omniscient Code Generator (Lite mode) build 49521
     1  0000                     opt subtitle "HI-TECH Software Omniscient Code Generator (Lite mode) build 49521"
     2                           opt subtitle "HI-TECH Software Omniscient Code Generator (Lite mode) build 49521"
     3                           
     4                           opt pagewidth 120
     5                           
     6                           	opt lm
     7                           
     8  0000                     porta	equ	0F80h
     9  0000                     portb	equ	0F81h
    10  0000                     portc	equ	0F82h
    11  0000                     portd	equ	0F83h
    12  0000                     porte	equ	0F84h
    13  0000                     lata	equ	0F89h
    14  0000                     latb	equ	0F8Ah
    15  0000                     latc	equ	0F8Bh
    16  0000                     latd	equ	0F8Ch
    17  0000                     late	equ	0F8Dh
    18  0000                     trisa	equ	0F92h
    19  0000                     trisb	equ	0F93h
    20  0000                     trisc	equ	0F94h
    21  0000                     trisd	equ	0F95h
    22  0000                     trise	equ	0F96h
    23  0000                     pie1	equ	0F9Dh
    24  0000                     pir1	equ	0F9Eh
    25  0000                     ipr1	equ	0F9Fh
    26  0000                     pie2	equ	0FA0h
    27  0000                     pir2	equ	0FA1h
    28  0000                     ipr2	equ	0FA2h
    29  0000                     t3con	equ	0FB1h
    30  0000                     tmr3l	equ	0FB2h
    31  0000                     tmr3h	equ	0FB3h
    32  0000                     ccp1con	equ	0FBDh
    33  0000                     ccpr1l	equ	0FBEh
    34  0000                     ccpr1h	equ	0FBFh
    35  0000                     adcon1	equ	0FC1h
    36  0000                     adcon0	equ	0FC2h
    37  0000                     adresl	equ	0FC3h
    38  0000                     adresh	equ	0FC4h
    39  0000                     sspcon2	equ	0FC5h
    40  0000                     sspcon1	equ	0FC6h
    41  0000                     sspstat	equ	0FC7h
    42  0000                     sspadd	equ	0FC8h
    43  0000                     sspbuf	equ	0FC9h
    44  0000                     t2con	equ	0FCAh
    45  0000                     pr2	equ	0FCBh
    46  0000                     tmr2	equ	0FCCh
    47  0000                     t1con	equ	0FCDh
    48  0000                     tmr1l	equ	0FCEh
    49  0000                     tmr1h	equ	0FCFh
    50  0000                     rcon	equ	0FD0h
    51  0000                     wdtcon	equ	0FD1h
    52  0000                     lvdcon	equ	0FD2h
    53  0000                     osccon	equ	0FD3h
    54  0000                     t0con	equ	0FD5h
    55  0000                     tmr0l	equ	0FD6h
    56  0000                     tmr0h	equ	0FD7h
    57  0000                     status	equ	0FD8h
    58  0000                     fsr2	equ	0FD9h
    59  0000                     fsr2l	equ	0FD9h
    60  0000                     fsr2h	equ	0FDAh
    61  0000                     plusw2	equ	0FDBh
    62  0000                     preinc2	equ	0FDCh
    63  0000                     postdec2	equ	0FDDh
    64  0000                     postinc2	equ	0FDEh
    65  0000                     indf2	equ	0FDFh
    66  0000                     bsr	equ	0FE0h
    67  0000                     fsr1	equ	0FE1h
    68  0000                     fsr1l	equ	0FE1h
    69  0000                     fsr1h	equ	0FE2h
    70  0000                     plusw1	equ	0FE3h
    71  0000                     preinc1	equ	0FE4h
    72  0000                     postdec1	equ	0FE5h
    73  0000                     postinc1	equ	0FE6h
    74  0000                     indf1	equ	0FE7h
    75  0000                     wreg	equ	0FE8h
    76  0000                     fsr0	equ	0FE9h
    77  0000                     fsr0l	equ	0FE9h
    78  0000                     fsr0h	equ	0FEAh
    79  0000                     plusw0	equ	0FEBh
    80  0000                     preinc0	equ	0FECh
    81  0000                     postdec0	equ	0FEDh
    82  0000                     postinc0	equ	0FEEh
    83  0000                     indf0	equ	0FEFh
    84  0000                     intcon3	equ	0FF0h
    85  0000                     intcon2	equ	0FF1h
    86  0000                     intcon	equ	0FF2h
    87  0000                     prod	equ	0FF3h
    88  0000                     prodl	equ	0FF3h
    89  0000                     prodh	equ	0FF4h
    90  0000                     tablat	equ	0FF5h
    91  0000                     tblptr	equ	0FF6h
    92  0000                     tblptrl	equ	0FF6h
    93  0000                     tblptrh	equ	0FF7h
    94  0000                     tblptru	equ	0FF8h
    95  0000                     pcl	equ	0FF9h
    96  0000                     pclat	equ	0FFAh
    97  0000                     pclath	equ	0FFAh
    98  0000                     pclatu	equ	0FFBh
    99  0000                     stkptr	equ	0FFCh
   100  0000                     tosl	equ	0FFDh
   101  0000                     tosh	equ	0FFEh
   102  0000                     tosu	equ	0FFFh
   103                           opt subtitle "HI-TECH Software Omniscient Code Generator (Lite mode) build 49521"
   104                           
   105  0000                     	endm
   106                           opt subtitle "HI-TECH Software Omniscient Code Generator (Lite mode) build 49521"
   107                           
   108                           opt pagewidth 120
   109  0000                     PMD3 equ 0F16h ;# 
   110                           opt subtitle "HI-TECH Software Omniscient Code Generator (Lite mode) build 49521"
   111  0000                     PMD2 equ 0F17h ;# 
   112                           opt subtitle "HI-TECH Software Omniscient Code Generator (Lite mode) build 49521"
   113  0000                     PMD1 equ 0F18h ;# 
   114                           opt subtitle "HI-TECH Software Omniscient Code Generator (Lite mode) build 49521"
   115  0000                     PMD0 equ 0F19h ;# 
   116                           opt subtitle "HI-TECH Software Omniscient Code Generator (Lite mode) build 49521"
   117  0000                     PSTR3CON equ 0F1Ah ;# 
   118                           opt subtitle "HI-TECH Software Omniscient Code Generator (Lite mode) build 49521"
   119  0000                     PSTR2CON equ 0F1Bh ;# 
   120                           opt subtitle "HI-TECH Software Omniscient Code Generator (Lite mode) build 49521"
   121  0000                     TXREG2 equ 0F1Ch ;# 
   122                           opt subtitle "HI-TECH Software Omniscient Code Generator (Lite mode) build 49521"
   123  0000                     RCREG2 equ 0F1Dh ;# 
   124                           opt subtitle "HI-TECH Software Omniscient Code Generator (Lite mode) build 49521"
   125  0000                     SPBRG2 equ 0F1Eh ;# 
   126                           opt subtitle "HI-TECH Software Omniscient Code Generator (Lite mode) build 49521"
   127  0000                     SPBRGH2 equ 0F1Fh ;# 
   128                           opt subtitle "HI-TECH Software Omniscient Code Generator (Lite mode) build 49521"
   129  0000                     BAUDCON2 equ 0F20h ;# 
   130                           opt subtitle "HI-TECH Software Omniscient Code Generator (Lite mode) build 49521"
   131  0000                     TXSTA2 equ 0F21h ;# 
   132                           opt subtitle "HI-TECH Software Omniscient Code Generator (Lite mode) build 49521"
   133  0000                     RCSTA2 equ 0F22h ;# 
   134                           opt subtitle "HI-TECH Software Omniscient Code Generator (Lite mode) build 49521"
   135  0000                     ANCON2 equ 0F23h ;# 
   136                           opt subtitle "HI-TECH Software Omniscient Code Generator (Lite mode) build 49521"
   137  0000                     ANCON1 equ 0F24h ;# 
   138                           opt subtitle "HI-TECH Software Omniscient Code Generator (Lite mode) build 49521"
   139  0000                     ANCON0 equ 0F25h ;# 
   140                           opt subtitle "HI-TECH Software Omniscient Code Generator (Lite mode) build 49521"
   141  0000                     ODCON3 equ 0F27h ;# 
   142                           opt subtitle "HI-TECH Software Omniscient Code Generator (Lite mode) build 49521"
   143  0000                     ODCON2 equ 0F28h ;# 
   144                           opt subtitle "HI-TECH Software Omniscient Code Generator (Lite mode) build 49521"
   145  0000                     ODCON1 equ 0F29h ;# 
   146                           opt subtitle "HI-TECH Software Omniscient Code Generator (Lite mode) build 49521"
   147  0000                     REFOCON equ 0F2Ah ;# 
   148                           opt subtitle "HI-TECH Software Omniscient Code Generator (Lite mode) build 49521"
   149  0000                     CCPTMRS2 equ 0F2Bh ;# 
   150                           opt subtitle "HI-TECH Software Omniscient Code Generator (Lite mode) build 49521"
   151  0000                     CCPTMRS1 equ 0F2Ch ;# 
   152                           opt subtitle "HI-TECH Software Omniscient Code Generator (Lite mode) build 49521"
   153  0000                     CCPTMRS0 equ 0F2Dh ;# 
   154                           opt subtitle "HI-TECH Software Omniscient Code Generator (Lite mode) build 49521"
   155  0000                     CM3CON equ 0F2Eh ;# 
   156                           opt subtitle "HI-TECH Software Omniscient Code Generator (Lite mode) build 49521"
   157  0000                     CM3CON1 equ 0F2Eh ;# 
   158                           opt subtitle "HI-TECH Software Omniscient Code Generator (Lite mode) build 49521"
   159  0000                     CM2CON equ 0F2Fh ;# 
   160                           opt subtitle "HI-TECH Software Omniscient Code Generator (Lite mode) build 49521"
   161  0000                     CM2CON1 equ 0F2Fh ;# 
   162                           opt subtitle "HI-TECH Software Omniscient Code Generator (Lite mode) build 49521"
   163  0000                     T8CON equ 0F36h ;# 
   164                           opt subtitle "HI-TECH Software Omniscient Code Generator (Lite mode) build 49521"
   165  0000                     PR8 equ 0F37h ;# 
   166                           opt subtitle "HI-TECH Software Omniscient Code Generator (Lite mode) build 49521"
   167  0000                     TMR8 equ 0F38h ;# 
   168                           opt subtitle "HI-TECH Software Omniscient Code Generator (Lite mode) build 49521"
   169  0000                     T6CON equ 0F39h ;# 
   170                           opt subtitle "HI-TECH Software Omniscient Code Generator (Lite mode) build 49521"
   171  0000                     PR6 equ 0F3Ah ;# 
   172                           opt subtitle "HI-TECH Software Omniscient Code Generator (Lite mode) build 49521"
   173  0000                     TMR6 equ 0F3Bh ;# 
   174                           opt subtitle "HI-TECH Software Omniscient Code Generator (Lite mode) build 49521"
   175  0000                     CCP8CON equ 0F46h ;# 
   176                           opt subtitle "HI-TECH Software Omniscient Code Generator (Lite mode) build 49521"
   177  0000                     CCPR8 equ 0F47h ;# 
   178                           opt subtitle "HI-TECH Software Omniscient Code Generator (Lite mode) build 49521"
   179  0000                     CCPR8L equ 0F47h ;# 
   180                           opt subtitle "HI-TECH Software Omniscient Code Generator (Lite mode) build 49521"
   181  0000                     CCPR8H equ 0F48h ;# 
   182                           opt subtitle "HI-TECH Software Omniscient Code Generator (Lite mode) build 49521"
   183  0000                     CCP3CON equ 0F49h ;# 
   184                           opt subtitle "HI-TECH Software Omniscient Code Generator (Lite mode) build 49521"
   185  0000                     CCPR3 equ 0F4Ah ;# 
   186                           opt subtitle "HI-TECH Software Omniscient Code Generator (Lite mode) build 49521"
   187  0000                     CCPR3L equ 0F4Ah ;# 
   188                           opt subtitle "HI-TECH Software Omniscient Code Generator (Lite mode) build 49521"
   189  0000                     CCPR3H equ 0F4Bh ;# 
   190                           opt subtitle "HI-TECH Software Omniscient Code Generator (Lite mode) build 49521"
   191  0000                     ECCP3DEL equ 0F4Ch ;# 
   192                           opt subtitle "HI-TECH Software Omniscient Code Generator (Lite mode) build 49521"
   193  0000                     ECCP3AS equ 0F4Dh ;# 
   194                           opt subtitle "HI-TECH Software Omniscient Code Generator (Lite mode) build 49521"
   195  0000                     CCP2CON equ 0F4Eh ;# 
   196                           opt subtitle "HI-TECH Software Omniscient Code Generator (Lite mode) build 49521"
   197  0000                     ECCP2CON equ 0F4Eh ;# 
   198                           opt subtitle "HI-TECH Software Omniscient Code Generator (Lite mode) build 49521"
   199  0000                     CCPR2 equ 0F4Fh ;# 
   200                           opt subtitle "HI-TECH Software Omniscient Code Generator (Lite mode) build 49521"
   201  0000                     CCPR2L equ 0F4Fh ;# 
   202                           opt subtitle "HI-TECH Software Omniscient Code Generator (Lite mode) build 49521"
   203  0000                     CCPR2H equ 0F50h ;# 
   204                           opt subtitle "HI-TECH Software Omniscient Code Generator (Lite mode) build 49521"
   205  0000                     ECCP2DEL equ 0F51h ;# 
   206                           opt subtitle "HI-TECH Software Omniscient Code Generator (Lite mode) build 49521"
   207  0000                     PWM2CON equ 0F51h ;# 
   208                           opt subtitle "HI-TECH Software Omniscient Code Generator (Lite mode) build 49521"
   209  0000                     ECCP2AS equ 0F52h ;# 
   210                           opt subtitle "HI-TECH Software Omniscient Code Generator (Lite mode) build 49521"
   211  0000                     PADCFG1 equ 0F53h ;# 
   212                           opt subtitle "HI-TECH Software Omniscient Code Generator (Lite mode) build 49521"
   213  0000                     CM1CON equ 0F54h ;# 
   214                           opt subtitle "HI-TECH Software Omniscient Code Generator (Lite mode) build 49521"
   215  0000                     CM1CON1 equ 0F54h ;# 
   216                           opt subtitle "HI-TECH Software Omniscient Code Generator (Lite mode) build 49521"
   217  0000                     CTMUICON equ 0F55h ;# 
   218                           opt subtitle "HI-TECH Software Omniscient Code Generator (Lite mode) build 49521"
   219  0000                     CTMUCONL equ 0F56h ;# 
   220                           opt subtitle "HI-TECH Software Omniscient Code Generator (Lite mode) build 49521"
   221  0000                     CTMUCONH equ 0F57h ;# 
   222                           opt subtitle "HI-TECH Software Omniscient Code Generator (Lite mode) build 49521"
   223  0000                     ALRMVAL equ 0F58h ;# 
   224                           opt subtitle "HI-TECH Software Omniscient Code Generator (Lite mode) build 49521"
   225  0000                     ALRMVALL equ 0F58h ;# 
   226                           opt subtitle "HI-TECH Software Omniscient Code Generator (Lite mode) build 49521"
   227  0000                     ALRMVALH equ 0F59h ;# 
   228                           opt subtitle "HI-TECH Software Omniscient Code Generator (Lite mode) build 49521"
   229  0000                     ALRMRPT equ 0F5Ah ;# 
   230                           opt subtitle "HI-TECH Software Omniscient Code Generator (Lite mode) build 49521"
   231  0000                     ALRMCFG equ 0F5Bh ;# 
   232                           opt subtitle "HI-TECH Software Omniscient Code Generator (Lite mode) build 49521"
   233  0000                     RTCVAL equ 0F5Ch ;# 
   234                           opt subtitle "HI-TECH Software Omniscient Code Generator (Lite mode) build 49521"
   235  0000                     RTCVALL equ 0F5Ch ;# 
   236                           opt subtitle "HI-TECH Software Omniscient Code Generator (Lite mode) build 49521"
   237  0000                     RTCVALH equ 0F5Dh ;# 
   238                           opt subtitle "HI-TECH Software Omniscient Code Generator (Lite mode) build 49521"
   239  0000                     RTCCAL equ 0F5Eh ;# 
   240                           opt subtitle "HI-TECH Software Omniscient Code Generator (Lite mode) build 49521"
   241  0000                     RTCCFG equ 0F5Fh ;# 
   242                           opt subtitle "HI-TECH Software Omniscient Code Generator (Lite mode) build 49521"
   243  0000                     PIE6 equ 0F60h ;# 
   244                           opt subtitle "HI-TECH Software Omniscient Code Generator (Lite mode) build 49521"
   245  0000                     EEDATA equ 0F61h ;# 
   246                           opt subtitle "HI-TECH Software Omniscient Code Generator (Lite mode) build 49521"
   247  0000                     EEADR equ 0F62h ;# 
   248                           opt subtitle "HI-TECH Software Omniscient Code Generator (Lite mode) build 49521"
   249  0000                     EEADRH equ 0F63h ;# 
   250                           opt subtitle "HI-TECH Software Omniscient Code Generator (Lite mode) build 49521"
   251  0000                     OSCCON2 equ 0F64h ;# 
   252                           opt subtitle "HI-TECH Software Omniscient Code Generator (Lite mode) build 49521"
   253  0000                     BAUDCON1 equ 0F65h ;# 
   254                           opt subtitle "HI-TECH Software Omniscient Code Generator (Lite mode) build 49521"
   255  0000                     BAUDCTL equ 0F65h ;# 
   256                           opt subtitle "HI-TECH Software Omniscient Code Generator (Lite mode) build 49521"
   257  0000                     BAUDCON equ 0F65h ;# 
   258                           opt subtitle "HI-TECH Software Omniscient Code Generator (Lite mode) build 49521"
   259  0000                     SSP2CON2 equ 0F66h ;# 
   260                           opt subtitle "HI-TECH Software Omniscient Code Generator (Lite mode) build 49521"
   261  0000                     SSP2CON1 equ 0F67h ;# 
   262                           opt subtitle "HI-TECH Software Omniscient Code Generator (Lite mode) build 49521"
   263  0000                     SSP2STAT equ 0F68h ;# 
   264                           opt subtitle "HI-TECH Software Omniscient Code Generator (Lite mode) build 49521"
   265  0000                     SSP2ADD equ 0F69h ;# 
   266                           opt subtitle "HI-TECH Software Omniscient Code Generator (Lite mode) build 49521"
   267  0000                     SSP2MSK equ 0F69h ;# 
   268                           opt subtitle "HI-TECH Software Omniscient Code Generator (Lite mode) build 49521"
   269  0000                     SSP2BUF equ 0F6Ah ;# 
   270                           opt subtitle "HI-TECH Software Omniscient Code Generator (Lite mode) build 49521"
   271  0000                     T4CON equ 0F6Bh ;# 
   272                           opt subtitle "HI-TECH Software Omniscient Code Generator (Lite mode) build 49521"
   273  0000                     PR4 equ 0F6Ch ;# 
   274                           opt subtitle "HI-TECH Software Omniscient Code Generator (Lite mode) build 49521"
   275  0000                     TMR4 equ 0F6Dh ;# 
   276                           opt subtitle "HI-TECH Software Omniscient Code Generator (Lite mode) build 49521"
   277  0000                     CCP7CON equ 0F6Eh ;# 
   278                           opt subtitle "HI-TECH Software Omniscient Code Generator (Lite mode) build 49521"
   279  0000                     CCPR7 equ 0F6Fh ;# 
   280                           opt subtitle "HI-TECH Software Omniscient Code Generator (Lite mode) build 49521"
   281  0000                     CCPR7L equ 0F6Fh ;# 
   282                           opt subtitle "HI-TECH Software Omniscient Code Generator (Lite mode) build 49521"
   283  0000                     CCPR7H equ 0F70h ;# 
   284                           opt subtitle "HI-TECH Software Omniscient Code Generator (Lite mode) build 49521"
   285  0000                     CCP6CON equ 0F71h ;# 
   286                           opt subtitle "HI-TECH Software Omniscient Code Generator (Lite mode) build 49521"
   287  0000                     CCPR6 equ 0F72h ;# 
   288                           opt subtitle "HI-TECH Software Omniscient Code Generator (Lite mode) build 49521"
   289  0000                     CCPR6L equ 0F72h ;# 
   290                           opt subtitle "HI-TECH Software Omniscient Code Generator (Lite mode) build 49521"
   291  0000                     CCPR6H equ 0F73h ;# 
   292                           opt subtitle "HI-TECH Software Omniscient Code Generator (Lite mode) build 49521"
   293  0000                     CCP5CON equ 0F74h ;# 
   294                           opt subtitle "HI-TECH Software Omniscient Code Generator (Lite mode) build 49521"
   295  0000                     CCPR5 equ 0F75h ;# 
   296                           opt subtitle "HI-TECH Software Omniscient Code Generator (Lite mode) build 49521"
   297  0000                     CCPR5L equ 0F75h ;# 
   298                           opt subtitle "HI-TECH Software Omniscient Code Generator (Lite mode) build 49521"
   299  0000                     CCPR5H equ 0F76h ;# 
   300                           opt subtitle "HI-TECH Software Omniscient Code Generator (Lite mode) build 49521"
   301  0000                     CCP4CON equ 0F77h ;# 
   302                           opt subtitle "HI-TECH Software Omniscient Code Generator (Lite mode) build 49521"
   303  0000                     CCPR4 equ 0F78h ;# 
   304                           opt subtitle "HI-TECH Software Omniscient Code Generator (Lite mode) build 49521"
   305  0000                     CCPR4L equ 0F78h ;# 
   306                           opt subtitle "HI-TECH Software Omniscient Code Generator (Lite mode) build 49521"
   307  0000                     CCPR4H equ 0F79h ;# 
   308                           opt subtitle "HI-TECH Software Omniscient Code Generator (Lite mode) build 49521"
   309  0000                     T5GCON equ 0F7Ah ;# 
   310                           opt subtitle "HI-TECH Software Omniscient Code Generator (Lite mode) build 49521"
   311  0000                     T5CON equ 0F7Bh ;# 
   312                           opt subtitle "HI-TECH Software Omniscient Code Generator (Lite mode) build 49521"
   313  0000                     TMR5 equ 0F7Ch ;# 
   314                           opt subtitle "HI-TECH Software Omniscient Code Generator (Lite mode) build 49521"
   315  0000                     TMR5L equ 0F7Ch ;# 
   316                           opt subtitle "HI-TECH Software Omniscient Code Generator (Lite mode) build 49521"
   317  0000                     TMR5H equ 0F7Dh ;# 
   318                           opt subtitle "HI-TECH Software Omniscient Code Generator (Lite mode) build 49521"
   319  0000                     EECON2 equ 0F7Eh ;# 
   320                           opt subtitle "HI-TECH Software Omniscient Code Generator (Lite mode) build 49521"
   321  0000                     EECON1 equ 0F7Fh ;# 
   322                           opt subtitle "HI-TECH Software Omniscient Code Generator (Lite mode) build 49521"
   323  0000                     PORTA equ 0F80h ;# 
   324                           opt subtitle "HI-TECH Software Omniscient Code Generator (Lite mode) build 49521"
   325  0000                     PORTB equ 0F81h ;# 
   326                           opt subtitle "HI-TECH Software Omniscient Code Generator (Lite mode) build 49521"
   327  0000                     PORTC equ 0F82h ;# 
   328                           opt subtitle "HI-TECH Software Omniscient Code Generator (Lite mode) build 49521"
   329  0000                     PORTD equ 0F83h ;# 
   330                           opt subtitle "HI-TECH Software Omniscient Code Generator (Lite mode) build 49521"
   331  0000                     PORTE equ 0F84h ;# 
   332                           opt subtitle "HI-TECH Software Omniscient Code Generator (Lite mode) build 49521"
   333  0000                     PORTF equ 0F85h ;# 
   334                           opt subtitle "HI-TECH Software Omniscient Code Generator (Lite mode) build 49521"
   335  0000                     PORTG equ 0F86h ;# 
   336                           opt subtitle "HI-TECH Software Omniscient Code Generator (Lite mode) build 49521"
   337  0000                     LATA equ 0F89h ;# 
   338                           opt subtitle "HI-TECH Software Omniscient Code Generator (Lite mode) build 49521"
   339  0000                     LATB equ 0F8Ah ;# 
   340                           opt subtitle "HI-TECH Software Omniscient Code Generator (Lite mode) build 49521"
   341  0000                     LATC equ 0F8Bh ;# 
   342                           opt subtitle "HI-TECH Software Omniscient Code Generator (Lite mode) build 49521"
   343  0000                     LATD equ 0F8Ch ;# 
   344                           opt subtitle "HI-TECH Software Omniscient Code Generator (Lite mode) build 49521"
   345  0000                     LATE equ 0F8Dh ;# 
   346                           opt subtitle "HI-TECH Software Omniscient Code Generator (Lite mode) build 49521"
   347  0000                     LATF equ 0F8Eh ;# 
   348                           opt subtitle "HI-TECH Software Omniscient Code Generator (Lite mode) build 49521"
   349  0000                     LATG equ 0F8Fh ;# 
   350                           opt subtitle "HI-TECH Software Omniscient Code Generator (Lite mode) build 49521"
   351  0000                     TRISA equ 0F92h ;# 
   352                           opt subtitle "HI-TECH Software Omniscient Code Generator (Lite mode) build 49521"
   353  0000                     TRISB equ 0F93h ;# 
   354                           opt subtitle "HI-TECH Software Omniscient Code Generator (Lite mode) build 49521"
   355  0000                     TRISC equ 0F94h ;# 
   356                           opt subtitle "HI-TECH Software Omniscient Code Generator (Lite mode) build 49521"
   357  0000                     TRISD equ 0F95h ;# 
   358                           opt subtitle "HI-TECH Software Omniscient Code Generator (Lite mode) build 49521"
   359  0000                     TRISE equ 0F96h ;# 
   360                           opt subtitle "HI-TECH Software Omniscient Code Generator (Lite mode) build 49521"
   361  0000                     TRISF equ 0F97h ;# 
   362                           opt subtitle "HI-TECH Software Omniscient Code Generator (Lite mode) build 49521"
   363  0000                     TRISG equ 0F98h ;# 
   364                           opt subtitle "HI-TECH Software Omniscient Code Generator (Lite mode) build 49521"
   365  0000                     OSCTUNE equ 0F9Bh ;# 
   366                           opt subtitle "HI-TECH Software Omniscient Code Generator (Lite mode) build 49521"
   367  0000                     PSTR1CON equ 0F9Ch ;# 
   368                           opt subtitle "HI-TECH Software Omniscient Code Generator (Lite mode) build 49521"
   369  0000                     PIE1 equ 0F9Dh ;# 
   370                           opt subtitle "HI-TECH Software Omniscient Code Generator (Lite mode) build 49521"
   371  0000                     PIR1 equ 0F9Eh ;# 
   372                           opt subtitle "HI-TECH Software Omniscient Code Generator (Lite mode) build 49521"
   373  0000                     IPR1 equ 0F9Fh ;# 
   374                           opt subtitle "HI-TECH Software Omniscient Code Generator (Lite mode) build 49521"
   375  0000                     PIE2 equ 0FA0h ;# 
   376                           opt subtitle "HI-TECH Software Omniscient Code Generator (Lite mode) build 49521"
   377  0000                     PIR2 equ 0FA1h ;# 
   378                           opt subtitle "HI-TECH Software Omniscient Code Generator (Lite mode) build 49521"
   379  0000                     IPR2 equ 0FA2h ;# 
   380                           opt subtitle "HI-TECH Software Omniscient Code Generator (Lite mode) build 49521"
   381  0000                     PIE3 equ 0FA3h ;# 
   382                           opt subtitle "HI-TECH Software Omniscient Code Generator (Lite mode) build 49521"
   383  0000                     PIR3 equ 0FA4h ;# 
   384                           opt subtitle "HI-TECH Software Omniscient Code Generator (Lite mode) build 49521"
   385  0000                     IPR3 equ 0FA5h ;# 
   386                           opt subtitle "HI-TECH Software Omniscient Code Generator (Lite mode) build 49521"
   387  0000                     PIR6 equ 0FA6h ;# 
   388                           opt subtitle "HI-TECH Software Omniscient Code Generator (Lite mode) build 49521"
   389  0000                     PSPCON equ 0FA7h ;# 
   390                           opt subtitle "HI-TECH Software Omniscient Code Generator (Lite mode) build 49521"
   391  0000                     HLVDCON equ 0FA8h ;# 
   392                           opt subtitle "HI-TECH Software Omniscient Code Generator (Lite mode) build 49521"
   393  0000                     IPR6 equ 0FA9h ;# 
   394                           opt subtitle "HI-TECH Software Omniscient Code Generator (Lite mode) build 49521"
   395  0000                     T1GCON equ 0FAAh ;# 
   396                           opt subtitle "HI-TECH Software Omniscient Code Generator (Lite mode) build 49521"
   397  0000                     RCSTA1 equ 0FABh ;# 
   398                           opt subtitle "HI-TECH Software Omniscient Code Generator (Lite mode) build 49521"
   399  0000                     RCSTA equ 0FABh ;# 
   400                           opt subtitle "HI-TECH Software Omniscient Code Generator (Lite mode) build 49521"
   401  0000                     TXSTA1 equ 0FACh ;# 
   402                           opt subtitle "HI-TECH Software Omniscient Code Generator (Lite mode) build 49521"
   403  0000                     TXSTA equ 0FACh ;# 
   404                           opt subtitle "HI-TECH Software Omniscient Code Generator (Lite mode) build 49521"
   405  0000                     TXREG1 equ 0FADh ;# 
   406                           opt subtitle "HI-TECH Software Omniscient Code Generator (Lite mode) build 49521"
   407  0000                     TXREG equ 0FADh ;# 
   408                           opt subtitle "HI-TECH Software Omniscient Code Generator (Lite mode) build 49521"
   409  0000                     RCREG1 equ 0FAEh ;# 
   410                           opt subtitle "HI-TECH Software Omniscient Code Generator (Lite mode) build 49521"
   411  0000                     RCREG equ 0FAEh ;# 
   412                           opt subtitle "HI-TECH Software Omniscient Code Generator (Lite mode) build 49521"
   413  0000                     SPBRG1 equ 0FAFh ;# 
   414                           opt subtitle "HI-TECH Software Omniscient Code Generator (Lite mode) build 49521"
   415  0000                     SPBRG equ 0FAFh ;# 
   416                           opt subtitle "HI-TECH Software Omniscient Code Generator (Lite mode) build 49521"
   417  0000                     T3GCON equ 0FB0h ;# 
   418                           opt subtitle "HI-TECH Software Omniscient Code Generator (Lite mode) build 49521"
   419  0000                     T3CON equ 0FB1h ;# 
   420                           opt subtitle "HI-TECH Software Omniscient Code Generator (Lite mode) build 49521"
   421  0000                     TMR3 equ 0FB2h ;# 
   422                           opt subtitle "HI-TECH Software Omniscient Code Generator (Lite mode) build 49521"
   423  0000                     TMR3L equ 0FB2h ;# 
   424                           opt subtitle "HI-TECH Software Omniscient Code Generator (Lite mode) build 49521"
   425  0000                     TMR3H equ 0FB3h ;# 
   426                           opt subtitle "HI-TECH Software Omniscient Code Generator (Lite mode) build 49521"
   427  0000                     CMSTAT equ 0FB4h ;# 
   428                           opt subtitle "HI-TECH Software Omniscient Code Generator (Lite mode) build 49521"
   429  0000                     CMSTATUS equ 0FB4h ;# 
   430                           opt subtitle "HI-TECH Software Omniscient Code Generator (Lite mode) build 49521"
   431  0000                     CVRCON equ 0FB5h ;# 
   432                           opt subtitle "HI-TECH Software Omniscient Code Generator (Lite mode) build 49521"
   433  0000                     PIE4 equ 0FB6h ;# 
   434                           opt subtitle "HI-TECH Software Omniscient Code Generator (Lite mode) build 49521"
   435  0000                     PIR4 equ 0FB7h ;# 
   436                           opt subtitle "HI-TECH Software Omniscient Code Generator (Lite mode) build 49521"
   437  0000                     IPR4 equ 0FB8h ;# 
   438                           opt subtitle "HI-TECH Software Omniscient Code Generator (Lite mode) build 49521"
   439  0000                     PIE5 equ 0FB9h ;# 
   440                           opt subtitle "HI-TECH Software Omniscient Code Generator (Lite mode) build 49521"
   441  0000                     PIR5 equ 0FBAh ;# 
   442                           opt subtitle "HI-TECH Software Omniscient Code Generator (Lite mode) build 49521"
   443  0000                     CCP1CON equ 0FBBh ;# 
   444                           opt subtitle "HI-TECH Software Omniscient Code Generator (Lite mode) build 49521"
   445  0000                     ECCP1CON equ 0FBBh ;# 
   446                           opt subtitle "HI-TECH Software Omniscient Code Generator (Lite mode) build 49521"
   447  0000                     CCPR1 equ 0FBCh ;# 
   448                           opt subtitle "HI-TECH Software Omniscient Code Generator (Lite mode) build 49521"
   449  0000                     CCPR1L equ 0FBCh ;# 
   450                           opt subtitle "HI-TECH Software Omniscient Code Generator (Lite mode) build 49521"
   451  0000                     CCPR1H equ 0FBDh ;# 
   452                           opt subtitle "HI-TECH Software Omniscient Code Generator (Lite mode) build 49521"
   453  0000                     ECCP1DEL equ 0FBEh ;# 
   454                           opt subtitle "HI-TECH Software Omniscient Code Generator (Lite mode) build 49521"
   455  0000                     PWM1CON equ 0FBEh ;# 
   456                           opt subtitle "HI-TECH Software Omniscient Code Generator (Lite mode) build 49521"
   457  0000                     ECCP1AS equ 0FBFh ;# 
   458                           opt subtitle "HI-TECH Software Omniscient Code Generator (Lite mode) build 49521"
   459  0000                     ADCON2 equ 0FC0h ;# 
   460                           opt subtitle "HI-TECH Software Omniscient Code Generator (Lite mode) build 49521"
   461  0000                     ADCON1 equ 0FC1h ;# 
   462                           opt subtitle "HI-TECH Software Omniscient Code Generator (Lite mode) build 49521"
   463  0000                     ADCON0 equ 0FC2h ;# 
   464                           opt subtitle "HI-TECH Software Omniscient Code Generator (Lite mode) build 49521"
   465  0000                     ADRES equ 0FC3h ;# 
   466                           opt subtitle "HI-TECH Software Omniscient Code Generator (Lite mode) build 49521"
   467  0000                     ADRESL equ 0FC3h ;# 
   468                           opt subtitle "HI-TECH Software Omniscient Code Generator (Lite mode) build 49521"
   469  0000                     ADRESH equ 0FC4h ;# 
   470                           opt subtitle "HI-TECH Software Omniscient Code Generator (Lite mode) build 49521"
   471  0000                     SSP1CON2 equ 0FC5h ;# 
   472                           opt subtitle "HI-TECH Software Omniscient Code Generator (Lite mode) build 49521"
   473  0000                     SSPCON2 equ 0FC5h ;# 
   474                           opt subtitle "HI-TECH Software Omniscient Code Generator (Lite mode) build 49521"
   475  0000                     SSP1CON1 equ 0FC6h ;# 
   476                           opt subtitle "HI-TECH Software Omniscient Code Generator (Lite mode) build 49521"
   477  0000                     SSPCON1 equ 0FC6h ;# 
   478                           opt subtitle "HI-TECH Software Omniscient Code Generator (Lite mode) build 49521"
   479  0000                     SSP1STAT equ 0FC7h ;# 
   480                           opt subtitle "HI-TECH Software Omniscient Code Generator (Lite mode) build 49521"
   481  0000                     SSPSTAT equ 0FC7h ;# 
   482                           opt subtitle "HI-TECH Software Omniscient Code Generator (Lite mode) build 49521"
   483  0000                     SSP1ADD equ 0FC8h ;# 
   484                           opt subtitle "HI-TECH Software Omniscient Code Generator (Lite mode) build 49521"
   485  0000                     SSPADD equ 0FC8h ;# 
   486                           opt subtitle "HI-TECH Software Omniscient Code Generator (Lite mode) build 49521"
   487  0000                     SSP1MSK equ 0FC8h ;# 
   488                           opt subtitle "HI-TECH Software Omniscient Code Generator (Lite mode) build 49521"
   489  0000                     SSP1BUF equ 0FC9h ;# 
   490                           opt subtitle "HI-TECH Software Omniscient Code Generator (Lite mode) build 49521"
   491  0000                     SSPBUF equ 0FC9h ;# 
   492                           opt subtitle "HI-TECH Software Omniscient Code Generator (Lite mode) build 49521"
   493  0000                     T2CON equ 0FCAh ;# 
   494                           opt subtitle "HI-TECH Software Omniscient Code Generator (Lite mode) build 49521"
   495  0000                     PR2 equ 0FCBh ;# 
   496                           opt subtitle "HI-TECH Software Omniscient Code Generator (Lite mode) build 49521"
   497  0000                     MEMCON equ 0FCBh ;# 
   498                           opt subtitle "HI-TECH Software Omniscient Code Generator (Lite mode) build 49521"
   499  0000                     TMR2 equ 0FCCh ;# 
   500                           opt subtitle "HI-TECH Software Omniscient Code Generator (Lite mode) build 49521"
   501  0000                     T1CON equ 0FCDh ;# 
   502                           opt subtitle "HI-TECH Software Omniscient Code Generator (Lite mode) build 49521"
   503  0000                     TMR1 equ 0FCEh ;# 
   504                           opt subtitle "HI-TECH Software Omniscient Code Generator (Lite mode) build 49521"
   505  0000                     TMR1L equ 0FCEh ;# 
   506                           opt subtitle "HI-TECH Software Omniscient Code Generator (Lite mode) build 49521"
   507  0000                     TMR1H equ 0FCFh ;# 
   508                           opt subtitle "HI-TECH Software Omniscient Code Generator (Lite mode) build 49521"
   509  0000                     RCON equ 0FD0h ;# 
   510                           opt subtitle "HI-TECH Software Omniscient Code Generator (Lite mode) build 49521"
   511  0000                     WDTCON equ 0FD1h ;# 
   512                           opt subtitle "HI-TECH Software Omniscient Code Generator (Lite mode) build 49521"
   513  0000                     IPR5 equ 0FD2h ;# 
   514                           opt subtitle "HI-TECH Software Omniscient Code Generator (Lite mode) build 49521"
   515  0000                     OSCCON equ 0FD3h ;# 
   516                           opt subtitle "HI-TECH Software Omniscient Code Generator (Lite mode) build 49521"
   517  0000                     SPBRGH1 equ 0FD4h ;# 
   518                           opt subtitle "HI-TECH Software Omniscient Code Generator (Lite mode) build 49521"
   519  0000                     T0CON equ 0FD5h ;# 
   520                           opt subtitle "HI-TECH Software Omniscient Code Generator (Lite mode) build 49521"
   521  0000                     TMR0 equ 0FD6h ;# 
   522                           opt subtitle "HI-TECH Software Omniscient Code Generator (Lite mode) build 49521"
   523  0000                     TMR0L equ 0FD6h ;# 
   524                           opt subtitle "HI-TECH Software Omniscient Code Generator (Lite mode) build 49521"
   525  0000                     TMR0H equ 0FD7h ;# 
   526                           opt subtitle "HI-TECH Software Omniscient Code Generator (Lite mode) build 49521"
   527  0000                     STATUS equ 0FD8h ;# 
   528                           opt subtitle "HI-TECH Software Omniscient Code Generator (Lite mode) build 49521"
   529  0000                     FSR2 equ 0FD9h ;# 
   530                           opt subtitle "HI-TECH Software Omniscient Code Generator (Lite mode) build 49521"
   531  0000                     FSR2L equ 0FD9h ;# 
   532                           opt subtitle "HI-TECH Software Omniscient Code Generator (Lite mode) build 49521"
   533  0000                     FSR2H equ 0FDAh ;# 
   534                           opt subtitle "HI-TECH Software Omniscient Code Generator (Lite mode) build 49521"
   535  0000                     PLUSW2 equ 0FDBh ;# 
   536                           opt subtitle "HI-TECH Software Omniscient Code Generator (Lite mode) build 49521"
   537  0000                     PREINC2 equ 0FDCh ;# 
   538                           opt subtitle "HI-TECH Software Omniscient Code Generator (Lite mode) build 49521"
   539  0000                     POSTDEC2 equ 0FDDh ;# 
   540                           opt subtitle "HI-TECH Software Omniscient Code Generator (Lite mode) build 49521"
   541  0000                     POSTINC2 equ 0FDEh ;# 
   542                           opt subtitle "HI-TECH Software Omniscient Code Generator (Lite mode) build 49521"
   543  0000                     INDF2 equ 0FDFh ;# 
   544                           opt subtitle "HI-TECH Software Omniscient Code Generator (Lite mode) build 49521"
   545  0000                     BSR equ 0FE0h ;# 
   546                           opt subtitle "HI-TECH Software Omniscient Code Generator (Lite mode) build 49521"
   547  0000                     FSR1 equ 0FE1h ;# 
   548                           opt subtitle "HI-TECH Software Omniscient Code Generator (Lite mode) build 49521"
   549  0000                     FSR1L equ 0FE1h ;# 
   550                           opt subtitle "HI-TECH Software Omniscient Code Generator (Lite mode) build 49521"
   551  0000                     FSR1H equ 0FE2h ;# 
   552                           opt subtitle "HI-TECH Software Omniscient Code Generator (Lite mode) build 49521"
   553  0000                     PLUSW1 equ 0FE3h ;# 
   554                           opt subtitle "HI-TECH Software Omniscient Code Generator (Lite mode) build 49521"
   555  0000                     PREINC1 equ 0FE4h ;# 
   556                           opt subtitle "HI-TECH Software Omniscient Code Generator (Lite mode) build 49521"
   557  0000                     POSTDEC1 equ 0FE5h ;# 
   558                           opt subtitle "HI-TECH Software Omniscient Code Generator (Lite mode) build 49521"
   559  0000                     POSTINC1 equ 0FE6h ;# 
   560                           opt subtitle "HI-TECH Software Omniscient Code Generator (Lite mode) build 49521"
   561  0000                     INDF1 equ 0FE7h ;# 
   562                           opt subtitle "HI-TECH Software Omniscient Code Generator (Lite mode) build 49521"
   563  0000                     WREG equ 0FE8h ;# 
   564                           opt subtitle "HI-TECH Software Omniscient Code Generator (Lite mode) build 49521"
   565  0000                     FSR0 equ 0FE9h ;# 
   566                           opt subtitle "HI-TECH Software Omniscient Code Generator (Lite mode) build 49521"
   567  0000                     FSR0L equ 0FE9h ;# 
   568                           opt subtitle "HI-TECH Software Omniscient Code Generator (Lite mode) build 49521"
   569  0000                     FSR0H equ 0FEAh ;# 
   570                           opt subtitle "HI-TECH Software Omniscient Code Generator (Lite mode) build 49521"
   571  0000                     PLUSW0 equ 0FEBh ;# 
   572                           opt subtitle "HI-TECH Software Omniscient Code Generator (Lite mode) build 49521"
   573  0000                     PREINC0 equ 0FECh ;# 
   574                           opt subtitle "HI-TECH Software Omniscient Code Generator (Lite mode) build 49521"
   575  0000                     POSTDEC0 equ 0FEDh ;# 
   576                           opt subtitle "HI-TECH Software Omniscient Code Generator (Lite mode) build 49521"
   577  0000                     POSTINC0 equ 0FEEh ;# 
   578                           opt subtitle "HI-TECH Software Omniscient Code Generator (Lite mode) build 49521"
   579  0000                     INDF0 equ 0FEFh ;# 
   580                           opt subtitle "HI-TECH Software Omniscient Code Generator (Lite mode) build 49521"
   581  0000                     INTCON3 equ 0FF0h ;# 
   582                           opt subtitle "HI-TECH Software Omniscient Code Generator (Lite mode) build 49521"
   583  0000                     INTCON2 equ 0FF1h ;# 
   584                           opt subtitle "HI-TECH Software Omniscient Code Generator (Lite mode) build 49521"
   585  0000                     INTCON equ 0FF2h ;# 
   586                           opt subtitle "HI-TECH Software Omniscient Code Generator (Lite mode) build 49521"
   587  0000                     PROD equ 0FF3h ;# 
   588                           opt subtitle "HI-TECH Software Omniscient Code Generator (Lite mode) build 49521"
   589  0000                     PRODL equ 0FF3h ;# 
   590                           opt subtitle "HI-TECH Software Omniscient Code Generator (Lite mode) build 49521"
   591  0000                     PRODH equ 0FF4h ;# 
   592                           opt subtitle "HI-TECH Software Omniscient Code Generator (Lite mode) build 49521"
   593  0000                     TABLAT equ 0FF5h ;# 
   594                           opt subtitle "HI-TECH Software Omniscient Code Generator (Lite mode) build 49521"
   595  0000                     TBLPTR equ 0FF6h ;# 
   596                           opt subtitle "HI-TECH Software Omniscient Code Generator (Lite mode) build 49521"
   597  0000                     TBLPTRL equ 0FF6h ;# 
   598                           opt subtitle "HI-TECH Software Omniscient Code Generator (Lite mode) build 49521"
   599  0000                     TBLPTRH equ 0FF7h ;# 
   600                           opt subtitle "HI-TECH Software Omniscient Code Generator (Lite mode) build 49521"
   601  0000                     TBLPTRU equ 0FF8h ;# 
   602                           opt subtitle "HI-TECH Software Omniscient Code Generator (Lite mode) build 49521"
   603  0000                     PCLAT equ 0FF9h ;# 
   604                           opt subtitle "HI-TECH Software Omniscient Code Generator (Lite mode) build 49521"
   605  0000                     PC equ 0FF9h ;# 
   606                           opt subtitle "HI-TECH Software Omniscient Code Generator (Lite mode) build 49521"
   607  0000                     PCL equ 0FF9h ;# 
   608                           opt subtitle "HI-TECH Software Omniscient Code Generator (Lite mode) build 49521"
   609  0000                     PCLATH equ 0FFAh ;# 
   610                           opt subtitle "HI-TECH Software Omniscient Code Generator (Lite mode) build 49521"
   611  0000                     PCLATU equ 0FFBh ;# 
   612                           opt subtitle "HI-TECH Software Omniscient Code Generator (Lite mode) build 49521"
   613  0000                     STKPTR equ 0FFCh ;# 
   614                           opt subtitle "HI-TECH Software Omniscient Code Generator (Lite mode) build 49521"
   615  0000                     TOS equ 0FFDh ;# 
   616                           opt subtitle "HI-TECH Software Omniscient Code Generator (Lite mode) build 49521"
   617  0000                     TOSL equ 0FFDh ;# 
   618                           opt subtitle "HI-TECH Software Omniscient Code Generator (Lite mode) build 49521"
   619  0000                     TOSH equ 0FFEh ;# 
   620                           opt subtitle "HI-TECH Software Omniscient Code Generator (Lite mode) build 49521"
   621  0000                     TOSU equ 0FFFh ;# 
   622                           opt subtitle "HI-TECH Software Omniscient Code Generator (Lite mode) build 49521"
   623                           
   624                           opt pagewidth 120
   625                           
   626                           	opt lm
   627                           
   628                           	processor	18F65K22
   629                           porta	equ	0F80h
   630                           portb	equ	0F81h
   631                           portc	equ	0F82h
   632                           portd	equ	0F83h
   633                           porte	equ	0F84h
   634                           lata	equ	0F89h
   635                           latb	equ	0F8Ah
   636                           latc	equ	0F8Bh
   637                           latd	equ	0F8Ch
   638  006EC4                     __pidataCOMRAM:
   639                           opt subtitle "HI-TECH Software Omniscient Code Generator (Lite mode) build 49521"
   640                           
   641                           opt pagewidth 120
   642                           
   643  006EC4  0001               	dw	(01h)&0ffffh
   644  006EC6  0001               	dw	(01h)&0ffffh
   645  006EC8  0001               	dw	(01h)&0ffffh
   646  006ECA  0001               	dw	(01h)&0ffffh
   647  006ECC  0001               	dw	(01h)&0ffffh
   648  006ECE  0001               	dw	(01h)&0ffffh
   649  006ED0  0001               	dw	(01h)&0ffffh
   650  006ED2  0001               	dw	(01h)&0ffffh
   651  006ED4  0001               	dw	(01h)&0ffffh
   652                           opt subtitle "HI-TECH Software Omniscient Code Generator (Lite mode) build 49521"
   653                           
   654  006F38                     __pidataBANK1:
   655                           opt subtitle "HI-TECH Software Omniscient Code Generator (Lite mode) build 49521"
   656                           
   657                           opt pagewidth 120
   658  006F38  0304               	dw	(0304h)&0ffffh
   659  006F3A  0302               	dw	(0302h)&0ffffh
   660  006F3C  0301               	dw	(0301h)&0ffffh
   661  006F3E  0480               	dw	(0480h)&0ffffh
   662  006F40  0440               	dw	(0440h)&0ffffh
   663  006F42  0420               	dw	(0420h)&0ffffh
   664  006F44  0410               	dw	(0410h)&0ffffh
   665  006F46  0408               	dw	(0408h)&0ffffh
   666  006F48  0404               	dw	(0404h)&0ffffh
   667                           opt subtitle "HI-TECH Software Omniscient Code Generator (Lite mode) build 49521"
   668                           
   669                           opt pagewidth 120
   670  006F4A  0280               	dw	(0280h)&0ffffh
   671  006F4C  0240               	dw	(0240h)&0ffffh
   672  006F4E  0201               	dw	(0201h)&0ffffh
   673  006F50  0202               	dw	(0202h)&0ffffh
   674  006F52  0010               	dw	(010h)&0ffffh
   675  006F54  0020               	dw	(020h)&0ffffh
   676  006F56  0002               	dw	(02h)&0ffffh
   677  006F58  0004               	dw	(04h)&0ffffh
   678  006F5A  0008               	dw	(08h)&0ffffh
   679                           opt subtitle "HI-TECH Software Omniscient Code Generator (Lite mode) build 49521"
   680                           
   681                           opt pagewidth 120
   682  006F5C  0402               	dw	(0402h)&0ffffh
   683  006F5E  0401               	dw	(0401h)&0ffffh
   684  006F60  0601               	dw	(0601h)&0ffffh
   685  006F62  0602               	dw	(0602h)&0ffffh
   686  006F64  0604               	dw	(0604h)&0ffffh
   687  006F66  0608               	dw	(0608h)&0ffffh
   688  006F68  0610               	dw	(0610h)&0ffffh
   689  006F6A  0580               	dw	(0580h)&0ffffh
   690  006F6C  0540               	dw	(0540h)&0ffffh
   691                           opt subtitle "HI-TECH Software Omniscient Code Generator (Lite mode) build 49521"
   692                           
   693                           opt pagewidth 120
   694  006F6E  0308               	dw	(0308h)&0ffffh
   695  006F70  0310               	dw	(0310h)&0ffffh
   696  006F72  0320               	dw	(0320h)&0ffffh
   697  006F74  0340               	dw	(0340h)&0ffffh
   698  006F76  0380               	dw	(0380h)&0ffffh
   699  006F78  0101               	dw	(0101h)&0ffffh
   700  006F7A  0102               	dw	(0102h)&0ffffh
   701  006F7C  0104               	dw	(0104h)&0ffffh
   702  006F7E  0108               	dw	(0108h)&0ffffh
   703                           opt subtitle "HI-TECH Software Omniscient Code Generator (Lite mode) build 49521"
   704                           
   705                           opt pagewidth 120
   706                           
   707                           	opt lm
   708  0000                     _ANCON0	set	0xF25
   709                           opt subtitle "HI-TECH Software Omniscient Code Generator (Lite mode) build 49521"
   710  0000                     _ANCON1	set	0xF24
   711                           opt subtitle "HI-TECH Software Omniscient Code Generator (Lite mode) build 49521"
   712  0000                     _EEADR	set	0xF62
   713                           opt subtitle "HI-TECH Software Omniscient Code Generator (Lite mode) build 49521"
   714  0000                     _EEADRH	set	0xF63
   715                           opt subtitle "HI-TECH Software Omniscient Code Generator (Lite mode) build 49521"
   716  0000                     _EECON1bits	set	0xF7F
   717                           opt subtitle "HI-TECH Software Omniscient Code Generator (Lite mode) build 49521"
   718  0000                     _EECON2	set	0xF7E
   719                           opt subtitle "HI-TECH Software Omniscient Code Generator (Lite mode) build 49521"
   720  0000                     _EEDATA	set	0xF61
   721                           opt subtitle "HI-TECH Software Omniscient Code Generator (Lite mode) build 49521"
   722  0000                     _INTCONbits	set	0xFF2
   723                           opt subtitle "HI-TECH Software Omniscient Code Generator (Lite mode) build 49521"
   724  0000                     _LATA	set	0xF89
   725                           opt subtitle "HI-TECH Software Omniscient Code Generator (Lite mode) build 49521"
   726  0000                     _LATB	set	0xF8A
   727                           opt subtitle "HI-TECH Software Omniscient Code Generator (Lite mode) build 49521"
   728  0000                     _LATC	set	0xF8B
   729                           opt subtitle "HI-TECH Software Omniscient Code Generator (Lite mode) build 49521"
   730  0000                     _LATD	set	0xF8C
   731                           opt subtitle "HI-TECH Software Omniscient Code Generator (Lite mode) build 49521"
   732  0000                     _LATE	set	0xF8D
   733                           opt subtitle "HI-TECH Software Omniscient Code Generator (Lite mode) build 49521"
   734  0000                     _LATF	set	0xF8E
   735                           opt subtitle "HI-TECH Software Omniscient Code Generator (Lite mode) build 49521"
   736  0000                     _LATG	set	0xF8F
   737                           opt subtitle "HI-TECH Software Omniscient Code Generator (Lite mode) build 49521"
   738  0000                     _PORTA	set	0xF80
   739                           opt subtitle "HI-TECH Software Omniscient Code Generator (Lite mode) build 49521"
   740  0000                     _PORTB	set	0xF81
   741                           opt subtitle "HI-TECH Software Omniscient Code Generator (Lite mode) build 49521"
   742  0000                     _PORTC	set	0xF82
   743                           opt subtitle "HI-TECH Software Omniscient Code Generator (Lite mode) build 49521"
   744  0000                     _PORTD	set	0xF83
   745                           opt subtitle "HI-TECH Software Omniscient Code Generator (Lite mode) build 49521"
   746  0000                     _PORTE	set	0xF84
   747                           opt subtitle "HI-TECH Software Omniscient Code Generator (Lite mode) build 49521"
   748  0000                     _PORTF	set	0xF85
   749                           opt subtitle "HI-TECH Software Omniscient Code Generator (Lite mode) build 49521"
   750  0000                     _PORTG	set	0xF86
   751                           opt subtitle "HI-TECH Software Omniscient Code Generator (Lite mode) build 49521"
   752  0000                     _TRISA	set	0xF92
   753                           opt subtitle "HI-TECH Software Omniscient Code Generator (Lite mode) build 49521"
   754  0000                     _TRISB	set	0xF93
   755                           opt subtitle "HI-TECH Software Omniscient Code Generator (Lite mode) build 49521"
   756  0000                     _TRISC	set	0xF94
   757                           opt subtitle "HI-TECH Software Omniscient Code Generator (Lite mode) build 49521"
   758  0000                     _TRISD	set	0xF95
   759                           opt subtitle "HI-TECH Software Omniscient Code Generator (Lite mode) build 49521"
   760  0000                     _TRISE	set	0xF96
   761                           opt subtitle "HI-TECH Software Omniscient Code Generator (Lite mode) build 49521"
   762  0000                     _TRISF	set	0xF97
   763                           opt subtitle "HI-TECH Software Omniscient Code Generator (Lite mode) build 49521"
   764  0000                     _TRISG	set	0xF98
   765                           opt subtitle "HI-TECH Software Omniscient Code Generator (Lite mode) build 49521"
   766                           
   767  0000                     __CFG_INTOSCSEL$HIGH equ 0x0
   768                           opt subtitle "HI-TECH Software Omniscient Code Generator (Lite mode) build 49521"
   769  0000                     __CFG_SOSCSEL$DIG equ 0x0
   770                           opt subtitle "HI-TECH Software Omniscient Code Generator (Lite mode) build 49521"
   771  0000                     __CFG_XINST$OFF equ 0x0
   772                           opt subtitle "HI-TECH Software Omniscient Code Generator (Lite mode) build 49521"
   773  0000                     __CFG_RETEN$ON equ 0x0
   774                           opt subtitle "HI-TECH Software Omniscient Code Generator (Lite mode) build 49521"
   775  0000                     __CFG_IESO$OFF equ 0x0
   776                           opt subtitle "HI-TECH Software Omniscient Code Generator (Lite mode) build 49521"
   777  0000                     __CFG_FOSC$INTIO2 equ 0x0
   778                           opt subtitle "HI-TECH Software Omniscient Code Generator (Lite mode) build 49521"
   779  0000                     __CFG_FCMEN$OFF equ 0x0
   780                           opt subtitle "HI-TECH Software Omniscient Code Generator (Lite mode) build 49521"
   781  0000                     __CFG_PLLCFG$OFF equ 0x0
   782                           opt subtitle "HI-TECH Software Omniscient Code Generator (Lite mode) build 49521"
   783  0000                     __CFG_BOREN$SBORDIS equ 0x0
   784                           opt subtitle "HI-TECH Software Omniscient Code Generator (Lite mode) build 49521"
   785  0000                     __CFG_BORPWR$ZPBORMV equ 0x0
   786                           opt subtitle "HI-TECH Software Omniscient Code Generator (Lite mode) build 49521"
   787  0000                     __CFG_BORV$0 equ 0x0
   788                           opt subtitle "HI-TECH Software Omniscient Code Generator (Lite mode) build 49521"
   789  0000                     __CFG_PWRTEN$OFF equ 0x0
   790                           opt subtitle "HI-TECH Software Omniscient Code Generator (Lite mode) build 49521"
   791  0000                     __CFG_WDTPS$1048576 equ 0x0
   792                           opt subtitle "HI-TECH Software Omniscient Code Generator (Lite mode) build 49521"
   793  0000                     __CFG_WDTEN$OFF equ 0x0
   794                           opt subtitle "HI-TECH Software Omniscient Code Generator (Lite mode) build 49521"
   795  0000                     __CFG_RTCOSC$SOSCREF equ 0x0
   796                           opt subtitle "HI-TECH Software Omniscient Code Generator (Lite mode) build 49521"
   797  0000                     __CFG_CCP2MX$PORTC equ 0x0
   798                           opt subtitle "HI-TECH Software Omniscient Code Generator (Lite mode) build 49521"
   799  0000                     __CFG_MSSPMSK$MSK7 equ 0x0
   800                           opt subtitle "HI-TECH Software Omniscient Code Generator (Lite mode) build 49521"
   801  0000                     __CFG_MCLRE$ON equ 0x0
   802                           opt subtitle "HI-TECH Software Omniscient Code Generator (Lite mode) build 49521"
   803  0000                     __CFG_STVREN$ON equ 0x0
   804                           opt subtitle "HI-TECH Software Omniscient Code Generator (Lite mode) build 49521"
   805  0000                     __CFG_BBSIZ$BB2K equ 0x0
   806                           opt subtitle "HI-TECH Software Omniscient Code Generator (Lite mode) build 49521"
   807  0000                     __CFG_CP0$OFF equ 0x0
   808                           opt subtitle "HI-TECH Software Omniscient Code Generator (Lite mode) build 49521"
   809  0000                     __CFG_CP1$OFF equ 0x0
   810                           opt subtitle "HI-TECH Software Omniscient Code Generator (Lite mode) build 49521"
   811  0000                     __CFG_CP2$OFF equ 0x0
   812                           opt subtitle "HI-TECH Software Omniscient Code Generator (Lite mode) build 49521"
   813  0000                     __CFG_CP3$OFF equ 0x0
   814                           opt subtitle "HI-TECH Software Omniscient Code Generator (Lite mode) build 49521"
   815  0000                     __CFG_CPD$OFF equ 0x0
   816                           opt subtitle "HI-TECH Software Omniscient Code Generator (Lite mode) build 49521"
   817  0000                     __CFG_CPB$OFF equ 0x0
   818                           opt subtitle "HI-TECH Software Omniscient Code Generator (Lite mode) build 49521"
   819  0000                     __CFG_WRT0$OFF equ 0x0
   820                           opt subtitle "HI-TECH Software Omniscient Code Generator (Lite mode) build 49521"
   821  0000                     __CFG_WRT1$OFF equ 0x0
   822                           opt subtitle "HI-TECH Software Omniscient Code Generator (Lite mode) build 49521"
   823  0000                     __CFG_WRT2$OFF equ 0x0
   824                           opt subtitle "HI-TECH Software Omniscient Code Generator (Lite mode) build 49521"
   825  0000                     __CFG_WRT3$OFF equ 0x0
   826                           opt subtitle "HI-TECH Software Omniscient Code Generator (Lite mode) build 49521"
   827  0000                     __CFG_WRTB$OFF equ 0x0
   828                           opt subtitle "HI-TECH Software Omniscient Code Generator (Lite mode) build 49521"
   829  0000                     __CFG_WRTC$OFF equ 0x0
   830                           opt subtitle "HI-TECH Software Omniscient Code Generator (Lite mode) build 49521"
   831  0000                     __CFG_WRTD$OFF equ 0x0
   832                           opt subtitle "HI-TECH Software Omniscient Code Generator (Lite mode) build 49521"
   833  0000                     __CFG_EBRT0$OFF equ 0x0
   834                           opt subtitle "HI-TECH Software Omniscient Code Generator (Lite mode) build 49521"
   835  0000                     __CFG_EBRT1$OFF equ 0x0
   836                           opt subtitle "HI-TECH Software Omniscient Code Generator (Lite mode) build 49521"
   837  0000                     __CFG_EBRT2$OFF equ 0x0
   838                           opt subtitle "HI-TECH Software Omniscient Code Generator (Lite mode) build 49521"
   839  0000                     __CFG_EBRT3$OFF equ 0x0
   840                           opt subtitle "HI-TECH Software Omniscient Code Generator (Lite mode) build 49521"
   841  0000                     __CFG_EBRTB$OFF equ 0x0
   842                           opt subtitle "HI-TECH Software Omniscient Code Generator (Lite mode) build 49521"
   843                           
   844                           opt pagewidth 120
   845                           
   846  006FDE                     __pcinit:
   847                           opt subtitle "HI-TECH Software Omniscient Code Generator (Lite mode) build 49521"
   848  006FDE                     start_initialization:
   849                           opt subtitle "HI-TECH Software Omniscient Code Generator (Lite mode) build 49521"
   850                           
   851  006FDE                     __initialization:
   852                           opt subtitle "HI-TECH Software Omniscient Code Generator (Lite mode) build 49521"
   853                           
   854  000001                     __pbssCOMRAM:
   855  000001                     main@F7918:
   856  000001                            ds      18
   857  000013                     main@F7920:
   858  000013                            ds      18
   859                           opt subtitle "HI-TECH Software Omniscient Code Generator (Lite mode) build 49521"
   860                           
   861  000040                     __pdataCOMRAM:
   862                           opt subtitle "HI-TECH Software Omniscient Code Generator (Lite mode) build 49521"
   863                           
   864  000040                     main@F7922:
   865  000040                            ds      18
   866                           opt subtitle "HI-TECH Software Omniscient Code Generator (Lite mode) build 49521"
   867                           
   868  000060                     __pbssBANK0:
   869  000060                     main@F7924:
   870  000060                            ds      18
   871                           opt subtitle "HI-TECH Software Omniscient Code Generator (Lite mode) build 49521"
   872                           
   873  0001EE                     __pbssBANK1:
   874  0001EE                     main@F7916:
   875  0001EE                            ds      18
   876                           opt subtitle "HI-TECH Software Omniscient Code Generator (Lite mode) build 49521"
   877                           
   878  0001A6                     __pdataBANK1:
   879                           opt subtitle "HI-TECH Software Omniscient Code Generator (Lite mode) build 49521"
   880                           
   881  0001A6                     main@F7908:
   882  0001A6                            ds      18
   883                           opt subtitle "HI-TECH Software Omniscient Code Generator (Lite mode) build 49521"
   884                           
   885                           opt pagewidth 120
   886  0001B8                     main@F7910:
   887  0001B8                            ds      18
   888                           opt subtitle "HI-TECH Software Omniscient Code Generator (Lite mode) build 49521"
   889                           
   890                           opt pagewidth 120
   891  0001CA                     main@F7912:
   892  0001CA                            ds      18
   893                           opt subtitle "HI-TECH Software Omniscient Code Generator (Lite mode) build 49521"
   894                           
   895                           opt pagewidth 120
   896  0001DC                     main@F7914:
   897  0001DC                            ds      18
   898                           opt subtitle "HI-TECH Software Omniscient Code Generator (Lite mode) build 49521"
   899                           
   900                           opt pagewidth 120
   901  006FDE  EE01  F0EE         lfsr	0,__pbssBANK1
   902  006FE2  0E12               movlw	18
   903  006FE4                     clear_0:
   904  006FE4  6AEE               clrf	postinc0,c
   905  006FE6  06E8               decf	wreg
   906  006FE8  E1FD               bnz	clear_0
   907                           opt subtitle "HI-TECH Software Omniscient Code Generator (Lite mode) build 49521"
   908                           
   909  006FEA  EE00  F060         lfsr	0,__pbssBANK0
   910  006FEE  0E12               movlw	18
   911  006FF0                     clear_1:
   912  006FF0  6AEE               clrf	postinc0,c
   913  006FF2  06E8               decf	wreg
   914  006FF4  E1FD               bnz	clear_1
   915                           opt subtitle "HI-TECH Software Omniscient Code Generator (Lite mode) build 49521"
   916                           
   917  006FF6  EE00  F001         lfsr	0,__pbssCOMRAM
   918  006FFA  0E24               movlw	36
   919  006FFC                     clear_2:
   920  006FFC  6AEE               clrf	postinc0,c
   921  006FFE  06E8               decf	wreg
   922  007000  E1FD               bnz	clear_2
   923                           opt subtitle "HI-TECH Software Omniscient Code Generator (Lite mode) build 49521"
   924                           
   925                           opt pagewidth 120
   926  007002  0E38               	movlw	low (__pidataBANK1)
   927  007004  6EF6               	movwf	tblptrl
   928  007006  0E6F               	movlw	high(__pidataBANK1)
   929  007008  6EF7               	movwf	tblptrh
   930  00700A  0E00               	movlw	low highword(__pidataBANK1)
   931  00700C  6EF8               	movwf	tblptru
   932  00700E  EE01  F0A6         	lfsr	0,__pdataBANK1
   933  007012  EE10 F048          	lfsr	1,72
   934  007016                     	copy_data0:
   935  007016  0009               	tblrd	*+
   936  007018  CFF5 FFEE          	movff	tablat, postinc0
   937  00701C  50E5               	movf	postdec1,w
   938  00701E  50E1               	movf	fsr1l,w
   939  007020  E1FA               	bnz	copy_data0
   940                           opt subtitle "HI-TECH Software Omniscient Code Generator (Lite mode) build 49521"
   941                           
   942                           opt pagewidth 120
   943  007022  0EC4               	movlw	low (__pidataCOMRAM)
   944  007024  6EF6               	movwf	tblptrl
   945  007026  0E6E               	movlw	high(__pidataCOMRAM)
   946  007028  6EF7               	movwf	tblptrh
   947  00702A  0E00               	movlw	low highword(__pidataCOMRAM)
   948  00702C  6EF8               	movwf	tblptru
   949  00702E  EE00  F040         	lfsr	0,__pdataCOMRAM
   950  007032  EE10 F012          	lfsr	1,18
   951  007036                     	copy_data1:
   952  007036  0009               	tblrd	*+
   953  007038  CFF5 FFEE          	movff	tablat, postinc0
   954  00703C  50E5               	movf	postdec1,w
   955  00703E  50E1               	movf	fsr1l,w
   956  007040  E1FA               	bnz	copy_data1
   957                           opt subtitle "HI-TECH Software Omniscient Code Generator (Lite mode) build 49521"
   958                           
   959                           opt pagewidth 120
   960                           
   961                           	opt lm
   962  007042                     end_of_initialization:
   963  007042                     __end_of__initialization:movlb 0
   964  007044  EFE6  F039         goto _main	;jump to C main() function
   965                           opt subtitle "HI-TECH Software Omniscient Code Generator (Lite mode) build 49521"
   966                           
   967  000100                     __pcstackBANK1:
   968                           opt subtitle "HI-TECH Software Omniscient Code Generator (Lite mode) build 49521"
   969  000100                     main@buttonMask:	; 18 bytes @ 0x0
   970  000100                     	ds   18
   971                           opt subtitle "HI-TECH Software Omniscient Code Generator (Lite mode) build 49521"
   972  000112                     main@relayMask:	; 18 bytes @ 0x12
   973  000112                     	ds   18
   974                           opt subtitle "HI-TECH Software Omniscient Code Generator (Lite mode) build 49521"
   975  000124                     main@buttonDown:	; 18 bytes @ 0x24
   976  000124                     	ds   18
   977                           opt subtitle "HI-TECH Software Omniscient Code Generator (Lite mode) build 49521"
   978  000136                     main@leftLEDMask:	; 18 bytes @ 0x36
   979  000136                     	ds   18
   980                           opt subtitle "HI-TECH Software Omniscient Code Generator (Lite mode) build 49521"
   981  000148                     main@rightLEDMask:	; 18 bytes @ 0x48
   982  000148                     	ds   18
   983                           opt subtitle "HI-TECH Software Omniscient Code Generator (Lite mode) build 49521"
   984  00015A                     main@buttonEventUp:	; 18 bytes @ 0x5A
   985  00015A                     	ds   18
   986                           opt subtitle "HI-TECH Software Omniscient Code Generator (Lite mode) build 49521"
   987  00016C                     main@buttonState:	; 18 bytes @ 0x6C
   988  00016C                     	ds   18
   989                           opt subtitle "HI-TECH Software Omniscient Code Generator (Lite mode) build 49521"
   990  00017E                     main@buttonLatch:	; 18 bytes @ 0x7E
   991  00017E                     	ds   18
   992                           opt subtitle "HI-TECH Software Omniscient Code Generator (Lite mode) build 49521"
   993  000190                     main@buttonEventDown:	; 18 bytes @ 0x90
   994  000190                     	ds   18
   995                           opt subtitle "HI-TECH Software Omniscient Code Generator (Lite mode) build 49521"
   996  0001A2                     main@programState:	; 2 bytes @ 0xA2
   997  0001A2                     	ds   2
   998                           opt subtitle "HI-TECH Software Omniscient Code Generator (Lite mode) build 49521"
   999  0001A4                     main@i:	; 2 bytes @ 0xA4
  1000  0001A4                     	ds   2
  1001                           opt subtitle "HI-TECH Software Omniscient Code Generator (Lite mode) build 49521"
  1002                           
  1003  000025                     __pcstackCOMRAM:
  1004                           opt subtitle "HI-TECH Software Omniscient Code Generator (Lite mode) build 49521"
  1005  000025                     ?_setupIO:	; 0 bytes @ 0x0
  1006                           opt subtitle "HI-TECH Software Omniscient Code Generator (Lite mode) build 49521"
  1007  000025                     ?__delay_ms:	; 0 bytes @ 0x0
  1008                           opt subtitle "HI-TECH Software Omniscient Code Generator (Lite mode) build 49521"
  1009  000025                     ?_Write_b_eep:	; 0 bytes @ 0x0
  1010  000025                     ?_Busy_eep:	; 0 bytes @ 0x0
  1011  000025                     ??_Busy_eep:	; 0 bytes @ 0x0
  1012                           opt subtitle "HI-TECH Software Omniscient Code Generator (Lite mode) build 49521"
  1013  000025                     ?_setOutput:	; 0 bytes @ 0x0
  1014                           opt subtitle "HI-TECH Software Omniscient Code Generator (Lite mode) build 49521"
  1015  000025                     ?_Read_b_eep:	; 1 bytes @ 0x0
  1016                           opt subtitle "HI-TECH Software Omniscient Code Generator (Lite mode) build 49521"
  1017  000025                     ?_checkButton:	; 1 bytes @ 0x0
  1018  000025                     ?_main:	; 2 bytes @ 0x0
  1019                           opt subtitle "HI-TECH Software Omniscient Code Generator (Lite mode) build 49521"
  1020  000025                     __delay_ms@ms:	; 2 bytes @ 0x0
  1021                           opt subtitle "HI-TECH Software Omniscient Code Generator (Lite mode) build 49521"
  1022  000025                     setupIO@row:	; 2 bytes @ 0x0
  1023                           opt subtitle "HI-TECH Software Omniscient Code Generator (Lite mode) build 49521"
  1024  000025                     checkButton@row:	; 2 bytes @ 0x0
  1025                           opt subtitle "HI-TECH Software Omniscient Code Generator (Lite mode) build 49521"
  1026  000025                     setOutput@row:	; 2 bytes @ 0x0
  1027                           opt subtitle "HI-TECH Software Omniscient Code Generator (Lite mode) build 49521"
  1028  000025                     Read_b_eep@badd:	; 2 bytes @ 0x0
  1029                           opt subtitle "HI-TECH Software Omniscient Code Generator (Lite mode) build 49521"
  1030  000025                     Write_b_eep@badd:	; 2 bytes @ 0x0
  1031  000025                     	ds   2
  1032  000027                     ??_Read_b_eep:	; 0 bytes @ 0x2
  1033  000027                     ??__delay_ms:	; 0 bytes @ 0x2
  1034  000027                     ??_checkButton:	; 0 bytes @ 0x2
  1035                           opt subtitle "HI-TECH Software Omniscient Code Generator (Lite mode) build 49521"
  1036  000027                     Write_b_eep@bdat:	; 1 bytes @ 0x2
  1037                           opt subtitle "HI-TECH Software Omniscient Code Generator (Lite mode) build 49521"
  1038  000027                     __delay_ms@i:	; 2 bytes @ 0x2
  1039                           opt subtitle "HI-TECH Software Omniscient Code Generator (Lite mode) build 49521"
  1040  000027                     setupIO@direction:	; 2 bytes @ 0x2
  1041                           opt subtitle "HI-TECH Software Omniscient Code Generator (Lite mode) build 49521"
  1042  000027                     setOutput@value:	; 2 bytes @ 0x2
  1043  000027                     	ds   1
  1044  000028                     ??_Write_b_eep:	; 0 bytes @ 0x3
  1045  000028                     	ds   1
  1046  000029                     ??_setupIO:	; 0 bytes @ 0x4
  1047  000029                     ??_setOutput:	; 0 bytes @ 0x4
  1048                           opt subtitle "HI-TECH Software Omniscient Code Generator (Lite mode) build 49521"
  1049  000029                     Write_b_eep@GIE_BIT_VAL:	; 1 bytes @ 0x4
  1050                           opt subtitle "HI-TECH Software Omniscient Code Generator (Lite mode) build 49521"
  1051  000029                     __delay_ms@j:	; 2 bytes @ 0x4
  1052                           opt subtitle "HI-TECH Software Omniscient Code Generator (Lite mode) build 49521"
  1053  000029                     checkButton@port:	; 2 bytes @ 0x4
  1054  000029                     	ds   2
  1055                           opt subtitle "HI-TECH Software Omniscient Code Generator (Lite mode) build 49521"
  1056  00002B                     setupIO@state:	; 2 bytes @ 0x6
  1057                           opt subtitle "HI-TECH Software Omniscient Code Generator (Lite mode) build 49521"
  1058  00002B                     checkButton@state:	; 2 bytes @ 0x6
  1059                           opt subtitle "HI-TECH Software Omniscient Code Generator (Lite mode) build 49521"
  1060  00002B                     setOutput@port:	; 2 bytes @ 0x6
  1061  00002B                     	ds   2
  1062                           opt subtitle "HI-TECH Software Omniscient Code Generator (Lite mode) build 49521"
  1063  00002D                     checkButton@mask:	; 1 bytes @ 0x8
  1064                           opt subtitle "HI-TECH Software Omniscient Code Generator (Lite mode) build 49521"
  1065  00002D                     setOutput@mask:	; 1 bytes @ 0x8
  1066                           opt subtitle "HI-TECH Software Omniscient Code Generator (Lite mode) build 49521"
  1067  00002D                     setupIO@port:	; 2 bytes @ 0x8
  1068  00002D                     	ds   1
  1069                           opt subtitle "HI-TECH Software Omniscient Code Generator (Lite mode) build 49521"
  1070  00002E                     ?_setOutputs:	; 0 bytes @ 0x9
  1071                           opt subtitle "HI-TECH Software Omniscient Code Generator (Lite mode) build 49521"
  1072  00002E                     setOutputs@alwayson:	; 2 bytes @ 0x9
  1073  00002E                     	ds   1
  1074                           opt subtitle "HI-TECH Software Omniscient Code Generator (Lite mode) build 49521"
  1075  00002F                     setupIO@mask:	; 1 bytes @ 0xA
  1076  00002F                     	ds   1
  1077                           opt subtitle "HI-TECH Software Omniscient Code Generator (Lite mode) build 49521"
  1078  000030                     setOutputs@leftled:	; 2 bytes @ 0xB
  1079  000030                     	ds   2
  1080                           opt subtitle "HI-TECH Software Omniscient Code Generator (Lite mode) build 49521"
  1081  000032                     setOutputs@rightled:	; 2 bytes @ 0xD
  1082  000032                     	ds   2
  1083                           opt subtitle "HI-TECH Software Omniscient Code Generator (Lite mode) build 49521"
  1084  000034                     setOutputs@relay:	; 2 bytes @ 0xF
  1085  000034                     	ds   2
  1086                           opt subtitle "HI-TECH Software Omniscient Code Generator (Lite mode) build 49521"
  1087  000036                     setOutputs@value:	; 2 bytes @ 0x11
  1088  000036                     	ds   2
  1089  000038                     ??_setOutputs:	; 0 bytes @ 0x13
  1090  000038                     ??_main:	; 0 bytes @ 0x13
  1091  000038                     	ds   8
  1092                           opt subtitle "HI-TECH Software Omniscient Code Generator (Lite mode) build 49521"
  1093                           
  1094                           opt pagewidth 120
  1095                           
  1096                           	opt lm
  1097                           
  1098                           	processor	18F65K22
  1099                           porta	equ	0F80h
  1100                           portb	equ	0F81h
  1101                           portc	equ	0F82h
  1102                           portd	equ	0F83h
  1103                           porte	equ	0F84h
  1104                           lata	equ	0F89h
  1105                           latb	equ	0F8Ah
  1106                           latc	equ	0F8Bh
  1107                           latd	equ	0F8Ch
  1108                           late	equ	0F8Dh
  1109                           trisa	equ	0F92h
  1110                           trisb	equ	0F93h
  1111                           trisc	equ	0F94h
  1112                           trisd	equ	0F95h
  1113                           trise	equ	0F96h
  1114                           pie1	equ	0F9Dh
  1115                           pir1	equ	0F9Eh
  1116                           ipr1	equ	0F9Fh
  1117                           pie2	equ	0FA0h
  1118                           pir2	equ	0FA1h
  1119                           ipr2	equ	0FA2h
  1120                           t3con	equ	0FB1h
  1121                           tmr3l	equ	0FB2h
  1122                           tmr3h	equ	0FB3h
  1123                           ccp1con	equ	0FBDh
  1124                           ccpr1l	equ	0FBEh
  1125                           ccpr1h	equ	0FBFh
  1126                           adcon1	equ	0FC1h
  1127                           adcon0	equ	0FC2h
  1128                           adresl	equ	0FC3h
  1129                           adresh	equ	0FC4h
  1130                           sspcon2	equ	0FC5h
  1131                           sspcon1	equ	0FC6h
  1132                           sspstat	equ	0FC7h
  1133                           sspadd	equ	0FC8h
  1134                           sspbuf	equ	0FC9h
  1135                           t2con	equ	0FCAh
  1136                           pr2	equ	0FCBh
  1137                           tmr2	equ	0FCCh
  1138                           t1con	equ	0FCDh
  1139                           tmr1l	equ	0FCEh
  1140                           tmr1h	equ	0FCFh
  1141                           rcon	equ	0FD0h
  1142                           wdtcon	equ	0FD1h
  1143                           lvdcon	equ	0FD2h
  1144                           osccon	equ	0FD3h
  1145                           t0con	equ	0FD5h
  1146                           tmr0l	equ	0FD6h
  1147                           tmr0h	equ	0FD7h
  1148                           status	equ	0FD8h
  1149                           fsr2	equ	0FD9h
  1150                           fsr2l	equ	0FD9h
  1151                           fsr2h	equ	0FDAh
  1152                           plusw2	equ	0FDBh
  1153                           preinc2	equ	0FDCh
  1154                           postdec2	equ	0FDDh
  1155                           postinc2	equ	0FDEh
  1156                           indf2	equ	0FDFh
  1157                           bsr	equ	0FE0h
  1158                           fsr1	equ	0FE1h
  1159                           fsr1l	equ	0FE1h
  1160                           fsr1h	equ	0FE2h
  1161                           plusw1	equ	0FE3h
  1162                           preinc1	equ	0FE4h
  1163                           postdec1	equ	0FE5h
  1164                           postinc1	equ	0FE6h
  1165                           indf1	equ	0FE7h
  1166                           wreg	equ	0FE8h
  1167                           fsr0	equ	0FE9h
  1168                           fsr0l	equ	0FE9h
  1169                           fsr0h	equ	0FEAh
  1170                           plusw0	equ	0FEBh
  1171                           preinc0	equ	0FECh
  1172                           postdec0	equ	0FEDh
  1173                           postinc0	equ	0FEEh
  1174                           indf0	equ	0FEFh
  1175                           intcon3	equ	0FF0h
  1176                           intcon2	equ	0FF1h
  1177                           intcon	equ	0FF2h
  1178                           prod	equ	0FF3h
  1179                           prodl	equ	0FF3h
  1180                           prodh	equ	0FF4h
  1181                           tablat	equ	0FF5h
  1182                           tblptr	equ	0FF6h
  1183                           tblptrl	equ	0FF6h
  1184                           tblptrh	equ	0FF7h
  1185                           tblptru	equ	0FF8h
  1186                           pcl	equ	0FF9h
  1187                           pclat	equ	0FFAh
  1188                           pclath	equ	0FFAh
  1189                           pclatu	equ	0FFBh
  1190                           stkptr	equ	0FFCh
  1191                           tosl	equ	0FFDh
  1192                           tosh	equ	0FFEh
  1193                           tosu	equ	0FFFh
  1194                           skipnz macro
  1195                           	btfsc	status,2
  1196                           	endm
  1197                           	global	__ramtop
  1198                           	global	__accesstop
  1199                           # 46 "/opt/microchip/xc8/v1.12/include/pic18f65k22.h"
  1200                           PMD3 equ 0F16h ;# 
  1201                           # 90 "/opt/microchip/xc8/v1.12/include/pic18f65k22.h"
  1202                           PMD2 equ 0F17h ;# 
  1203                           # 140 "/opt/microchip/xc8/v1.12/include/pic18f65k22.h"
  1204                           PMD1 equ 0F18h ;# 
  1205                           # 196 "/opt/microchip/xc8/v1.12/include/pic18f65k22.h"
  1206                           PMD0 equ 0F19h ;# 
  1207                           # 275 "/opt/microchip/xc8/v1.12/include/pic18f65k22.h"
  1208                           PSTR3CON equ 0F1Ah ;# 
  1209                           # 402 "/opt/microchip/xc8/v1.12/include/pic18f65k22.h"
  1210                           PSTR2CON equ 0F1Bh ;# 
  1211                           # 635 "/opt/microchip/xc8/v1.12/include/pic18f65k22.h"
  1212                           TXREG2 equ 0F1Ch ;# 
  1213                           # 654 "/opt/microchip/xc8/v1.12/include/pic18f65k22.h"
  1214                           RCREG2 equ 0F1Dh ;# 
  1215                           # 673 "/opt/microchip/xc8/v1.12/include/pic18f65k22.h"
  1216                           SPBRG2 equ 0F1Eh ;# 
  1217                           # 692 "/opt/microchip/xc8/v1.12/include/pic18f65k22.h"
  1218                           SPBRGH2 equ 0F1Fh ;# 
  1219                           # 711 "/opt/microchip/xc8/v1.12/include/pic18f65k22.h"
  1220                           BAUDCON2 equ 0F20h ;# 
  1221                           # 856 "/opt/microchip/xc8/v1.12/include/pic18f65k22.h"
  1222                           TXSTA2 equ 0F21h ;# 
  1223                           # 984 "/opt/microchip/xc8/v1.12/include/pic18f65k22.h"
  1224                           RCSTA2 equ 0F22h ;# 
  1225                           # 1121 "/opt/microchip/xc8/v1.12/include/pic18f65k22.h"
  1226                           ANCON2 equ 0F23h ;# 
  1227                           # 1193 "/opt/microchip/xc8/v1.12/include/pic18f65k22.h"
  1228                           ANCON1 equ 0F24h ;# 
  1229                           # 1265 "/opt/microchip/xc8/v1.12/include/pic18f65k22.h"
  1230                           ANCON0 equ 0F25h ;# 
  1231                           # 1397 "/opt/microchip/xc8/v1.12/include/pic18f65k22.h"
  1232                           ODCON3 equ 0F27h ;# 
  1233                           # 1429 "/opt/microchip/xc8/v1.12/include/pic18f65k22.h"
  1234                           ODCON2 equ 0F28h ;# 
  1235                           # 1478 "/opt/microchip/xc8/v1.12/include/pic18f65k22.h"
  1236                           ODCON1 equ 0F29h ;# 
  1237                           # 1516 "/opt/microchip/xc8/v1.12/include/pic18f65k22.h"
  1238                           REFOCON equ 0F2Ah ;# 
  1239                           # 1580 "/opt/microchip/xc8/v1.12/include/pic18f65k22.h"
  1240                           CCPTMRS2 equ 0F2Bh ;# 
  1241                           # 1613 "/opt/microchip/xc8/v1.12/include/pic18f65k22.h"
  1242                           CCPTMRS1 equ 0F2Ch ;# 
  1243                           # 1679 "/opt/microchip/xc8/v1.12/include/pic18f65k22.h"
  1244                           CCPTMRS0 equ 0F2Dh ;# 
  1245                           # 1760 "/opt/microchip/xc8/v1.12/include/pic18f65k22.h"
  1246                           CM3CON equ 0F2Eh ;# 
  1247                           # 1765 "/opt/microchip/xc8/v1.12/include/pic18f65k22.h"
  1248                           CM3CON1 equ 0F2Eh ;# 
  1249                           # 2053 "/opt/microchip/xc8/v1.12/include/pic18f65k22.h"
  1250                           CM2CON equ 0F2Fh ;# 
  1251                           # 2058 "/opt/microchip/xc8/v1.12/include/pic18f65k22.h"
  1252                           CM2CON1 equ 0F2Fh ;# 
  1253                           # 2346 "/opt/microchip/xc8/v1.12/include/pic18f65k22.h"
  1254                           T8CON equ 0F36h ;# 
  1255                           # 2416 "/opt/microchip/xc8/v1.12/include/pic18f65k22.h"
  1256                           PR8 equ 0F37h ;# 
  1257                           # 2435 "/opt/microchip/xc8/v1.12/include/pic18f65k22.h"
  1258                           TMR8 equ 0F38h ;# 
  1259                           # 2454 "/opt/microchip/xc8/v1.12/include/pic18f65k22.h"
  1260                           T6CON equ 0F39h ;# 
  1261                           # 2524 "/opt/microchip/xc8/v1.12/include/pic18f65k22.h"
  1262                           PR6 equ 0F3Ah ;# 
  1263                           # 2543 "/opt/microchip/xc8/v1.12/include/pic18f65k22.h"
  1264                           TMR6 equ 0F3Bh ;# 
  1265                           # 2562 "/opt/microchip/xc8/v1.12/include/pic18f65k22.h"
  1266                           CCP8CON equ 0F46h ;# 
  1267                           # 2640 "/opt/microchip/xc8/v1.12/include/pic18f65k22.h"
  1268                           CCPR8 equ 0F47h ;# 
  1269                           # 2646 "/opt/microchip/xc8/v1.12/include/pic18f65k22.h"
  1270                           CCPR8L equ 0F47h ;# 
  1271                           # 2665 "/opt/microchip/xc8/v1.12/include/pic18f65k22.h"
  1272                           CCPR8H equ 0F48h ;# 
  1273                           # 2684 "/opt/microchip/xc8/v1.12/include/pic18f65k22.h"
  1274                           CCP3CON equ 0F49h ;# 
  1275                           # 2765 "/opt/microchip/xc8/v1.12/include/pic18f65k22.h"
  1276                           CCPR3 equ 0F4Ah ;# 
  1277                           # 2771 "/opt/microchip/xc8/v1.12/include/pic18f65k22.h"
  1278                           CCPR3L equ 0F4Ah ;# 
  1279                           # 2790 "/opt/microchip/xc8/v1.12/include/pic18f65k22.h"
  1280                           CCPR3H equ 0F4Bh ;# 
  1281                           # 2809 "/opt/microchip/xc8/v1.12/include/pic18f65k22.h"
  1282                           ECCP3DEL equ 0F4Ch ;# 
  1283                           # 2878 "/opt/microchip/xc8/v1.12/include/pic18f65k22.h"
  1284                           ECCP3AS equ 0F4Dh ;# 
  1285                           # 2959 "/opt/microchip/xc8/v1.12/include/pic18f65k22.h"
  1286                           CCP2CON equ 0F4Eh ;# 
  1287                           # 2964 "/opt/microchip/xc8/v1.12/include/pic18f65k22.h"
  1288                           ECCP2CON equ 0F4Eh ;# 
  1289                           # 3150 "/opt/microchip/xc8/v1.12/include/pic18f65k22.h"
  1290                           CCPR2 equ 0F4Fh ;# 
  1291                           # 3156 "/opt/microchip/xc8/v1.12/include/pic18f65k22.h"
  1292                           CCPR2L equ 0F4Fh ;# 
  1293                           # 3175 "/opt/microchip/xc8/v1.12/include/pic18f65k22.h"
  1294                           CCPR2H equ 0F50h ;# 
  1295                           # 3194 "/opt/microchip/xc8/v1.12/include/pic18f65k22.h"
  1296                           ECCP2DEL equ 0F51h ;# 
  1297                           # 3199 "/opt/microchip/xc8/v1.12/include/pic18f65k22.h"
  1298                           PWM2CON equ 0F51h ;# 
  1299                           # 3331 "/opt/microchip/xc8/v1.12/include/pic18f65k22.h"
  1300                           ECCP2AS equ 0F52h ;# 
  1301                           # 3412 "/opt/microchip/xc8/v1.12/include/pic18f65k22.h"
  1302  0073CC                     __ptext0:
  1303                           opt subtitle "HI-TECH Software Omniscient Code Generator (Lite mode) build 49521"
  1304                           
  1305                           opt pagewidth 120
  1306                           
  1307  0000                     	__size_of_main	equ	__end_of_main-_main
  1308                           opt subtitle "HI-TECH Software Omniscient Code Generator (Lite mode) build 49521"
  1309  0073CC                     _main:; BSR set to: 1
  1310                           opt subtitle "HI-TECH Software Omniscient Code Generator (Lite mode) build 49521"
  1311                           
  1312                           opt pagewidth 120
  1313                           
  1314  0073CC                     l1385:
  1315                           opt subtitle "HI-TECH Software Omniscient Code Generator (Lite mode) build 49521"
  1316  0073CC  EE21  F0A6         	lfsr	2,(main@F7908)	;volatile
  1317  0073D0  EE11  F000         	lfsr	1,(main@buttonMask)	;volatile
  1318  0073D4  0E12               	movlw	18
  1319  0073D6                     u771:
  1320  0073D6  CFDE FFE6          	movff	postinc2,postinc1
  1321  0073DA  2EE8               	decfsz	wreg
  1322  0073DC  D7FC               	goto	u771
  1323                           opt subtitle "HI-TECH Software Omniscient Code Generator (Lite mode) build 49521"
  1324                           
  1325  0073DE  EE21  F0B8         	lfsr	2,(main@F7910)	;volatile
  1326  0073E2  EE11  F036         	lfsr	1,(main@leftLEDMask)	;volatile
  1327  0073E6  0E12               	movlw	18
  1328  0073E8                     u781:
  1329  0073E8  CFDE FFE6          	movff	postinc2,postinc1
  1330  0073EC  2EE8               	decfsz	wreg
  1331  0073EE  D7FC               	goto	u781
  1332                           opt subtitle "HI-TECH Software Omniscient Code Generator (Lite mode) build 49521"
  1333                           
  1334  0073F0  EE21  F0CA         	lfsr	2,(main@F7912)	;volatile
  1335  0073F4  EE11  F048         	lfsr	1,(main@rightLEDMask)	;volatile
  1336  0073F8  0E12               	movlw	18
  1337  0073FA                     u791:
  1338  0073FA  CFDE FFE6          	movff	postinc2,postinc1
  1339  0073FE  2EE8               	decfsz	wreg
  1340  007400  D7FC               	goto	u791
  1341                           opt subtitle "HI-TECH Software Omniscient Code Generator (Lite mode) build 49521"
  1342                           
  1343  007402  EE21  F0DC         	lfsr	2,(main@F7914)	;volatile
  1344  007406  EE11  F012         	lfsr	1,(main@relayMask)	;volatile
  1345  00740A  0E12               	movlw	18
  1346  00740C                     u801:
  1347  00740C  CFDE FFE6          	movff	postinc2,postinc1
  1348  007410  2EE8               	decfsz	wreg
  1349  007412  D7FC               	goto	u801
  1350                           opt subtitle "HI-TECH Software Omniscient Code Generator (Lite mode) build 49521"
  1351                           
  1352  007414  EE21  F0EE         	lfsr	2,(main@F7916)	;volatile
  1353  007418  EE11  F024         	lfsr	1,(main@buttonDown)	;volatile
  1354  00741C  0E12               	movlw	18
  1355  00741E                     u811:
  1356  00741E  CFDE FFE6          	movff	postinc2,postinc1
  1357  007422  2EE8               	decfsz	wreg
  1358  007424  D7FC               	goto	u811
  1359                           opt subtitle "HI-TECH Software Omniscient Code Generator (Lite mode) build 49521"
  1360                           
  1361  007426  EE20  F001         	lfsr	2,(main@F7918)	;volatile
  1362  00742A  EE11  F090         	lfsr	1,(main@buttonEventDown)	;volatile
  1363  00742E  0E12               	movlw	18
  1364  007430                     u821:
  1365  007430  CFDE FFE6          	movff	postinc2,postinc1
  1366  007434  2EE8               	decfsz	wreg
  1367  007436  D7FC               	goto	u821
  1368                           opt subtitle "HI-TECH Software Omniscient Code Generator (Lite mode) build 49521"
  1369                           
  1370  007438  EE20  F013         	lfsr	2,(main@F7920)	;volatile
  1371  00743C  EE11  F05A         	lfsr	1,(main@buttonEventUp)	;volatile
  1372  007440  0E12               	movlw	18
  1373  007442                     u831:
  1374  007442  CFDE FFE6          	movff	postinc2,postinc1
  1375  007446  2EE8               	decfsz	wreg
  1376  007448  D7FC               	goto	u831
  1377                           opt subtitle "HI-TECH Software Omniscient Code Generator (Lite mode) build 49521"
  1378                           
  1379  00744A  EE20  F040         	lfsr	2,(main@F7922)	;volatile
  1380  00744E  EE11  F07E         	lfsr	1,(main@buttonLatch)	;volatile
  1381  007452  0E12               	movlw	18
  1382  007454                     u841:
  1383  007454  CFDE FFE6          	movff	postinc2,postinc1
  1384  007458  2EE8               	decfsz	wreg
  1385  00745A  D7FC               	goto	u841
  1386                           opt subtitle "HI-TECH Software Omniscient Code Generator (Lite mode) build 49521"
  1387                           
  1388  00745C  EE20  F060         	lfsr	2,(main@F7924)	;volatile
  1389  007460  EE11  F06C         	lfsr	1,(main@buttonState)	;volatile
  1390  007464  0E12               	movlw	18
  1391  007466                     u851:
  1392  007466  CFDE FFE6          	movff	postinc2,postinc1
  1393  00746A  2EE8               	decfsz	wreg
  1394  00746C  D7FC               	goto	u851
  1395                           opt subtitle "HI-TECH Software Omniscient Code Generator (Lite mode) build 49521"
  1396                           
  1397  00746E                     l1387:
  1398                           opt subtitle "HI-TECH Software Omniscient Code Generator (Lite mode) build 49521"
  1399                           
  1400  00746E  0E00               	movlw	high(0)
  1401  007470  0101               	movlb	1	; () banked
  1402  007472  0101               	movlb	1	; () banked
  1403  007474  6FA3               	movwf	((main@programState+1))&0ffh	;volatile
  1404  007476  0E00               	movlw	low(0)
  1405  007478  0101               	movlb	1	; () banked
  1406  00747A  6FA2               	movwf	((main@programState))&0ffh	;volatile
  1407                           opt subtitle "HI-TECH Software Omniscient Code Generator (Lite mode) build 49521"
  1408                           
  1409  00747C                     l1389:; BSR set to: 1
  1410                           opt subtitle "HI-TECH Software Omniscient Code Generator (Lite mode) build 49521"
  1411                           
  1412  00747C  0E00               	movlw	low(0)
  1413  00747E  010F               	movlb	15	; () banked
  1414  007480  010F               	movlb	15	; () banked
  1415  007482  6F25               	movwf	((3877))&0ffh	;volatile
  1416                           opt subtitle "HI-TECH Software Omniscient Code Generator (Lite mode) build 49521"
  1417                           
  1418  007484                     l1391:; BSR set to: 15
  1419                           opt subtitle "HI-TECH Software Omniscient Code Generator (Lite mode) build 49521"
  1420                           
  1421  007484  0E00               	movlw	low(0)
  1422  007486  010F               	movlb	15	; () banked
  1423  007488  010F               	movlb	15	; () banked
  1424  00748A  6F24               	movwf	((3876))&0ffh	;volatile
  1425                           opt subtitle "HI-TECH Software Omniscient Code Generator (Lite mode) build 49521"
  1426                           
  1427  00748C                     l1393:; BSR set to: 15
  1428                           opt subtitle "HI-TECH Software Omniscient Code Generator (Lite mode) build 49521"
  1429                           
  1430  00748C  0E05               	movlw	high(0510h)
  1431  00748E  6E26               	movwf	((c:?_setupIO+1)),c
  1432  007490  0E10               	movlw	low(0510h)
  1433  007492  6E25               	movwf	((c:?_setupIO)),c
  1434  007494  0E00               	movlw	high(01h)
  1435  007496  6E28               	movwf	(1+((c:?_setupIO)+02h)),c
  1436  007498  0E01               	movlw	low(01h)
  1437  00749A  6E27               	movwf	(0+((c:?_setupIO)+02h)),c
  1438  00749C  EC57  F039         	call	_setupIO	;wreg free
  1439                           opt subtitle "HI-TECH Software Omniscient Code Generator (Lite mode) build 49521"
  1440                           
  1441  0074A0                     l1395:
  1442                           opt subtitle "HI-TECH Software Omniscient Code Generator (Lite mode) build 49521"
  1443  0074A0  0E05               	movlw	high(0520h)
  1444  0074A2  6E26               	movwf	((c:?_setupIO+1)),c
  1445  0074A4  0E20               	movlw	low(0520h)
  1446  0074A6  6E25               	movwf	((c:?_setupIO)),c
  1447  0074A8  0E00               	movlw	high(01h)
  1448  0074AA  6E28               	movwf	(1+((c:?_setupIO)+02h)),c
  1449  0074AC  0E01               	movlw	low(01h)
  1450  0074AE  6E27               	movwf	(0+((c:?_setupIO)+02h)),c
  1451  0074B0  EC57  F039         	call	_setupIO	;wreg free
  1452                           opt subtitle "HI-TECH Software Omniscient Code Generator (Lite mode) build 49521"
  1453                           
  1454  0074B4                     l1397:
  1455                           opt subtitle "HI-TECH Software Omniscient Code Generator (Lite mode) build 49521"
  1456  0074B4  0E00               	movlw	high(01h)
  1457  0074B6  6E26               	movwf	((c:?_setupIO+1)),c
  1458  0074B8  0E01               	movlw	low(01h)
  1459  0074BA  6E25               	movwf	((c:?_setupIO)),c
  1460  0074BC  0E00               	movlw	high(0)
  1461  0074BE  6E28               	movwf	(1+((c:?_setupIO)+02h)),c
  1462  0074C0  0E00               	movlw	low(0)
  1463  0074C2  6E27               	movwf	(0+((c:?_setupIO)+02h)),c
  1464  0074C4  EC57  F039         	call	_setupIO	;wreg free
  1465                           opt subtitle "HI-TECH Software Omniscient Code Generator (Lite mode) build 49521"
  1466                           
  1467  0074C8                     l1399:
  1468                           opt subtitle "HI-TECH Software Omniscient Code Generator (Lite mode) build 49521"
  1469  0074C8  0E00               	movlw	high(0)
  1470  0074CA  0101               	movlb	1	; () banked
  1471  0074CC  0101               	movlb	1	; () banked
  1472  0074CE  6FA5               	movwf	((main@i+1))&0ffh	;volatile
  1473  0074D0  0E00               	movlw	low(0)
  1474  0074D2  0101               	movlb	1	; () banked
  1475  0074D4  6FA4               	movwf	((main@i))&0ffh	;volatile
  1476                           opt subtitle "HI-TECH Software Omniscient Code Generator (Lite mode) build 49521"
  1477  0074D6                     l1401:; BSR set to: 1
  1478                           opt subtitle "HI-TECH Software Omniscient Code Generator (Lite mode) build 49521"
  1479  0074D6  0E09               	movlw	09h
  1480  0074D8  0101               	movlb	1	; () banked
  1481  0074DA  0101               	movlb	1	; () banked
  1482  0074DC  5DA4               	subwf	((main@i))&0ffh,w	;volatile
  1483  0074DE  0E00               	movlw	0
  1484  0074E0  0101               	movlb	1	; () banked
  1485  0074E2  59A5               	subwfb	((main@i+1))&0ffh,w	;volatile
  1486  0074E4  A0D8               	btfss	status,0
  1487  0074E6  D001               	goto	u861
  1488  0074E8  D001               	goto	u860
  1489  0074EA                     u861:
  1490  0074EA  D002               	goto	l1405
  1491  0074EC                     u860:
  1492  0074EC  D09B               	goto	l1411
  1493                           opt subtitle "HI-TECH Software Omniscient Code Generator (Lite mode) build 49521"
  1494  0074EE                     l1403:; BSR set to: 1
  1495                           opt subtitle "HI-TECH Software Omniscient Code Generator (Lite mode) build 49521"
  1496  0074EE  D09A               	goto	l1411
  1497                           opt subtitle "HI-TECH Software Omniscient Code Generator (Lite mode) build 49521"
  1498                           
  1499  0074F0                     l81:; BSR set to: 1
  1500                           opt subtitle "HI-TECH Software Omniscient Code Generator (Lite mode) build 49521"
  1501                           
  1502                           opt pagewidth 120
  1503  0074F0                     l1405:; BSR set to: 1
  1504                           opt subtitle "HI-TECH Software Omniscient Code Generator (Lite mode) build 49521"
  1505                           
  1506                           opt pagewidth 120
  1507  0074F0  90D8               	bcf	status,0
  1508  0074F2  0101               	movlb	1	; () banked
  1509  0074F4  0101               	movlb	1	; () banked
  1510  0074F6  35A4               	rlcf	((main@i))&0ffh,w	;volatile
  1511  0074F8  6E38               	movwf	(??_main+0+0)&0ffh,c
  1512  0074FA  0101               	movlb	1	; () banked
  1513  0074FC  0101               	movlb	1	; () banked
  1514  0074FE  35A5               	rlcf	((main@i+1))&0ffh,w	;volatile
  1515  007500  6E39               	movwf	1+(??_main+0+0)&0ffh,c
  1516  007502  0101               	movlb	1	; () banked
  1517  007504  0E00               	movlw	low(main@buttonMask)	;volatile
  1518  007506  2438               	addwf	(??_main+0+0),c,w
  1519  007508  6ED9               	movwf	c:fsr2l
  1520  00750A  0101               	movlb	1	; () banked
  1521  00750C  0E01               	movlw	high(main@buttonMask)	;volatile
  1522  00750E  2039               	addwfc	(??_main+0+1),c,w
  1523  007510  6EDA               	movwf	1+c:fsr2l
  1524  007512  CFDE F025          	movff	postinc2,(c:?_setupIO)
  1525  007516  CFDD F026          	movff	postdec2,(c:?_setupIO+1)
  1526  00751A  0E00               	movlw	high(01h)
  1527  00751C  6E28               	movwf	(1+((c:?_setupIO)+02h)),c
  1528  00751E  0E01               	movlw	low(01h)
  1529  007520  6E27               	movwf	(0+((c:?_setupIO)+02h)),c
  1530  007522  EC57  F039         	call	_setupIO	;wreg free
  1531                           opt subtitle "HI-TECH Software Omniscient Code Generator (Lite mode) build 49521"
  1532                           
  1533  007526  90D8               	bcf	status,0
  1534  007528  0101               	movlb	1	; () banked
  1535  00752A  0101               	movlb	1	; () banked
  1536  00752C  35A4               	rlcf	((main@i))&0ffh,w	;volatile
  1537  00752E  6E38               	movwf	(??_main+0+0)&0ffh,c
  1538  007530  0101               	movlb	1	; () banked
  1539  007532  0101               	movlb	1	; () banked
  1540  007534  35A5               	rlcf	((main@i+1))&0ffh,w	;volatile
  1541  007536  6E39               	movwf	1+(??_main+0+0)&0ffh,c
  1542  007538  0101               	movlb	1	; () banked
  1543  00753A  0E36               	movlw	low(main@leftLEDMask)	;volatile
  1544  00753C  2438               	addwf	(??_main+0+0),c,w
  1545  00753E  6ED9               	movwf	c:fsr2l
  1546  007540  0101               	movlb	1	; () banked
  1547  007542  0E01               	movlw	high(main@leftLEDMask)	;volatile
  1548  007544  2039               	addwfc	(??_main+0+1),c,w
  1549  007546  6EDA               	movwf	1+c:fsr2l
  1550  007548  CFDE F025          	movff	postinc2,(c:?_setupIO)
  1551  00754C  CFDD F026          	movff	postdec2,(c:?_setupIO+1)
  1552  007550  0E00               	movlw	high(0)
  1553  007552  6E28               	movwf	(1+((c:?_setupIO)+02h)),c
  1554  007554  0E00               	movlw	low(0)
  1555  007556  6E27               	movwf	(0+((c:?_setupIO)+02h)),c
  1556  007558  EC57  F039         	call	_setupIO	;wreg free
  1557                           opt subtitle "HI-TECH Software Omniscient Code Generator (Lite mode) build 49521"
  1558                           
  1559  00755C  90D8               	bcf	status,0
  1560  00755E  0101               	movlb	1	; () banked
  1561  007560  0101               	movlb	1	; () banked
  1562  007562  35A4               	rlcf	((main@i))&0ffh,w	;volatile
  1563  007564  6E38               	movwf	(??_main+0+0)&0ffh,c
  1564  007566  0101               	movlb	1	; () banked
  1565  007568  0101               	movlb	1	; () banked
  1566  00756A  35A5               	rlcf	((main@i+1))&0ffh,w	;volatile
  1567  00756C  6E39               	movwf	1+(??_main+0+0)&0ffh,c
  1568  00756E  0101               	movlb	1	; () banked
  1569  007570  0E48               	movlw	low(main@rightLEDMask)	;volatile
  1570  007572  2438               	addwf	(??_main+0+0),c,w
  1571  007574  6ED9               	movwf	c:fsr2l
  1572  007576  0101               	movlb	1	; () banked
  1573  007578  0E01               	movlw	high(main@rightLEDMask)	;volatile
  1574  00757A  2039               	addwfc	(??_main+0+1),c,w
  1575  00757C  6EDA               	movwf	1+c:fsr2l
  1576  00757E  CFDE F025          	movff	postinc2,(c:?_setupIO)
  1577  007582  CFDD F026          	movff	postdec2,(c:?_setupIO+1)
  1578  007586  0E00               	movlw	high(0)
  1579  007588  6E28               	movwf	(1+((c:?_setupIO)+02h)),c
  1580  00758A  0E00               	movlw	low(0)
  1581  00758C  6E27               	movwf	(0+((c:?_setupIO)+02h)),c
  1582  00758E  EC57  F039         	call	_setupIO	;wreg free
  1583                           opt subtitle "HI-TECH Software Omniscient Code Generator (Lite mode) build 49521"
  1584                           
  1585  007592  90D8               	bcf	status,0
  1586  007594  0101               	movlb	1	; () banked
  1587  007596  0101               	movlb	1	; () banked
  1588  007598  35A4               	rlcf	((main@i))&0ffh,w	;volatile
  1589  00759A  6E38               	movwf	(??_main+0+0)&0ffh,c
  1590  00759C  0101               	movlb	1	; () banked
  1591  00759E  0101               	movlb	1	; () banked
  1592  0075A0  35A5               	rlcf	((main@i+1))&0ffh,w	;volatile
  1593  0075A2  6E39               	movwf	1+(??_main+0+0)&0ffh,c
  1594  0075A4  0101               	movlb	1	; () banked
  1595  0075A6  0E12               	movlw	low(main@relayMask)	;volatile
  1596  0075A8  2438               	addwf	(??_main+0+0),c,w
  1597  0075AA  6ED9               	movwf	c:fsr2l
  1598  0075AC  0101               	movlb	1	; () banked
  1599  0075AE  0E01               	movlw	high(main@relayMask)	;volatile
  1600  0075B0  2039               	addwfc	(??_main+0+1),c,w
  1601  0075B2  6EDA               	movwf	1+c:fsr2l
  1602  0075B4  CFDE F025          	movff	postinc2,(c:?_setupIO)
  1603  0075B8  CFDD F026          	movff	postdec2,(c:?_setupIO+1)
  1604  0075BC  0E00               	movlw	high(0)
  1605  0075BE  6E28               	movwf	(1+((c:?_setupIO)+02h)),c
  1606  0075C0  0E00               	movlw	low(0)
  1607  0075C2  6E27               	movwf	(0+((c:?_setupIO)+02h)),c
  1608  0075C4  EC57  F039         	call	_setupIO	;wreg free
  1609                           opt subtitle "HI-TECH Software Omniscient Code Generator (Lite mode) build 49521"
  1610                           
  1611  0075C8  C1A4  F025         	movff	(main@i),(c:?_Read_b_eep)	;volatile
  1612  0075CC  C1A5  F026         	movff	(main@i+1),(c:?_Read_b_eep+1)	;volatile
  1613  0075D0  EC6B  F037         	call	_Read_b_eep	;wreg free
  1614  0075D4  6E38               	movwf	(??_main+0+0)&0ffh,c
  1615  0075D6  6A39               	clrf	(??_main+0+0+1)&0ffh,c
  1616                           opt subtitle "HI-TECH Software Omniscient Code Generator (Lite mode) build 49521"
  1617  0075D8  90D8               	bcf	status,0
  1618  0075DA  0101               	movlb	1	; () banked
  1619  0075DC  0101               	movlb	1	; () banked
  1620  0075DE  35A4               	rlcf	((main@i))&0ffh,w	;volatile
  1621  0075E0  6E3A               	movwf	(??_main+2+0)&0ffh,c
  1622  0075E2  0101               	movlb	1	; () banked
  1623  0075E4  0101               	movlb	1	; () banked
  1624  0075E6  35A5               	rlcf	((main@i+1))&0ffh,w	;volatile
  1625  0075E8  6E3B               	movwf	1+(??_main+2+0)&0ffh,c
  1626  0075EA  0101               	movlb	1	; () banked
  1627  0075EC  0E7E               	movlw	low(main@buttonLatch)	;volatile
  1628  0075EE  243A               	addwf	(??_main+2+0),c,w
  1629  0075F0  6ED9               	movwf	c:fsr2l
  1630  0075F2  0101               	movlb	1	; () banked
  1631  0075F4  0E01               	movlw	high(main@buttonLatch)	;volatile
  1632  0075F6  203B               	addwfc	(??_main+2+1),c,w
  1633  0075F8  6EDA               	movwf	1+c:fsr2l
  1634  0075FA  C038  FFDE         	movff	??_main+0+0,postinc2
  1635  0075FE  C039  FFDD         	movff	??_main+0+1,postdec2
  1636                           opt subtitle "HI-TECH Software Omniscient Code Generator (Lite mode) build 49521"
  1637                           
  1638                           opt pagewidth 120
  1639  007602                     l1407:; BSR set to: 1
  1640                           opt subtitle "HI-TECH Software Omniscient Code Generator (Lite mode) build 49521"
  1641  007602  0101               	movlb	1	; () banked
  1642  007604  0101               	movlb	1	; () banked
  1643  007606  4BA4               	infsnz	((main@i))&0ffh	;volatile
  1644  007608  2BA5               	incf	((main@i+1))&0ffh	;volatile
  1645                           opt subtitle "HI-TECH Software Omniscient Code Generator (Lite mode) build 49521"
  1646  00760A                     l1409:; BSR set to: 1
  1647                           opt subtitle "HI-TECH Software Omniscient Code Generator (Lite mode) build 49521"
  1648  00760A  0E09               	movlw	09h
  1649  00760C  0101               	movlb	1	; () banked
  1650  00760E  0101               	movlb	1	; () banked
  1651  007610  5DA4               	subwf	((main@i))&0ffh,w	;volatile
  1652  007612  0E00               	movlw	0
  1653  007614  0101               	movlb	1	; () banked
  1654  007616  59A5               	subwfb	((main@i+1))&0ffh,w	;volatile
  1655  007618  A0D8               	btfss	status,0
  1656  00761A  D001               	goto	u871
  1657  00761C  D001               	goto	u870
  1658  00761E                     u871:
  1659  00761E  D768               	goto	l1405
  1660  007620                     u870:
  1661  007620  D001               	goto	l1411
  1662                           opt subtitle "HI-TECH Software Omniscient Code Generator (Lite mode) build 49521"
  1663  007622                     l82:; BSR set to: 1
  1664                           opt subtitle "HI-TECH Software Omniscient Code Generator (Lite mode) build 49521"
  1665  007622  D000               	goto	l1411
  1666                           opt subtitle "HI-TECH Software Omniscient Code Generator (Lite mode) build 49521"
  1667                           
  1668                           opt pagewidth 120
  1669                           
  1670  007624                     l83:; BSR set to: 1
  1671                           opt subtitle "HI-TECH Software Omniscient Code Generator (Lite mode) build 49521"
  1672                           
  1673                           opt pagewidth 120
  1674  007624                     l1411:; BSR set to: 1
  1675                           opt subtitle "HI-TECH Software Omniscient Code Generator (Lite mode) build 49521"
  1676                           
  1677                           opt pagewidth 120
  1678  007624  0E00               	movlw	high(014h)
  1679  007626  6E26               	movwf	((c:?__delay_ms+1)),c
  1680  007628  0E14               	movlw	low(014h)
  1681  00762A  6E25               	movwf	((c:?__delay_ms)),c
  1682  00762C  ECC0  F037         	call	__delay_ms	;wreg free
  1683                           opt subtitle "HI-TECH Software Omniscient Code Generator (Lite mode) build 49521"
  1684                           
  1685  007630                     l1413:
  1686                           opt subtitle "HI-TECH Software Omniscient Code Generator (Lite mode) build 49521"
  1687  007630  0E00               	movlw	high(0)
  1688  007632  0101               	movlb	1	; () banked
  1689  007634  0101               	movlb	1	; () banked
  1690  007636  6FA5               	movwf	((main@i+1))&0ffh	;volatile
  1691  007638  0E00               	movlw	low(0)
  1692  00763A  0101               	movlb	1	; () banked
  1693  00763C  6FA4               	movwf	((main@i))&0ffh	;volatile
  1694                           opt subtitle "HI-TECH Software Omniscient Code Generator (Lite mode) build 49521"
  1695  00763E                     l1415:; BSR set to: 1
  1696                           opt subtitle "HI-TECH Software Omniscient Code Generator (Lite mode) build 49521"
  1697  00763E  0E09               	movlw	09h
  1698  007640  0101               	movlb	1	; () banked
  1699  007642  0101               	movlb	1	; () banked
  1700  007644  5DA4               	subwf	((main@i))&0ffh,w	;volatile
  1701  007646  0E00               	movlw	0
  1702  007648  0101               	movlb	1	; () banked
  1703  00764A  59A5               	subwfb	((main@i+1))&0ffh,w	;volatile
  1704  00764C  A0D8               	btfss	status,0
  1705  00764E  D001               	goto	u881
  1706  007650  D001               	goto	u880
  1707  007652                     u881:
  1708  007652  D002               	goto	l1419
  1709  007654                     u880:
  1710  007654  D0B3               	goto	l1433
  1711                           opt subtitle "HI-TECH Software Omniscient Code Generator (Lite mode) build 49521"
  1712  007656                     l1417:; BSR set to: 1
  1713                           opt subtitle "HI-TECH Software Omniscient Code Generator (Lite mode) build 49521"
  1714  007656  D0B2               	goto	l1433
  1715                           opt subtitle "HI-TECH Software Omniscient Code Generator (Lite mode) build 49521"
  1716                           
  1717  007658                     l84:; BSR set to: 1
  1718                           opt subtitle "HI-TECH Software Omniscient Code Generator (Lite mode) build 49521"
  1719                           
  1720                           opt pagewidth 120
  1721  007658                     l1419:; BSR set to: 1
  1722                           opt subtitle "HI-TECH Software Omniscient Code Generator (Lite mode) build 49521"
  1723                           
  1724                           opt pagewidth 120
  1725  007658  90D8               	bcf	status,0
  1726  00765A  0101               	movlb	1	; () banked
  1727  00765C  0101               	movlb	1	; () banked
  1728  00765E  35A4               	rlcf	((main@i))&0ffh,w	;volatile
  1729  007660  6E38               	movwf	(??_main+0+0)&0ffh,c
  1730  007662  0101               	movlb	1	; () banked
  1731  007664  0101               	movlb	1	; () banked
  1732  007666  35A5               	rlcf	((main@i+1))&0ffh,w	;volatile
  1733  007668  6E39               	movwf	1+(??_main+0+0)&0ffh,c
  1734  00766A  0101               	movlb	1	; () banked
  1735  00766C  0E00               	movlw	low(main@buttonMask)	;volatile
  1736  00766E  2438               	addwf	(??_main+0+0),c,w
  1737  007670  6ED9               	movwf	c:fsr2l
  1738  007672  0101               	movlb	1	; () banked
  1739  007674  0E01               	movlw	high(main@buttonMask)	;volatile
  1740  007676  2039               	addwfc	(??_main+0+1),c,w
  1741  007678  6EDA               	movwf	1+c:fsr2l
  1742  00767A  CFDE F025          	movff	postinc2,(c:?_checkButton)
  1743  00767E  CFDD F026          	movff	postdec2,(c:?_checkButton+1)
  1744  007682  EC5E  F038         	call	_checkButton	;wreg free
  1745  007686  6E3A               	movwf	(??_main+2+0)&0ffh,c
  1746  007688  043A               	decf	((??_main+2+0)),c,w
  1747  00768A  A4D8               	btfss	status,2
  1748  00768C  D001               	goto	u891
  1749  00768E  D001               	goto	u890
  1750  007690                     u891:
  1751  007690  D042               	goto	l1425
  1752  007692                     u890:
  1753                           opt subtitle "HI-TECH Software Omniscient Code Generator (Lite mode) build 49521"
  1754                           
  1755  007692                     l1421:
  1756                           opt subtitle "HI-TECH Software Omniscient Code Generator (Lite mode) build 49521"
  1757                           
  1758  007692  90D8               	bcf	status,0
  1759  007694  0101               	movlb	1	; () banked
  1760  007696  0101               	movlb	1	; () banked
  1761  007698  35A4               	rlcf	((main@i))&0ffh,w	;volatile
  1762  00769A  6E38               	movwf	(??_main+0+0)&0ffh,c
  1763  00769C  0101               	movlb	1	; () banked
  1764  00769E  0101               	movlb	1	; () banked
  1765  0076A0  35A5               	rlcf	((main@i+1))&0ffh,w	;volatile
  1766  0076A2  6E39               	movwf	1+(??_main+0+0)&0ffh,c
  1767  0076A4  0101               	movlb	1	; () banked
  1768  0076A6  0E24               	movlw	low(main@buttonDown)	;volatile
  1769  0076A8  2438               	addwf	(??_main+0+0),c,w
  1770  0076AA  6ED9               	movwf	c:fsr2l
  1771  0076AC  0101               	movlb	1	; () banked
  1772  0076AE  0E01               	movlw	high(main@buttonDown)	;volatile
  1773  0076B0  2039               	addwfc	(??_main+0+1),c,w
  1774  0076B2  6EDA               	movwf	1+c:fsr2l
  1775  0076B4  50DE               	movf	postinc2,w
  1776  0076B6  10DD               	iorwf	postdec2,w
  1777  0076B8  A4D8               	btfss	status,2
  1778  0076BA  D001               	goto	u901
  1779  0076BC  D001               	goto	u900
  1780  0076BE                     u901:
  1781  0076BE  D015               	goto	l87
  1782  0076C0                     u900:
  1783                           opt subtitle "HI-TECH Software Omniscient Code Generator (Lite mode) build 49521"
  1784                           
  1785  0076C0                     l1423:; BSR set to: 1
  1786                           opt subtitle "HI-TECH Software Omniscient Code Generator (Lite mode) build 49521"
  1787                           
  1788                           opt pagewidth 120
  1789  0076C0  90D8               	bcf	status,0
  1790  0076C2  0101               	movlb	1	; () banked
  1791  0076C4  0101               	movlb	1	; () banked
  1792  0076C6  35A4               	rlcf	((main@i))&0ffh,w	;volatile
  1793  0076C8  6E38               	movwf	(??_main+0+0)&0ffh,c
  1794  0076CA  0101               	movlb	1	; () banked
  1795  0076CC  0101               	movlb	1	; () banked
  1796  0076CE  35A5               	rlcf	((main@i+1))&0ffh,w	;volatile
  1797  0076D0  6E39               	movwf	1+(??_main+0+0)&0ffh,c
  1798  0076D2  0101               	movlb	1	; () banked
  1799  0076D4  0E90               	movlw	low(main@buttonEventDown)	;volatile
  1800  0076D6  2438               	addwf	(??_main+0+0),c,w
  1801  0076D8  6ED9               	movwf	c:fsr2l
  1802  0076DA  0101               	movlb	1	; () banked
  1803  0076DC  0E01               	movlw	high(main@buttonEventDown)	;volatile
  1804  0076DE  2039               	addwfc	(??_main+0+1),c,w
  1805  0076E0  6EDA               	movwf	1+c:fsr2l
  1806  0076E2  0E01               	movlw	low(01h)
  1807  0076E4  6EDE               	movwf	postinc2
  1808  0076E6  0E00               	movlw	high(01h)
  1809  0076E8  6EDD               	movwf	postdec2
  1810                           opt subtitle "HI-TECH Software Omniscient Code Generator (Lite mode) build 49521"
  1811                           
  1812  0076EA                     l87:; BSR set to: 1
  1813                           opt subtitle "HI-TECH Software Omniscient Code Generator (Lite mode) build 49521"
  1814                           
  1815                           opt pagewidth 120
  1816                           
  1817  0076EA  90D8               	bcf	status,0
  1818  0076EC  0101               	movlb	1	; () banked
  1819  0076EE  0101               	movlb	1	; () banked
  1820  0076F0  35A4               	rlcf	((main@i))&0ffh,w	;volatile
  1821  0076F2  6E38               	movwf	(??_main+0+0)&0ffh,c
  1822  0076F4  0101               	movlb	1	; () banked
  1823  0076F6  0101               	movlb	1	; () banked
  1824  0076F8  35A5               	rlcf	((main@i+1))&0ffh,w	;volatile
  1825  0076FA  6E39               	movwf	1+(??_main+0+0)&0ffh,c
  1826  0076FC  0101               	movlb	1	; () banked
  1827  0076FE  0E24               	movlw	low(main@buttonDown)	;volatile
  1828  007700  2438               	addwf	(??_main+0+0),c,w
  1829  007702  6ED9               	movwf	c:fsr2l
  1830  007704  0101               	movlb	1	; () banked
  1831  007706  0E01               	movlw	high(main@buttonDown)	;volatile
  1832  007708  2039               	addwfc	(??_main+0+1),c,w
  1833  00770A  6EDA               	movwf	1+c:fsr2l
  1834  00770C  0E01               	movlw	low(01h)
  1835  00770E  6EDE               	movwf	postinc2
  1836  007710  0E00               	movlw	high(01h)
  1837  007712  6EDD               	movwf	postdec2
  1838                           opt subtitle "HI-TECH Software Omniscient Code Generator (Lite mode) build 49521"
  1839                           
  1840  007714  D043               	goto	l1429
  1841                           opt subtitle "HI-TECH Software Omniscient Code Generator (Lite mode) build 49521"
  1842                           
  1843  007716                     l86:; BSR set to: 1
  1844                           opt subtitle "HI-TECH Software Omniscient Code Generator (Lite mode) build 49521"
  1845                           
  1846                           opt pagewidth 120
  1847  007716                     l1425:
  1848                           opt subtitle "HI-TECH Software Omniscient Code Generator (Lite mode) build 49521"
  1849                           
  1850                           opt pagewidth 120
  1851  007716  90D8               	bcf	status,0
  1852  007718  0101               	movlb	1	; () banked
  1853  00771A  0101               	movlb	1	; () banked
  1854  00771C  35A4               	rlcf	((main@i))&0ffh,w	;volatile
  1855  00771E  6E38               	movwf	(??_main+0+0)&0ffh,c
  1856  007720  0101               	movlb	1	; () banked
  1857  007722  0101               	movlb	1	; () banked
  1858  007724  35A5               	rlcf	((main@i+1))&0ffh,w	;volatile
  1859  007726  6E39               	movwf	1+(??_main+0+0)&0ffh,c
  1860  007728  0101               	movlb	1	; () banked
  1861  00772A  0E24               	movlw	low(main@buttonDown)	;volatile
  1862  00772C  2438               	addwf	(??_main+0+0),c,w
  1863  00772E  6ED9               	movwf	c:fsr2l
  1864  007730  0101               	movlb	1	; () banked
  1865  007732  0E01               	movlw	high(main@buttonDown)	;volatile
  1866  007734  2039               	addwfc	(??_main+0+1),c,w
  1867  007736  6EDA               	movwf	1+c:fsr2l
  1868  007738  50DE               	movf	postinc2,w
  1869  00773A  0A01               	xorlw	01h
  1870  00773C  10DD               	iorwf	postdec2,w
  1871  00773E  A4D8               	btfss	status,2
  1872  007740  D001               	goto	u911
  1873  007742  D001               	goto	u910
  1874  007744                     u911:
  1875  007744  D015               	goto	l89
  1876  007746                     u910:
  1877                           opt subtitle "HI-TECH Software Omniscient Code Generator (Lite mode) build 49521"
  1878                           
  1879  007746                     l1427:; BSR set to: 1
  1880                           opt subtitle "HI-TECH Software Omniscient Code Generator (Lite mode) build 49521"
  1881                           
  1882                           opt pagewidth 120
  1883  007746  90D8               	bcf	status,0
  1884  007748  0101               	movlb	1	; () banked
  1885  00774A  0101               	movlb	1	; () banked
  1886  00774C  35A4               	rlcf	((main@i))&0ffh,w	;volatile
  1887  00774E  6E38               	movwf	(??_main+0+0)&0ffh,c
  1888  007750  0101               	movlb	1	; () banked
  1889  007752  0101               	movlb	1	; () banked
  1890  007754  35A5               	rlcf	((main@i+1))&0ffh,w	;volatile
  1891  007756  6E39               	movwf	1+(??_main+0+0)&0ffh,c
  1892  007758  0101               	movlb	1	; () banked
  1893  00775A  0E5A               	movlw	low(main@buttonEventUp)	;volatile
  1894  00775C  2438               	addwf	(??_main+0+0),c,w
  1895  00775E  6ED9               	movwf	c:fsr2l
  1896  007760  0101               	movlb	1	; () banked
  1897  007762  0E01               	movlw	high(main@buttonEventUp)	;volatile
  1898  007764  2039               	addwfc	(??_main+0+1),c,w
  1899  007766  6EDA               	movwf	1+c:fsr2l
  1900  007768  0E01               	movlw	low(01h)
  1901  00776A  6EDE               	movwf	postinc2
  1902  00776C  0E00               	movlw	high(01h)
  1903  00776E  6EDD               	movwf	postdec2
  1904                           opt subtitle "HI-TECH Software Omniscient Code Generator (Lite mode) build 49521"
  1905                           
  1906  007770                     l89:; BSR set to: 1
  1907                           opt subtitle "HI-TECH Software Omniscient Code Generator (Lite mode) build 49521"
  1908                           
  1909                           opt pagewidth 120
  1910                           
  1911  007770  90D8               	bcf	status,0
  1912  007772  0101               	movlb	1	; () banked
  1913  007774  0101               	movlb	1	; () banked
  1914  007776  35A4               	rlcf	((main@i))&0ffh,w	;volatile
  1915  007778  6E38               	movwf	(??_main+0+0)&0ffh,c
  1916  00777A  0101               	movlb	1	; () banked
  1917  00777C  0101               	movlb	1	; () banked
  1918  00777E  35A5               	rlcf	((main@i+1))&0ffh,w	;volatile
  1919  007780  6E39               	movwf	1+(??_main+0+0)&0ffh,c
  1920  007782  0101               	movlb	1	; () banked
  1921  007784  0E24               	movlw	low(main@buttonDown)	;volatile
  1922  007786  2438               	addwf	(??_main+0+0),c,w
  1923  007788  6ED9               	movwf	c:fsr2l
  1924  00778A  0101               	movlb	1	; () banked
  1925  00778C  0E01               	movlw	high(main@buttonDown)	;volatile
  1926  00778E  2039               	addwfc	(??_main+0+1),c,w
  1927  007790  6EDA               	movwf	1+c:fsr2l
  1928  007792  0E00               	movlw	low(0)
  1929  007794  6EDE               	movwf	postinc2
  1930  007796  0E00               	movlw	high(0)
  1931  007798  6EDD               	movwf	postdec2
  1932  00779A  D000               	goto	l1429
  1933                           opt subtitle "HI-TECH Software Omniscient Code Generator (Lite mode) build 49521"
  1934                           
  1935  00779C                     l88:; BSR set to: 1
  1936                           opt subtitle "HI-TECH Software Omniscient Code Generator (Lite mode) build 49521"
  1937                           
  1938                           opt pagewidth 120
  1939  00779C                     l1429:; BSR set to: 1
  1940                           opt subtitle "HI-TECH Software Omniscient Code Generator (Lite mode) build 49521"
  1941  00779C  0101               	movlb	1	; () banked
  1942  00779E  0101               	movlb	1	; () banked
  1943  0077A0  4BA4               	infsnz	((main@i))&0ffh	;volatile
  1944  0077A2  2BA5               	incf	((main@i+1))&0ffh	;volatile
  1945                           opt subtitle "HI-TECH Software Omniscient Code Generator (Lite mode) build 49521"
  1946  0077A4                     l1431:; BSR set to: 1
  1947                           opt subtitle "HI-TECH Software Omniscient Code Generator (Lite mode) build 49521"
  1948  0077A4  0E09               	movlw	09h
  1949  0077A6  0101               	movlb	1	; () banked
  1950  0077A8  0101               	movlb	1	; () banked
  1951  0077AA  5DA4               	subwf	((main@i))&0ffh,w	;volatile
  1952  0077AC  0E00               	movlw	0
  1953  0077AE  0101               	movlb	1	; () banked
  1954  0077B0  59A5               	subwfb	((main@i+1))&0ffh,w	;volatile
  1955  0077B2  A0D8               	btfss	status,0
  1956  0077B4  D001               	goto	u921
  1957  0077B6  D001               	goto	u920
  1958  0077B8                     u921:
  1959  0077B8  D74F               	goto	l1419
  1960  0077BA                     u920:
  1961  0077BA  D000               	goto	l1433
  1962                           opt subtitle "HI-TECH Software Omniscient Code Generator (Lite mode) build 49521"
  1963  0077BC                     l85:; BSR set to: 1
  1964                           opt subtitle "HI-TECH Software Omniscient Code Generator (Lite mode) build 49521"
  1965                           
  1966                           opt pagewidth 120
  1967  0077BC                     l1433:; BSR set to: 1
  1968                           opt subtitle "HI-TECH Software Omniscient Code Generator (Lite mode) build 49521"
  1969                           
  1970                           opt pagewidth 120
  1971                           
  1972  0077BC  0E05               	movlw	high(0510h)
  1973  0077BE  6E26               	movwf	((c:?_checkButton+1)),c
  1974  0077C0  0E10               	movlw	low(0510h)
  1975  0077C2  6E25               	movwf	((c:?_checkButton)),c
  1976  0077C4  EC5E  F038         	call	_checkButton	;wreg free
  1977  0077C8  6E38               	movwf	(??_main+0+0)&0ffh,c
  1978  0077CA  0438               	decf	((??_main+0+0)),c,w
  1979  0077CC  A4D8               	btfss	status,2
  1980  0077CE  D001               	goto	u931
  1981  0077D0  D001               	goto	u930
  1982  0077D2                     u931:
  1983  0077D2  D19A               	goto	l1475
  1984  0077D4                     u930:
  1985                           opt subtitle "HI-TECH Software Omniscient Code Generator (Lite mode) build 49521"
  1986                           
  1987  0077D4                     l1435:
  1988                           opt subtitle "HI-TECH Software Omniscient Code Generator (Lite mode) build 49521"
  1989                           
  1990  0077D4  0101               	movlb	1	; () banked
  1991  0077D6  0101               	movlb	1	; () banked
  1992  0077D8  51A3               	movf	((main@programState+1))&0ffh,w	;volatile
  1993  0077DA  11A2               	iorwf ((main@programState))&0ffh,w	;volatile
  1994                           opt subtitle "HI-TECH Software Omniscient Code Generator (Lite mode) build 49521"
  1995  0077DC  A4D8               	btfss	status,2
  1996  0077DE  D001               	goto	u941
  1997  0077E0  D001               	goto	u940
  1998  0077E2                     u941:
  1999  0077E2  D0AC               	goto	l91
  2000  0077E4                     u940:
  2001                           opt subtitle "HI-TECH Software Omniscient Code Generator (Lite mode) build 49521"
  2002                           
  2003  0077E4                     l1437:; BSR set to: 1
  2004                           opt subtitle "HI-TECH Software Omniscient Code Generator (Lite mode) build 49521"
  2005                           
  2006                           opt pagewidth 120
  2007  0077E4  0E01               	movlw	high(01F4h)
  2008  0077E6  6E26               	movwf	((c:?__delay_ms+1)),c
  2009  0077E8  0EF4               	movlw	low(01F4h)
  2010  0077EA  6E25               	movwf	((c:?__delay_ms)),c
  2011  0077EC  ECC0  F037         	call	__delay_ms	;wreg free
  2012                           opt subtitle "HI-TECH Software Omniscient Code Generator (Lite mode) build 49521"
  2013                           
  2014  0077F0                     l1439:
  2015                           opt subtitle "HI-TECH Software Omniscient Code Generator (Lite mode) build 49521"
  2016  0077F0  0E00               	movlw	high(0)
  2017  0077F2  0101               	movlb	1	; () banked
  2018  0077F4  0101               	movlb	1	; () banked
  2019  0077F6  6FA5               	movwf	((main@i+1))&0ffh	;volatile
  2020  0077F8  0E00               	movlw	low(0)
  2021  0077FA  0101               	movlb	1	; () banked
  2022  0077FC  6FA4               	movwf	((main@i))&0ffh	;volatile
  2023                           opt subtitle "HI-TECH Software Omniscient Code Generator (Lite mode) build 49521"
  2024  0077FE                     l1441:; BSR set to: 1
  2025                           opt subtitle "HI-TECH Software Omniscient Code Generator (Lite mode) build 49521"
  2026  0077FE  0E09               	movlw	09h
  2027  007800  0101               	movlb	1	; () banked
  2028  007802  0101               	movlb	1	; () banked
  2029  007804  5DA4               	subwf	((main@i))&0ffh,w	;volatile
  2030  007806  0E00               	movlw	0
  2031  007808  0101               	movlb	1	; () banked
  2032  00780A  59A5               	subwfb	((main@i+1))&0ffh,w	;volatile
  2033  00780C  A0D8               	btfss	status,0
  2034  00780E  D001               	goto	u951
  2035  007810  D001               	goto	u950
  2036  007812                     u951:
  2037  007812  D002               	goto	l1445
  2038  007814                     u950:
  2039  007814  D08C               	goto	l1455
  2040                           opt subtitle "HI-TECH Software Omniscient Code Generator (Lite mode) build 49521"
  2041  007816                     l1443:; BSR set to: 1
  2042                           opt subtitle "HI-TECH Software Omniscient Code Generator (Lite mode) build 49521"
  2043  007816  D08B               	goto	l1455
  2044                           opt subtitle "HI-TECH Software Omniscient Code Generator (Lite mode) build 49521"
  2045                           
  2046  007818                     l92:; BSR set to: 1
  2047                           opt subtitle "HI-TECH Software Omniscient Code Generator (Lite mode) build 49521"
  2048                           
  2049                           opt pagewidth 120
  2050  007818                     l1445:; BSR set to: 1
  2051                           opt subtitle "HI-TECH Software Omniscient Code Generator (Lite mode) build 49521"
  2052                           
  2053                           opt pagewidth 120
  2054  007818  0E05               	movlw	high(0520h)
  2055  00781A  6E26               	movwf	((c:?_checkButton+1)),c
  2056  00781C  0E20               	movlw	low(0520h)
  2057  00781E  6E25               	movwf	((c:?_checkButton)),c
  2058  007820  EC5E  F038         	call	_checkButton	;wreg free
  2059  007824  0900               	iorlw	0
  2060  007826  0E00               	movlw	0
  2061  007828  B4D8               	btfsc	status,2
  2062  00782A  0E01               	movlw	1
  2063  00782C  6E2E               	movwf	((c:?_setOutputs)),c
  2064  00782E  6A2F               	clrf	((c:?_setOutputs+1)),c
  2065  007830  90D8               	bcf	status,0
  2066  007832  0101               	movlb	1	; () banked
  2067  007834  0101               	movlb	1	; () banked
  2068  007836  35A4               	rlcf	((main@i))&0ffh,w	;volatile
  2069  007838  6E38               	movwf	(??_main+0+0)&0ffh,c
  2070  00783A  0101               	movlb	1	; () banked
  2071  00783C  0101               	movlb	1	; () banked
  2072  00783E  35A5               	rlcf	((main@i+1))&0ffh,w	;volatile
  2073  007840  6E39               	movwf	1+(??_main+0+0)&0ffh,c
  2074  007842  0101               	movlb	1	; () banked
  2075  007844  0E36               	movlw	low(main@leftLEDMask)	;volatile
  2076  007846  2438               	addwf	(??_main+0+0),c,w
  2077  007848  6ED9               	movwf	c:fsr2l
  2078  00784A  0101               	movlb	1	; () banked
  2079  00784C  0E01               	movlw	high(main@leftLEDMask)	;volatile
  2080  00784E  2039               	addwfc	(??_main+0+1),c,w
  2081  007850  6EDA               	movwf	1+c:fsr2l
  2082  007852  CFDE F030          	movff	postinc2,0+((c:?_setOutputs)+02h)
  2083  007856  CFDD F031          	movff	postdec2,1+((c:?_setOutputs)+02h)
  2084  00785A  90D8               	bcf	status,0
  2085  00785C  0101               	movlb	1	; () banked
  2086  00785E  0101               	movlb	1	; () banked
  2087  007860  35A4               	rlcf	((main@i))&0ffh,w	;volatile
  2088  007862  6E3A               	movwf	(??_main+2+0)&0ffh,c
  2089  007864  0101               	movlb	1	; () banked
  2090  007866  0101               	movlb	1	; () banked
  2091  007868  35A5               	rlcf	((main@i+1))&0ffh,w	;volatile
  2092  00786A  6E3B               	movwf	1+(??_main+2+0)&0ffh,c
  2093  00786C  0101               	movlb	1	; () banked
  2094  00786E  0E48               	movlw	low(main@rightLEDMask)	;volatile
  2095  007870  243A               	addwf	(??_main+2+0),c,w
  2096  007872  6ED9               	movwf	c:fsr2l
  2097  007874  0101               	movlb	1	; () banked
  2098  007876  0E01               	movlw	high(main@rightLEDMask)	;volatile
  2099  007878  203B               	addwfc	(??_main+2+1),c,w
  2100  00787A  6EDA               	movwf	1+c:fsr2l
  2101  00787C  CFDE F032          	movff	postinc2,0+((c:?_setOutputs)+04h)
  2102  007880  CFDD F033          	movff	postdec2,1+((c:?_setOutputs)+04h)
  2103  007884  0EFF               	movlw	high(0FFFFh)
  2104  007886  6E35               	movwf	(1+((c:?_setOutputs)+06h)),c
  2105  007888  0EFF               	movlw	low(0FFFFh)
  2106  00788A  6E34               	movwf	(0+((c:?_setOutputs)+06h)),c
  2107  00788C  90D8               	bcf	status,0
  2108  00788E  0101               	movlb	1	; () banked
  2109  007890  0101               	movlb	1	; () banked
  2110  007892  35A4               	rlcf	((main@i))&0ffh,w	;volatile
  2111  007894  6E3C               	movwf	(??_main+4+0)&0ffh,c
  2112  007896  0101               	movlb	1	; () banked
  2113  007898  0101               	movlb	1	; () banked
  2114  00789A  35A5               	rlcf	((main@i+1))&0ffh,w	;volatile
  2115  00789C  6E3D               	movwf	1+(??_main+4+0)&0ffh,c
  2116  00789E  0101               	movlb	1	; () banked
  2117  0078A0  0E7E               	movlw	low(main@buttonLatch)	;volatile
  2118  0078A2  243C               	addwf	(??_main+4+0),c,w
  2119  0078A4  6ED9               	movwf	c:fsr2l
  2120  0078A6  0101               	movlb	1	; () banked
  2121  0078A8  0E01               	movlw	high(main@buttonLatch)	;volatile
  2122  0078AA  203D               	addwfc	(??_main+4+1),c,w
  2123  0078AC  6EDA               	movwf	1+c:fsr2l
  2124  0078AE  CFDE F036          	movff	postinc2,0+((c:?_setOutputs)+08h)
  2125  0078B2  CFDD F037          	movff	postdec2,1+((c:?_setOutputs)+08h)
  2126  0078B6  EC24  F038         	call	_setOutputs	;wreg free
  2127                           opt subtitle "HI-TECH Software Omniscient Code Generator (Lite mode) build 49521"
  2128                           
  2129  0078BA                     l1447:
  2130                           opt subtitle "HI-TECH Software Omniscient Code Generator (Lite mode) build 49521"
  2131  0078BA  90D8               	bcf	status,0
  2132  0078BC  0101               	movlb	1	; () banked
  2133  0078BE  0101               	movlb	1	; () banked
  2134  0078C0  35A4               	rlcf	((main@i))&0ffh,w	;volatile
  2135  0078C2  6E38               	movwf	(??_main+0+0)&0ffh,c
  2136  0078C4  0101               	movlb	1	; () banked
  2137  0078C6  0101               	movlb	1	; () banked
  2138  0078C8  35A5               	rlcf	((main@i+1))&0ffh,w	;volatile
  2139  0078CA  6E39               	movwf	1+(??_main+0+0)&0ffh,c
  2140  0078CC  0101               	movlb	1	; () banked
  2141  0078CE  0E5A               	movlw	low(main@buttonEventUp)	;volatile
  2142  0078D0  2438               	addwf	(??_main+0+0),c,w
  2143  0078D2  6ED9               	movwf	c:fsr2l
  2144  0078D4  0101               	movlb	1	; () banked
  2145  0078D6  0E01               	movlw	high(main@buttonEventUp)	;volatile
  2146  0078D8  2039               	addwfc	(??_main+0+1),c,w
  2147  0078DA  6EDA               	movwf	1+c:fsr2l
  2148  0078DC  0E00               	movlw	low(0)
  2149  0078DE  6EDE               	movwf	postinc2
  2150  0078E0  0E00               	movlw	high(0)
  2151  0078E2  6EDD               	movwf	postdec2
  2152                           opt subtitle "HI-TECH Software Omniscient Code Generator (Lite mode) build 49521"
  2153                           
  2154  0078E4                     l1449:; BSR set to: 1
  2155                           opt subtitle "HI-TECH Software Omniscient Code Generator (Lite mode) build 49521"
  2156                           
  2157  0078E4  90D8               	bcf	status,0
  2158  0078E6  0101               	movlb	1	; () banked
  2159  0078E8  0101               	movlb	1	; () banked
  2160  0078EA  35A4               	rlcf	((main@i))&0ffh,w	;volatile
  2161  0078EC  6E38               	movwf	(??_main+0+0)&0ffh,c
  2162  0078EE  0101               	movlb	1	; () banked
  2163  0078F0  0101               	movlb	1	; () banked
  2164  0078F2  35A5               	rlcf	((main@i+1))&0ffh,w	;volatile
  2165  0078F4  6E39               	movwf	1+(??_main+0+0)&0ffh,c
  2166  0078F6  0101               	movlb	1	; () banked
  2167  0078F8  0E90               	movlw	low(main@buttonEventDown)	;volatile
  2168  0078FA  2438               	addwf	(??_main+0+0),c,w
  2169  0078FC  6ED9               	movwf	c:fsr2l
  2170  0078FE  0101               	movlb	1	; () banked
  2171  007900  0E01               	movlw	high(main@buttonEventDown)	;volatile
  2172  007902  2039               	addwfc	(??_main+0+1),c,w
  2173  007904  6EDA               	movwf	1+c:fsr2l
  2174  007906  0E00               	movlw	low(0)
  2175  007908  6EDE               	movwf	postinc2
  2176  00790A  0E00               	movlw	high(0)
  2177  00790C  6EDD               	movwf	postdec2
  2178                           opt subtitle "HI-TECH Software Omniscient Code Generator (Lite mode) build 49521"
  2179                           
  2180  00790E                     l1451:; BSR set to: 1
  2181                           opt subtitle "HI-TECH Software Omniscient Code Generator (Lite mode) build 49521"
  2182  00790E  0101               	movlb	1	; () banked
  2183  007910  0101               	movlb	1	; () banked
  2184  007912  4BA4               	infsnz	((main@i))&0ffh	;volatile
  2185  007914  2BA5               	incf	((main@i+1))&0ffh	;volatile
  2186                           opt subtitle "HI-TECH Software Omniscient Code Generator (Lite mode) build 49521"
  2187  007916                     l1453:; BSR set to: 1
  2188                           opt subtitle "HI-TECH Software Omniscient Code Generator (Lite mode) build 49521"
  2189  007916  0E09               	movlw	09h
  2190  007918  0101               	movlb	1	; () banked
  2191  00791A  0101               	movlb	1	; () banked
  2192  00791C  5DA4               	subwf	((main@i))&0ffh,w	;volatile
  2193  00791E  0E00               	movlw	0
  2194  007920  0101               	movlb	1	; () banked
  2195  007922  59A5               	subwfb	((main@i+1))&0ffh,w	;volatile
  2196  007924  A0D8               	btfss	status,0
  2197  007926  D001               	goto	u961
  2198  007928  D001               	goto	u960
  2199  00792A                     u961:
  2200  00792A  D776               	goto	l1445
  2201  00792C                     u960:
  2202  00792C  D000               	goto	l1455
  2203                           opt subtitle "HI-TECH Software Omniscient Code Generator (Lite mode) build 49521"
  2204  00792E                     l93:; BSR set to: 1
  2205                           opt subtitle "HI-TECH Software Omniscient Code Generator (Lite mode) build 49521"
  2206                           
  2207                           opt pagewidth 120
  2208  00792E                     l1455:; BSR set to: 1
  2209                           opt subtitle "HI-TECH Software Omniscient Code Generator (Lite mode) build 49521"
  2210                           
  2211                           opt pagewidth 120
  2212  00792E  0E00               	movlw	high(01h)
  2213  007930  0101               	movlb	1	; () banked
  2214  007932  0101               	movlb	1	; () banked
  2215  007934  6FA3               	movwf	((main@programState+1))&0ffh	;volatile
  2216  007936  0E01               	movlw	low(01h)
  2217  007938  0101               	movlb	1	; () banked
  2218  00793A  6FA2               	movwf	((main@programState))&0ffh	;volatile
  2219                           opt subtitle "HI-TECH Software Omniscient Code Generator (Lite mode) build 49521"
  2220                           
  2221  00793C                     l91:; BSR set to: 1
  2222                           opt subtitle "HI-TECH Software Omniscient Code Generator (Lite mode) build 49521"
  2223                           
  2224                           opt pagewidth 120
  2225                           
  2226  00793C  0E00               	movlw	high(0)
  2227  00793E  0101               	movlb	1	; () banked
  2228  007940  0101               	movlb	1	; () banked
  2229  007942  6FA5               	movwf	((main@i+1))&0ffh	;volatile
  2230  007944  0E00               	movlw	low(0)
  2231  007946  0101               	movlb	1	; () banked
  2232  007948  6FA4               	movwf	((main@i))&0ffh	;volatile
  2233                           opt subtitle "HI-TECH Software Omniscient Code Generator (Lite mode) build 49521"
  2234  00794A                     l1457:; BSR set to: 1
  2235                           opt subtitle "HI-TECH Software Omniscient Code Generator (Lite mode) build 49521"
  2236  00794A  0E09               	movlw	09h
  2237  00794C  0101               	movlb	1	; () banked
  2238  00794E  0101               	movlb	1	; () banked
  2239  007950  5DA4               	subwf	((main@i))&0ffh,w	;volatile
  2240  007952  0E00               	movlw	0
  2241  007954  0101               	movlb	1	; () banked
  2242  007956  59A5               	subwfb	((main@i+1))&0ffh,w	;volatile
  2243  007958  A0D8               	btfss	status,0
  2244  00795A  D001               	goto	u971
  2245  00795C  D001               	goto	u970
  2246  00795E                     u971:
  2247  00795E  D002               	goto	l1461
  2248  007960                     u970:
  2249  007960  D661               	goto	l1411
  2250                           opt subtitle "HI-TECH Software Omniscient Code Generator (Lite mode) build 49521"
  2251  007962                     l1459:; BSR set to: 1
  2252                           opt subtitle "HI-TECH Software Omniscient Code Generator (Lite mode) build 49521"
  2253  007962  D660               	goto	l1411
  2254                           opt subtitle "HI-TECH Software Omniscient Code Generator (Lite mode) build 49521"
  2255                           
  2256  007964                     l94:; BSR set to: 1
  2257                           opt subtitle "HI-TECH Software Omniscient Code Generator (Lite mode) build 49521"
  2258                           
  2259                           opt pagewidth 120
  2260  007964                     l1461:; BSR set to: 1
  2261                           opt subtitle "HI-TECH Software Omniscient Code Generator (Lite mode) build 49521"
  2262                           
  2263                           opt pagewidth 120
  2264  007964  90D8               	bcf	status,0
  2265  007966  0101               	movlb	1	; () banked
  2266  007968  0101               	movlb	1	; () banked
  2267  00796A  35A4               	rlcf	((main@i))&0ffh,w	;volatile
  2268  00796C  6E38               	movwf	(??_main+0+0)&0ffh,c
  2269  00796E  0101               	movlb	1	; () banked
  2270  007970  0101               	movlb	1	; () banked
  2271  007972  35A5               	rlcf	((main@i+1))&0ffh,w	;volatile
  2272  007974  6E39               	movwf	1+(??_main+0+0)&0ffh,c
  2273  007976  0101               	movlb	1	; () banked
  2274  007978  0E90               	movlw	low(main@buttonEventDown)	;volatile
  2275  00797A  2438               	addwf	(??_main+0+0),c,w
  2276  00797C  6ED9               	movwf	c:fsr2l
  2277  00797E  0101               	movlb	1	; () banked
  2278  007980  0E01               	movlw	high(main@buttonEventDown)	;volatile
  2279  007982  2039               	addwfc	(??_main+0+1),c,w
  2280  007984  6EDA               	movwf	1+c:fsr2l
  2281  007986  50DE               	movf	postinc2,w
  2282  007988  0A01               	xorlw	01h
  2283  00798A  10DD               	iorwf	postdec2,w
  2284  00798C  A4D8               	btfss	status,2
  2285  00798E  D001               	goto	u981
  2286  007990  D001               	goto	u980
  2287  007992                     u981:
  2288  007992  D058               	goto	l1469
  2289  007994                     u980:
  2290                           opt subtitle "HI-TECH Software Omniscient Code Generator (Lite mode) build 49521"
  2291                           
  2292  007994                     l1463:; BSR set to: 1
  2293                           opt subtitle "HI-TECH Software Omniscient Code Generator (Lite mode) build 49521"
  2294                           
  2295                           opt pagewidth 120
  2296  007994  90D8               	bcf	status,0
  2297  007996  0101               	movlb	1	; () banked
  2298  007998  0101               	movlb	1	; () banked
  2299  00799A  35A4               	rlcf	((main@i))&0ffh,w	;volatile
  2300  00799C  6E38               	movwf	(??_main+0+0)&0ffh,c
  2301  00799E  0101               	movlb	1	; () banked
  2302  0079A0  0101               	movlb	1	; () banked
  2303  0079A2  35A5               	rlcf	((main@i+1))&0ffh,w	;volatile
  2304  0079A4  6E39               	movwf	1+(??_main+0+0)&0ffh,c
  2305  0079A6  0101               	movlb	1	; () banked
  2306  0079A8  0E7E               	movlw	low(main@buttonLatch)	;volatile
  2307  0079AA  2438               	addwf	(??_main+0+0),c,w
  2308  0079AC  6ED9               	movwf	c:fsr2l
  2309  0079AE  0101               	movlb	1	; () banked
  2310  0079B0  0E01               	movlw	high(main@buttonLatch)	;volatile
  2311  0079B2  2039               	addwfc	(??_main+0+1),c,w
  2312  0079B4  6EDA               	movwf	1+c:fsr2l
  2313  0079B6  50DE               	movf	postinc2,w
  2314  0079B8  10DD               	iorwf	postdec2,w
  2315  0079BA  A4D8               	btfss	status,2
  2316  0079BC  D001               	goto	u991
  2317  0079BE  D001               	goto	u990
  2318  0079C0                     u991:
  2319  0079C0  D016               	goto	l1467
  2320  0079C2                     u990:
  2321                           opt subtitle "HI-TECH Software Omniscient Code Generator (Lite mode) build 49521"
  2322                           
  2323  0079C2                     l1465:; BSR set to: 1
  2324                           opt subtitle "HI-TECH Software Omniscient Code Generator (Lite mode) build 49521"
  2325                           
  2326                           opt pagewidth 120
  2327  0079C2  90D8               	bcf	status,0
  2328  0079C4  0101               	movlb	1	; () banked
  2329  0079C6  0101               	movlb	1	; () banked
  2330  0079C8  35A4               	rlcf	((main@i))&0ffh,w	;volatile
  2331  0079CA  6E38               	movwf	(??_main+0+0)&0ffh,c
  2332  0079CC  0101               	movlb	1	; () banked
  2333  0079CE  0101               	movlb	1	; () banked
  2334  0079D0  35A5               	rlcf	((main@i+1))&0ffh,w	;volatile
  2335  0079D2  6E39               	movwf	1+(??_main+0+0)&0ffh,c
  2336  0079D4  0101               	movlb	1	; () banked
  2337  0079D6  0E7E               	movlw	low(main@buttonLatch)	;volatile
  2338  0079D8  2438               	addwf	(??_main+0+0),c,w
  2339  0079DA  6ED9               	movwf	c:fsr2l
  2340  0079DC  0101               	movlb	1	; () banked
  2341  0079DE  0E01               	movlw	high(main@buttonLatch)	;volatile
  2342  0079E0  2039               	addwfc	(??_main+0+1),c,w
  2343  0079E2  6EDA               	movwf	1+c:fsr2l
  2344  0079E4  0E01               	movlw	low(01h)
  2345  0079E6  6EDE               	movwf	postinc2
  2346  0079E8  0E00               	movlw	high(01h)
  2347  0079EA  6EDD               	movwf	postdec2
  2348                           opt subtitle "HI-TECH Software Omniscient Code Generator (Lite mode) build 49521"
  2349                           
  2350  0079EC  D015               	goto	l98
  2351                           opt subtitle "HI-TECH Software Omniscient Code Generator (Lite mode) build 49521"
  2352                           
  2353  0079EE                     l97:; BSR set to: 1
  2354                           opt subtitle "HI-TECH Software Omniscient Code Generator (Lite mode) build 49521"
  2355                           
  2356                           opt pagewidth 120
  2357  0079EE                     l1467:; BSR set to: 1
  2358                           opt subtitle "HI-TECH Software Omniscient Code Generator (Lite mode) build 49521"
  2359                           
  2360                           opt pagewidth 120
  2361                           
  2362  0079EE  90D8               	bcf	status,0
  2363  0079F0  0101               	movlb	1	; () banked
  2364  0079F2  0101               	movlb	1	; () banked
  2365  0079F4  35A4               	rlcf	((main@i))&0ffh,w	;volatile
  2366  0079F6  6E38               	movwf	(??_main+0+0)&0ffh,c
  2367  0079F8  0101               	movlb	1	; () banked
  2368  0079FA  0101               	movlb	1	; () banked
  2369  0079FC  35A5               	rlcf	((main@i+1))&0ffh,w	;volatile
  2370  0079FE  6E39               	movwf	1+(??_main+0+0)&0ffh,c
  2371  007A00  0101               	movlb	1	; () banked
  2372  007A02  0E7E               	movlw	low(main@buttonLatch)	;volatile
  2373  007A04  2438               	addwf	(??_main+0+0),c,w
  2374  007A06  6ED9               	movwf	c:fsr2l
  2375  007A08  0101               	movlb	1	; () banked
  2376  007A0A  0E01               	movlw	high(main@buttonLatch)	;volatile
  2377  007A0C  2039               	addwfc	(??_main+0+1),c,w
  2378  007A0E  6EDA               	movwf	1+c:fsr2l
  2379  007A10  0E00               	movlw	low(0)
  2380  007A12  6EDE               	movwf	postinc2
  2381  007A14  0E00               	movlw	high(0)
  2382  007A16  6EDD               	movwf	postdec2
  2383                           opt subtitle "HI-TECH Software Omniscient Code Generator (Lite mode) build 49521"
  2384                           
  2385  007A18                     l98:; BSR set to: 1
  2386                           opt subtitle "HI-TECH Software Omniscient Code Generator (Lite mode) build 49521"
  2387                           
  2388                           opt pagewidth 120
  2389                           
  2390  007A18  90D8               	bcf	status,0
  2391  007A1A  0101               	movlb	1	; () banked
  2392  007A1C  0101               	movlb	1	; () banked
  2393  007A1E  35A4               	rlcf	((main@i))&0ffh,w	;volatile
  2394  007A20  6E38               	movwf	(??_main+0+0)&0ffh,c
  2395  007A22  0101               	movlb	1	; () banked
  2396  007A24  0101               	movlb	1	; () banked
  2397  007A26  35A5               	rlcf	((main@i+1))&0ffh,w	;volatile
  2398  007A28  6E39               	movwf	1+(??_main+0+0)&0ffh,c
  2399  007A2A  0101               	movlb	1	; () banked
  2400  007A2C  0E90               	movlw	low(main@buttonEventDown)	;volatile
  2401  007A2E  2438               	addwf	(??_main+0+0),c,w
  2402  007A30  6ED9               	movwf	c:fsr2l
  2403  007A32  0101               	movlb	1	; () banked
  2404  007A34  0E01               	movlw	high(main@buttonEventDown)	;volatile
  2405  007A36  2039               	addwfc	(??_main+0+1),c,w
  2406  007A38  6EDA               	movwf	1+c:fsr2l
  2407  007A3A  0E00               	movlw	low(0)
  2408  007A3C  6EDE               	movwf	postinc2
  2409  007A3E  0E00               	movlw	high(0)
  2410  007A40  6EDD               	movwf	postdec2
  2411  007A42  D000               	goto	l1469
  2412                           opt subtitle "HI-TECH Software Omniscient Code Generator (Lite mode) build 49521"
  2413                           
  2414  007A44                     l96:; BSR set to: 1
  2415                           opt subtitle "HI-TECH Software Omniscient Code Generator (Lite mode) build 49521"
  2416                           
  2417                           opt pagewidth 120
  2418  007A44                     l1469:; BSR set to: 1
  2419                           opt subtitle "HI-TECH Software Omniscient Code Generator (Lite mode) build 49521"
  2420                           
  2421                           opt pagewidth 120
  2422  007A44  0E05               	movlw	high(0520h)
  2423  007A46  6E26               	movwf	((c:?_checkButton+1)),c
  2424  007A48  0E20               	movlw	low(0520h)
  2425  007A4A  6E25               	movwf	((c:?_checkButton)),c
  2426  007A4C  EC5E  F038         	call	_checkButton	;wreg free
  2427  007A50  0900               	iorlw	0
  2428  007A52  0E00               	movlw	0
  2429  007A54  B4D8               	btfsc	status,2
  2430  007A56  0E01               	movlw	1
  2431  007A58  6E2E               	movwf	((c:?_setOutputs)),c
  2432  007A5A  6A2F               	clrf	((c:?_setOutputs+1)),c
  2433  007A5C  90D8               	bcf	status,0
  2434  007A5E  0101               	movlb	1	; () banked
  2435  007A60  0101               	movlb	1	; () banked
  2436  007A62  35A4               	rlcf	((main@i))&0ffh,w	;volatile
  2437  007A64  6E38               	movwf	(??_main+0+0)&0ffh,c
  2438  007A66  0101               	movlb	1	; () banked
  2439  007A68  0101               	movlb	1	; () banked
  2440  007A6A  35A5               	rlcf	((main@i+1))&0ffh,w	;volatile
  2441  007A6C  6E39               	movwf	1+(??_main+0+0)&0ffh,c
  2442  007A6E  0101               	movlb	1	; () banked
  2443  007A70  0E36               	movlw	low(main@leftLEDMask)	;volatile
  2444  007A72  2438               	addwf	(??_main+0+0),c,w
  2445  007A74  6ED9               	movwf	c:fsr2l
  2446  007A76  0101               	movlb	1	; () banked
  2447  007A78  0E01               	movlw	high(main@leftLEDMask)	;volatile
  2448  007A7A  2039               	addwfc	(??_main+0+1),c,w
  2449  007A7C  6EDA               	movwf	1+c:fsr2l
  2450  007A7E  CFDE F030          	movff	postinc2,0+((c:?_setOutputs)+02h)
  2451  007A82  CFDD F031          	movff	postdec2,1+((c:?_setOutputs)+02h)
  2452  007A86  90D8               	bcf	status,0
  2453  007A88  0101               	movlb	1	; () banked
  2454  007A8A  0101               	movlb	1	; () banked
  2455  007A8C  35A4               	rlcf	((main@i))&0ffh,w	;volatile
  2456  007A8E  6E3A               	movwf	(??_main+2+0)&0ffh,c
  2457  007A90  0101               	movlb	1	; () banked
  2458  007A92  0101               	movlb	1	; () banked
  2459  007A94  35A5               	rlcf	((main@i+1))&0ffh,w	;volatile
  2460  007A96  6E3B               	movwf	1+(??_main+2+0)&0ffh,c
  2461  007A98  0101               	movlb	1	; () banked
  2462  007A9A  0E48               	movlw	low(main@rightLEDMask)	;volatile
  2463  007A9C  243A               	addwf	(??_main+2+0),c,w
  2464  007A9E  6ED9               	movwf	c:fsr2l
  2465  007AA0  0101               	movlb	1	; () banked
  2466  007AA2  0E01               	movlw	high(main@rightLEDMask)	;volatile
  2467  007AA4  203B               	addwfc	(??_main+2+1),c,w
  2468  007AA6  6EDA               	movwf	1+c:fsr2l
  2469  007AA8  CFDE F032          	movff	postinc2,0+((c:?_setOutputs)+04h)
  2470  007AAC  CFDD F033          	movff	postdec2,1+((c:?_setOutputs)+04h)
  2471  007AB0  0EFF               	movlw	high(0FFFFh)
  2472  007AB2  6E35               	movwf	(1+((c:?_setOutputs)+06h)),c
  2473  007AB4  0EFF               	movlw	low(0FFFFh)
  2474  007AB6  6E34               	movwf	(0+((c:?_setOutputs)+06h)),c
  2475  007AB8  90D8               	bcf	status,0
  2476  007ABA  0101               	movlb	1	; () banked
  2477  007ABC  0101               	movlb	1	; () banked
  2478  007ABE  35A4               	rlcf	((main@i))&0ffh,w	;volatile
  2479  007AC0  6E3C               	movwf	(??_main+4+0)&0ffh,c
  2480  007AC2  0101               	movlb	1	; () banked
  2481  007AC4  0101               	movlb	1	; () banked
  2482  007AC6  35A5               	rlcf	((main@i+1))&0ffh,w	;volatile
  2483  007AC8  6E3D               	movwf	1+(??_main+4+0)&0ffh,c
  2484  007ACA  0101               	movlb	1	; () banked
  2485  007ACC  0E7E               	movlw	low(main@buttonLatch)	;volatile
  2486  007ACE  243C               	addwf	(??_main+4+0),c,w
  2487  007AD0  6ED9               	movwf	c:fsr2l
  2488  007AD2  0101               	movlb	1	; () banked
  2489  007AD4  0E01               	movlw	high(main@buttonLatch)	;volatile
  2490  007AD6  203D               	addwfc	(??_main+4+1),c,w
  2491  007AD8  6EDA               	movwf	1+c:fsr2l
  2492  007ADA  CFDE F036          	movff	postinc2,0+((c:?_setOutputs)+08h)
  2493  007ADE  CFDD F037          	movff	postdec2,1+((c:?_setOutputs)+08h)
  2494  007AE2  EC24  F038         	call	_setOutputs	;wreg free
  2495                           opt subtitle "HI-TECH Software Omniscient Code Generator (Lite mode) build 49521"
  2496                           
  2497  007AE6                     l1471:
  2498  007AE6  0101               	movlb	1	; () banked
  2499  007AE8  0101               	movlb	1	; () banked
  2500  007AEA  4BA4               	infsnz	((main@i))&0ffh	;volatile
  2501  007AEC  2BA5               	incf	((main@i+1))&0ffh	;volatile
  2502                           opt subtitle "HI-TECH Software Omniscient Code Generator (Lite mode) build 49521"
  2503  007AEE                     l1473:; BSR set to: 1
  2504                           opt subtitle "HI-TECH Software Omniscient Code Generator (Lite mode) build 49521"
  2505  007AEE  0E09               	movlw	09h
  2506  007AF0  0101               	movlb	1	; () banked
  2507  007AF2  0101               	movlb	1	; () banked
  2508  007AF4  5DA4               	subwf	((main@i))&0ffh,w	;volatile
  2509  007AF6  0E00               	movlw	0
  2510  007AF8  0101               	movlb	1	; () banked
  2511  007AFA  59A5               	subwfb	((main@i+1))&0ffh,w	;volatile
  2512  007AFC  A0D8               	btfss	status,0
  2513  007AFE  D001               	goto	u1001
  2514  007B00  D001               	goto	u1000
  2515  007B02                     u1001:
  2516  007B02  D730               	goto	l1461
  2517  007B04                     u1000:
  2518  007B04  D58F               	goto	l1411
  2519                           opt subtitle "HI-TECH Software Omniscient Code Generator (Lite mode) build 49521"
  2520  007B06                     l95:; BSR set to: 1
  2521                           opt subtitle "HI-TECH Software Omniscient Code Generator (Lite mode) build 49521"
  2522                           
  2523                           opt pagewidth 120
  2524                           
  2525  007B06  D58E               	goto	l1411
  2526                           opt subtitle "HI-TECH Software Omniscient Code Generator (Lite mode) build 49521"
  2527                           
  2528  007B08                     l90:; BSR set to: 1
  2529                           opt subtitle "HI-TECH Software Omniscient Code Generator (Lite mode) build 49521"
  2530                           
  2531                           opt pagewidth 120
  2532  007B08                     l1475:
  2533                           opt subtitle "HI-TECH Software Omniscient Code Generator (Lite mode) build 49521"
  2534                           
  2535                           opt pagewidth 120
  2536  007B08  0101               	movlb	1	; () banked
  2537  007B0A  0101               	movlb	1	; () banked
  2538  007B0C  05A2               	decf	((main@programState))&0ffh,w	;volatile
  2539  007B0E  11A3               	iorwf ((main@programState+1))&0ffh,w	;volatile
  2540                           opt subtitle "HI-TECH Software Omniscient Code Generator (Lite mode) build 49521"
  2541  007B10  A4D8               	btfss	status,2
  2542  007B12  D001               	goto	u1011
  2543  007B14  D001               	goto	u1010
  2544  007B16                     u1011:
  2545  007B16  D0D8               	goto	l100
  2546  007B18                     u1010:
  2547                           opt subtitle "HI-TECH Software Omniscient Code Generator (Lite mode) build 49521"
  2548                           
  2549  007B18                     l1477:; BSR set to: 1
  2550                           opt subtitle "HI-TECH Software Omniscient Code Generator (Lite mode) build 49521"
  2551                           
  2552                           opt pagewidth 120
  2553  007B18  0E07               	movlw	high(07D0h)
  2554  007B1A  6E26               	movwf	((c:?__delay_ms+1)),c
  2555  007B1C  0ED0               	movlw	low(07D0h)
  2556  007B1E  6E25               	movwf	((c:?__delay_ms)),c
  2557  007B20  ECC0  F037         	call	__delay_ms	;wreg free
  2558                           opt subtitle "HI-TECH Software Omniscient Code Generator (Lite mode) build 49521"
  2559                           
  2560  007B24                     l1479:
  2561                           opt subtitle "HI-TECH Software Omniscient Code Generator (Lite mode) build 49521"
  2562  007B24  0E00               	movlw	high(0)
  2563  007B26  0101               	movlb	1	; () banked
  2564  007B28  0101               	movlb	1	; () banked
  2565  007B2A  6FA5               	movwf	((main@i+1))&0ffh	;volatile
  2566  007B2C  0E00               	movlw	low(0)
  2567  007B2E  0101               	movlb	1	; () banked
  2568  007B30  6FA4               	movwf	((main@i))&0ffh	;volatile
  2569                           opt subtitle "HI-TECH Software Omniscient Code Generator (Lite mode) build 49521"
  2570  007B32                     l1481:; BSR set to: 1
  2571                           opt subtitle "HI-TECH Software Omniscient Code Generator (Lite mode) build 49521"
  2572  007B32  0E09               	movlw	09h
  2573  007B34  0101               	movlb	1	; () banked
  2574  007B36  0101               	movlb	1	; () banked
  2575  007B38  5DA4               	subwf	((main@i))&0ffh,w	;volatile
  2576  007B3A  0E00               	movlw	0
  2577  007B3C  0101               	movlb	1	; () banked
  2578  007B3E  59A5               	subwfb	((main@i+1))&0ffh,w	;volatile
  2579  007B40  A0D8               	btfss	status,0
  2580  007B42  D001               	goto	u1021
  2581  007B44  D001               	goto	u1020
  2582  007B46                     u1021:
  2583  007B46  D002               	goto	l1485
  2584  007B48                     u1020:
  2585  007B48  D0B8               	goto	l1499
  2586                           opt subtitle "HI-TECH Software Omniscient Code Generator (Lite mode) build 49521"
  2587  007B4A                     l1483:; BSR set to: 1
  2588                           opt subtitle "HI-TECH Software Omniscient Code Generator (Lite mode) build 49521"
  2589  007B4A  D0B7               	goto	l1499
  2590                           opt subtitle "HI-TECH Software Omniscient Code Generator (Lite mode) build 49521"
  2591                           
  2592  007B4C                     l101:; BSR set to: 1
  2593                           opt subtitle "HI-TECH Software Omniscient Code Generator (Lite mode) build 49521"
  2594                           
  2595                           opt pagewidth 120
  2596  007B4C                     l1485:; BSR set to: 1
  2597                           opt subtitle "HI-TECH Software Omniscient Code Generator (Lite mode) build 49521"
  2598                           
  2599                           opt pagewidth 120
  2600  007B4C  C1A4  F025         	movff	(main@i),(c:?_Write_b_eep)	;volatile
  2601  007B50  C1A5  F026         	movff	(main@i+1),(c:?_Write_b_eep+1)	;volatile
  2602  007B54  90D8               	bcf	status,0
  2603  007B56  0101               	movlb	1	; () banked
  2604  007B58  0101               	movlb	1	; () banked
  2605  007B5A  35A4               	rlcf	((main@i))&0ffh,w	;volatile
  2606  007B5C  6E38               	movwf	(??_main+0+0)&0ffh,c
  2607  007B5E  0101               	movlb	1	; () banked
  2608  007B60  0101               	movlb	1	; () banked
  2609  007B62  35A5               	rlcf	((main@i+1))&0ffh,w	;volatile
  2610  007B64  6E39               	movwf	1+(??_main+0+0)&0ffh,c
  2611  007B66  0101               	movlb	1	; () banked
  2612  007B68  0E7E               	movlw	low(main@buttonLatch)	;volatile
  2613  007B6A  2438               	addwf	(??_main+0+0),c,w
  2614  007B6C  6ED9               	movwf	c:fsr2l
  2615  007B6E  0101               	movlb	1	; () banked
  2616  007B70  0E01               	movlw	high(main@buttonLatch)	;volatile
  2617  007B72  2039               	addwfc	(??_main+0+1),c,w
  2618  007B74  6EDA               	movwf	1+c:fsr2l
  2619  007B76  50DF               	movf	indf2,w
  2620  007B78  6E27               	movwf	(0+((c:?_Write_b_eep)+02h)),c
  2621  007B7A  EC78  F037         	call	_Write_b_eep	;wreg free
  2622                           opt subtitle "HI-TECH Software Omniscient Code Generator (Lite mode) build 49521"
  2623                           
  2624  007B7E                     l1487:
  2625                           opt subtitle "HI-TECH Software Omniscient Code Generator (Lite mode) build 49521"
  2626  007B7E  EC5B  F037         	call	_Busy_eep	;wreg free
  2627                           opt subtitle "HI-TECH Software Omniscient Code Generator (Lite mode) build 49521"
  2628                           
  2629  007B82                     l1489:
  2630                           opt subtitle "HI-TECH Software Omniscient Code Generator (Lite mode) build 49521"
  2631  007B82  0E05               	movlw	high(0520h)
  2632  007B84  6E26               	movwf	((c:?_checkButton+1)),c
  2633  007B86  0E20               	movlw	low(0520h)
  2634  007B88  6E25               	movwf	((c:?_checkButton)),c
  2635  007B8A  EC5E  F038         	call	_checkButton	;wreg free
  2636  007B8E  0900               	iorlw	0
  2637  007B90  0E00               	movlw	0
  2638  007B92  B4D8               	btfsc	status,2
  2639  007B94  0E01               	movlw	1
  2640  007B96  6E2E               	movwf	((c:?_setOutputs)),c
  2641  007B98  6A2F               	clrf	((c:?_setOutputs+1)),c
  2642  007B9A  90D8               	bcf	status,0
  2643  007B9C  0101               	movlb	1	; () banked
  2644  007B9E  0101               	movlb	1	; () banked
  2645  007BA0  35A4               	rlcf	((main@i))&0ffh,w	;volatile
  2646  007BA2  6E38               	movwf	(??_main+0+0)&0ffh,c
  2647  007BA4  0101               	movlb	1	; () banked
  2648  007BA6  0101               	movlb	1	; () banked
  2649  007BA8  35A5               	rlcf	((main@i+1))&0ffh,w	;volatile
  2650  007BAA  6E39               	movwf	1+(??_main+0+0)&0ffh,c
  2651  007BAC  0101               	movlb	1	; () banked
  2652  007BAE  0E36               	movlw	low(main@leftLEDMask)	;volatile
  2653  007BB0  2438               	addwf	(??_main+0+0),c,w
  2654  007BB2  6ED9               	movwf	c:fsr2l
  2655  007BB4  0101               	movlb	1	; () banked
  2656  007BB6  0E01               	movlw	high(main@leftLEDMask)	;volatile
  2657  007BB8  2039               	addwfc	(??_main+0+1),c,w
  2658  007BBA  6EDA               	movwf	1+c:fsr2l
  2659  007BBC  CFDE F030          	movff	postinc2,0+((c:?_setOutputs)+02h)
  2660  007BC0  CFDD F031          	movff	postdec2,1+((c:?_setOutputs)+02h)
  2661  007BC4  90D8               	bcf	status,0
  2662  007BC6  0101               	movlb	1	; () banked
  2663  007BC8  0101               	movlb	1	; () banked
  2664  007BCA  35A4               	rlcf	((main@i))&0ffh,w	;volatile
  2665  007BCC  6E3A               	movwf	(??_main+2+0)&0ffh,c
  2666  007BCE  0101               	movlb	1	; () banked
  2667  007BD0  0101               	movlb	1	; () banked
  2668  007BD2  35A5               	rlcf	((main@i+1))&0ffh,w	;volatile
  2669  007BD4  6E3B               	movwf	1+(??_main+2+0)&0ffh,c
  2670  007BD6  0101               	movlb	1	; () banked
  2671  007BD8  0E48               	movlw	low(main@rightLEDMask)	;volatile
  2672  007BDA  243A               	addwf	(??_main+2+0),c,w
  2673  007BDC  6ED9               	movwf	c:fsr2l
  2674  007BDE  0101               	movlb	1	; () banked
  2675  007BE0  0E01               	movlw	high(main@rightLEDMask)	;volatile
  2676  007BE2  203B               	addwfc	(??_main+2+1),c,w
  2677  007BE4  6EDA               	movwf	1+c:fsr2l
  2678  007BE6  CFDE F032          	movff	postinc2,0+((c:?_setOutputs)+04h)
  2679  007BEA  CFDD F033          	movff	postdec2,1+((c:?_setOutputs)+04h)
  2680  007BEE  90D8               	bcf	status,0
  2681  007BF0  0101               	movlb	1	; () banked
  2682  007BF2  0101               	movlb	1	; () banked
  2683  007BF4  35A4               	rlcf	((main@i))&0ffh,w	;volatile
  2684  007BF6  6E3C               	movwf	(??_main+4+0)&0ffh,c
  2685  007BF8  0101               	movlb	1	; () banked
  2686  007BFA  0101               	movlb	1	; () banked
  2687  007BFC  35A5               	rlcf	((main@i+1))&0ffh,w	;volatile
  2688  007BFE  6E3D               	movwf	1+(??_main+4+0)&0ffh,c
  2689  007C00  0101               	movlb	1	; () banked
  2690  007C02  0E12               	movlw	low(main@relayMask)	;volatile
  2691  007C04  243C               	addwf	(??_main+4+0),c,w
  2692  007C06  6ED9               	movwf	c:fsr2l
  2693  007C08  0101               	movlb	1	; () banked
  2694  007C0A  0E01               	movlw	high(main@relayMask)	;volatile
  2695  007C0C  203D               	addwfc	(??_main+4+1),c,w
  2696  007C0E  6EDA               	movwf	1+c:fsr2l
  2697  007C10  CFDE F034          	movff	postinc2,0+((c:?_setOutputs)+06h)
  2698  007C14  CFDD F035          	movff	postdec2,1+((c:?_setOutputs)+06h)
  2699  007C18  90D8               	bcf	status,0
  2700  007C1A  0101               	movlb	1	; () banked
  2701  007C1C  0101               	movlb	1	; () banked
  2702  007C1E  35A4               	rlcf	((main@i))&0ffh,w	;volatile
  2703  007C20  6E3E               	movwf	(??_main+6+0)&0ffh,c
  2704  007C22  0101               	movlb	1	; () banked
  2705  007C24  0101               	movlb	1	; () banked
  2706  007C26  35A5               	rlcf	((main@i+1))&0ffh,w	;volatile
  2707  007C28  6E3F               	movwf	1+(??_main+6+0)&0ffh,c
  2708  007C2A  0101               	movlb	1	; () banked
  2709  007C2C  0E6C               	movlw	low(main@buttonState)	;volatile
  2710  007C2E  243E               	addwf	(??_main+6+0),c,w
  2711  007C30  6ED9               	movwf	c:fsr2l
  2712  007C32  0101               	movlb	1	; () banked
  2713  007C34  0E01               	movlw	high(main@buttonState)	;volatile
  2714  007C36  203F               	addwfc	(??_main+6+1),c,w
  2715  007C38  6EDA               	movwf	1+c:fsr2l
  2716  007C3A  CFDE F036          	movff	postinc2,0+((c:?_setOutputs)+08h)
  2717  007C3E  CFDD F037          	movff	postdec2,1+((c:?_setOutputs)+08h)
  2718  007C42  EC24  F038         	call	_setOutputs	;wreg free
  2719                           opt subtitle "HI-TECH Software Omniscient Code Generator (Lite mode) build 49521"
  2720                           
  2721  007C46                     l1491:
  2722                           opt subtitle "HI-TECH Software Omniscient Code Generator (Lite mode) build 49521"
  2723  007C46  90D8               	bcf	status,0
  2724  007C48  0101               	movlb	1	; () banked
  2725  007C4A  0101               	movlb	1	; () banked
  2726  007C4C  35A4               	rlcf	((main@i))&0ffh,w	;volatile
  2727  007C4E  6E38               	movwf	(??_main+0+0)&0ffh,c
  2728  007C50  0101               	movlb	1	; () banked
  2729  007C52  0101               	movlb	1	; () banked
  2730  007C54  35A5               	rlcf	((main@i+1))&0ffh,w	;volatile
  2731  007C56  6E39               	movwf	1+(??_main+0+0)&0ffh,c
  2732  007C58  0101               	movlb	1	; () banked
  2733  007C5A  0E90               	movlw	low(main@buttonEventDown)	;volatile
  2734  007C5C  2438               	addwf	(??_main+0+0),c,w
  2735  007C5E  6ED9               	movwf	c:fsr2l
  2736  007C60  0101               	movlb	1	; () banked
  2737  007C62  0E01               	movlw	high(main@buttonEventDown)	;volatile
  2738  007C64  2039               	addwfc	(??_main+0+1),c,w
  2739  007C66  6EDA               	movwf	1+c:fsr2l
  2740  007C68  0E00               	movlw	low(0)
  2741  007C6A  6EDE               	movwf	postinc2
  2742  007C6C  0E00               	movlw	high(0)
  2743  007C6E  6EDD               	movwf	postdec2
  2744                           opt subtitle "HI-TECH Software Omniscient Code Generator (Lite mode) build 49521"
  2745                           
  2746  007C70                     l1493:; BSR set to: 1
  2747                           opt subtitle "HI-TECH Software Omniscient Code Generator (Lite mode) build 49521"
  2748                           
  2749  007C70  90D8               	bcf	status,0
  2750  007C72  0101               	movlb	1	; () banked
  2751  007C74  0101               	movlb	1	; () banked
  2752  007C76  35A4               	rlcf	((main@i))&0ffh,w	;volatile
  2753  007C78  6E38               	movwf	(??_main+0+0)&0ffh,c
  2754  007C7A  0101               	movlb	1	; () banked
  2755  007C7C  0101               	movlb	1	; () banked
  2756  007C7E  35A5               	rlcf	((main@i+1))&0ffh,w	;volatile
  2757  007C80  6E39               	movwf	1+(??_main+0+0)&0ffh,c
  2758  007C82  0101               	movlb	1	; () banked
  2759  007C84  0E5A               	movlw	low(main@buttonEventUp)	;volatile
  2760  007C86  2438               	addwf	(??_main+0+0),c,w
  2761  007C88  6ED9               	movwf	c:fsr2l
  2762  007C8A  0101               	movlb	1	; () banked
  2763  007C8C  0E01               	movlw	high(main@buttonEventUp)	;volatile
  2764  007C8E  2039               	addwfc	(??_main+0+1),c,w
  2765  007C90  6EDA               	movwf	1+c:fsr2l
  2766  007C92  0E00               	movlw	low(0)
  2767  007C94  6EDE               	movwf	postinc2
  2768  007C96  0E00               	movlw	high(0)
  2769  007C98  6EDD               	movwf	postdec2
  2770                           opt subtitle "HI-TECH Software Omniscient Code Generator (Lite mode) build 49521"
  2771                           
  2772  007C9A                     l1495:; BSR set to: 1
  2773                           opt subtitle "HI-TECH Software Omniscient Code Generator (Lite mode) build 49521"
  2774  007C9A  0101               	movlb	1	; () banked
  2775  007C9C  0101               	movlb	1	; () banked
  2776  007C9E  4BA4               	infsnz	((main@i))&0ffh	;volatile
  2777  007CA0  2BA5               	incf	((main@i+1))&0ffh	;volatile
  2778                           opt subtitle "HI-TECH Software Omniscient Code Generator (Lite mode) build 49521"
  2779  007CA2                     l1497:; BSR set to: 1
  2780                           opt subtitle "HI-TECH Software Omniscient Code Generator (Lite mode) build 49521"
  2781  007CA2  0E09               	movlw	09h
  2782  007CA4  0101               	movlb	1	; () banked
  2783  007CA6  0101               	movlb	1	; () banked
  2784  007CA8  5DA4               	subwf	((main@i))&0ffh,w	;volatile
  2785  007CAA  0E00               	movlw	0
  2786  007CAC  0101               	movlb	1	; () banked
  2787  007CAE  59A5               	subwfb	((main@i+1))&0ffh,w	;volatile
  2788  007CB0  A0D8               	btfss	status,0
  2789  007CB2  D001               	goto	u1031
  2790  007CB4  D001               	goto	u1030
  2791  007CB6                     u1031:
  2792  007CB6  D74A               	goto	l1485
  2793  007CB8                     u1030:
  2794  007CB8  D000               	goto	l1499
  2795                           opt subtitle "HI-TECH Software Omniscient Code Generator (Lite mode) build 49521"
  2796  007CBA                     l102:; BSR set to: 1
  2797                           opt subtitle "HI-TECH Software Omniscient Code Generator (Lite mode) build 49521"
  2798                           
  2799                           opt pagewidth 120
  2800  007CBA                     l1499:; BSR set to: 1
  2801                           opt subtitle "HI-TECH Software Omniscient Code Generator (Lite mode) build 49521"
  2802                           
  2803                           opt pagewidth 120
  2804  007CBA  0E00               	movlw	high(0)
  2805  007CBC  0101               	movlb	1	; () banked
  2806  007CBE  0101               	movlb	1	; () banked
  2807  007CC0  6FA3               	movwf	((main@programState+1))&0ffh	;volatile
  2808  007CC2  0E00               	movlw	low(0)
  2809  007CC4  0101               	movlb	1	; () banked
  2810  007CC6  6FA2               	movwf	((main@programState))&0ffh	;volatile
  2811                           opt subtitle "HI-TECH Software Omniscient Code Generator (Lite mode) build 49521"
  2812                           
  2813  007CC8                     l100:; BSR set to: 1
  2814                           opt subtitle "HI-TECH Software Omniscient Code Generator (Lite mode) build 49521"
  2815                           
  2816                           opt pagewidth 120
  2817                           
  2818  007CC8  0E00               	movlw	high(0)
  2819  007CCA  0101               	movlb	1	; () banked
  2820  007CCC  0101               	movlb	1	; () banked
  2821  007CCE  6FA5               	movwf	((main@i+1))&0ffh	;volatile
  2822  007CD0  0E00               	movlw	low(0)
  2823  007CD2  0101               	movlb	1	; () banked
  2824  007CD4  6FA4               	movwf	((main@i))&0ffh	;volatile
  2825                           opt subtitle "HI-TECH Software Omniscient Code Generator (Lite mode) build 49521"
  2826  007CD6                     l1501:; BSR set to: 1
  2827                           opt subtitle "HI-TECH Software Omniscient Code Generator (Lite mode) build 49521"
  2828  007CD6  0E09               	movlw	09h
  2829  007CD8  0101               	movlb	1	; () banked
  2830  007CDA  0101               	movlb	1	; () banked
  2831  007CDC  5DA4               	subwf	((main@i))&0ffh,w	;volatile
  2832  007CDE  0E00               	movlw	0
  2833  007CE0  0101               	movlb	1	; () banked
  2834  007CE2  59A5               	subwfb	((main@i+1))&0ffh,w	;volatile
  2835  007CE4  A0D8               	btfss	status,0
  2836  007CE6  D001               	goto	u1041
  2837  007CE8  D001               	goto	u1040
  2838  007CEA                     u1041:
  2839  007CEA  D002               	goto	l1505
  2840  007CEC                     u1040:
  2841  007CEC  D49B               	goto	l1411
  2842                           opt subtitle "HI-TECH Software Omniscient Code Generator (Lite mode) build 49521"
  2843  007CEE                     l1503:; BSR set to: 1
  2844                           opt subtitle "HI-TECH Software Omniscient Code Generator (Lite mode) build 49521"
  2845  007CEE  D49A               	goto	l1411
  2846                           opt subtitle "HI-TECH Software Omniscient Code Generator (Lite mode) build 49521"
  2847                           
  2848  007CF0                     l103:; BSR set to: 1
  2849                           opt subtitle "HI-TECH Software Omniscient Code Generator (Lite mode) build 49521"
  2850                           
  2851                           opt pagewidth 120
  2852  007CF0                     l1505:; BSR set to: 1
  2853                           opt subtitle "HI-TECH Software Omniscient Code Generator (Lite mode) build 49521"
  2854                           
  2855                           opt pagewidth 120
  2856  007CF0  90D8               	bcf	status,0
  2857  007CF2  0101               	movlb	1	; () banked
  2858  007CF4  0101               	movlb	1	; () banked
  2859  007CF6  35A4               	rlcf	((main@i))&0ffh,w	;volatile
  2860  007CF8  6E38               	movwf	(??_main+0+0)&0ffh,c
  2861  007CFA  0101               	movlb	1	; () banked
  2862  007CFC  0101               	movlb	1	; () banked
  2863  007CFE  35A5               	rlcf	((main@i+1))&0ffh,w	;volatile
  2864  007D00  6E39               	movwf	1+(??_main+0+0)&0ffh,c
  2865  007D02  0101               	movlb	1	; () banked
  2866  007D04  0E7E               	movlw	low(main@buttonLatch)	;volatile
  2867  007D06  2438               	addwf	(??_main+0+0),c,w
  2868  007D08  6ED9               	movwf	c:fsr2l
  2869  007D0A  0101               	movlb	1	; () banked
  2870  007D0C  0E01               	movlw	high(main@buttonLatch)	;volatile
  2871  007D0E  2039               	addwfc	(??_main+0+1),c,w
  2872  007D10  6EDA               	movwf	1+c:fsr2l
  2873  007D12  50DE               	movf	postinc2,w
  2874  007D14  0A01               	xorlw	01h
  2875  007D16  10DD               	iorwf	postdec2,w
  2876  007D18  A4D8               	btfss	status,2
  2877  007D1A  D001               	goto	u1051
  2878  007D1C  D001               	goto	u1050
  2879  007D1E                     u1051:
  2880  007D1E  D071               	goto	l1515
  2881  007D20                     u1050:
  2882                           opt subtitle "HI-TECH Software Omniscient Code Generator (Lite mode) build 49521"
  2883                           
  2884  007D20                     l1507:; BSR set to: 1
  2885                           opt subtitle "HI-TECH Software Omniscient Code Generator (Lite mode) build 49521"
  2886                           
  2887                           opt pagewidth 120
  2888  007D20  90D8               	bcf	status,0
  2889  007D22  0101               	movlb	1	; () banked
  2890  007D24  0101               	movlb	1	; () banked
  2891  007D26  35A4               	rlcf	((main@i))&0ffh,w	;volatile
  2892  007D28  6E38               	movwf	(??_main+0+0)&0ffh,c
  2893  007D2A  0101               	movlb	1	; () banked
  2894  007D2C  0101               	movlb	1	; () banked
  2895  007D2E  35A5               	rlcf	((main@i+1))&0ffh,w	;volatile
  2896  007D30  6E39               	movwf	1+(??_main+0+0)&0ffh,c
  2897  007D32  0101               	movlb	1	; () banked
  2898  007D34  0E90               	movlw	low(main@buttonEventDown)	;volatile
  2899  007D36  2438               	addwf	(??_main+0+0),c,w
  2900  007D38  6ED9               	movwf	c:fsr2l
  2901  007D3A  0101               	movlb	1	; () banked
  2902  007D3C  0E01               	movlw	high(main@buttonEventDown)	;volatile
  2903  007D3E  2039               	addwfc	(??_main+0+1),c,w
  2904  007D40  6EDA               	movwf	1+c:fsr2l
  2905  007D42  50DE               	movf	postinc2,w
  2906  007D44  0A01               	xorlw	01h
  2907  007D46  10DD               	iorwf	postdec2,w
  2908  007D48  A4D8               	btfss	status,2
  2909  007D4A  D001               	goto	u1061
  2910  007D4C  D001               	goto	u1060
  2911  007D4E                     u1061:
  2912  007D4E  D0DF               	goto	l1521
  2913  007D50                     u1060:
  2914                           opt subtitle "HI-TECH Software Omniscient Code Generator (Lite mode) build 49521"
  2915                           
  2916  007D50                     l1509:; BSR set to: 1
  2917                           opt subtitle "HI-TECH Software Omniscient Code Generator (Lite mode) build 49521"
  2918                           
  2919                           opt pagewidth 120
  2920  007D50  90D8               	bcf	status,0
  2921  007D52  0101               	movlb	1	; () banked
  2922  007D54  0101               	movlb	1	; () banked
  2923  007D56  35A4               	rlcf	((main@i))&0ffh,w	;volatile
  2924  007D58  6E38               	movwf	(??_main+0+0)&0ffh,c
  2925  007D5A  0101               	movlb	1	; () banked
  2926  007D5C  0101               	movlb	1	; () banked
  2927  007D5E  35A5               	rlcf	((main@i+1))&0ffh,w	;volatile
  2928  007D60  6E39               	movwf	1+(??_main+0+0)&0ffh,c
  2929  007D62  0101               	movlb	1	; () banked
  2930  007D64  0E6C               	movlw	low(main@buttonState)	;volatile
  2931  007D66  2438               	addwf	(??_main+0+0),c,w
  2932  007D68  6ED9               	movwf	c:fsr2l
  2933  007D6A  0101               	movlb	1	; () banked
  2934  007D6C  0E01               	movlw	high(main@buttonState)	;volatile
  2935  007D6E  2039               	addwfc	(??_main+0+1),c,w
  2936  007D70  6EDA               	movwf	1+c:fsr2l
  2937  007D72  50DE               	movf	postinc2,w
  2938  007D74  10DD               	iorwf	postdec2,w
  2939  007D76  A4D8               	btfss	status,2
  2940  007D78  D001               	goto	u1071
  2941  007D7A  D001               	goto	u1070
  2942  007D7C                     u1071:
  2943  007D7C  D016               	goto	l1513
  2944  007D7E                     u1070:
  2945                           opt subtitle "HI-TECH Software Omniscient Code Generator (Lite mode) build 49521"
  2946                           
  2947  007D7E                     l1511:; BSR set to: 1
  2948                           opt subtitle "HI-TECH Software Omniscient Code Generator (Lite mode) build 49521"
  2949                           
  2950                           opt pagewidth 120
  2951  007D7E  90D8               	bcf	status,0
  2952  007D80  0101               	movlb	1	; () banked
  2953  007D82  0101               	movlb	1	; () banked
  2954  007D84  35A4               	rlcf	((main@i))&0ffh,w	;volatile
  2955  007D86  6E38               	movwf	(??_main+0+0)&0ffh,c
  2956  007D88  0101               	movlb	1	; () banked
  2957  007D8A  0101               	movlb	1	; () banked
  2958  007D8C  35A5               	rlcf	((main@i+1))&0ffh,w	;volatile
  2959  007D8E  6E39               	movwf	1+(??_main+0+0)&0ffh,c
  2960  007D90  0101               	movlb	1	; () banked
  2961  007D92  0E6C               	movlw	low(main@buttonState)	;volatile
  2962  007D94  2438               	addwf	(??_main+0+0),c,w
  2963  007D96  6ED9               	movwf	c:fsr2l
  2964  007D98  0101               	movlb	1	; () banked
  2965  007D9A  0E01               	movlw	high(main@buttonState)	;volatile
  2966  007D9C  2039               	addwfc	(??_main+0+1),c,w
  2967  007D9E  6EDA               	movwf	1+c:fsr2l
  2968  007DA0  0E01               	movlw	low(01h)
  2969  007DA2  6EDE               	movwf	postinc2
  2970  007DA4  0E00               	movlw	high(01h)
  2971  007DA6  6EDD               	movwf	postdec2
  2972                           opt subtitle "HI-TECH Software Omniscient Code Generator (Lite mode) build 49521"
  2973                           
  2974  007DA8  D015               	goto	l108
  2975                           opt subtitle "HI-TECH Software Omniscient Code Generator (Lite mode) build 49521"
  2976                           
  2977  007DAA                     l107:; BSR set to: 1
  2978                           opt subtitle "HI-TECH Software Omniscient Code Generator (Lite mode) build 49521"
  2979                           
  2980                           opt pagewidth 120
  2981  007DAA                     l1513:; BSR set to: 1
  2982                           opt subtitle "HI-TECH Software Omniscient Code Generator (Lite mode) build 49521"
  2983                           
  2984                           opt pagewidth 120
  2985                           
  2986  007DAA  90D8               	bcf	status,0
  2987  007DAC  0101               	movlb	1	; () banked
  2988  007DAE  0101               	movlb	1	; () banked
  2989  007DB0  35A4               	rlcf	((main@i))&0ffh,w	;volatile
  2990  007DB2  6E38               	movwf	(??_main+0+0)&0ffh,c
  2991  007DB4  0101               	movlb	1	; () banked
  2992  007DB6  0101               	movlb	1	; () banked
  2993  007DB8  35A5               	rlcf	((main@i+1))&0ffh,w	;volatile
  2994  007DBA  6E39               	movwf	1+(??_main+0+0)&0ffh,c
  2995  007DBC  0101               	movlb	1	; () banked
  2996  007DBE  0E6C               	movlw	low(main@buttonState)	;volatile
  2997  007DC0  2438               	addwf	(??_main+0+0),c,w
  2998  007DC2  6ED9               	movwf	c:fsr2l
  2999  007DC4  0101               	movlb	1	; () banked
  3000  007DC6  0E01               	movlw	high(main@buttonState)	;volatile
  3001  007DC8  2039               	addwfc	(??_main+0+1),c,w
  3002  007DCA  6EDA               	movwf	1+c:fsr2l
  3003  007DCC  0E00               	movlw	low(0)
  3004  007DCE  6EDE               	movwf	postinc2
  3005  007DD0  0E00               	movlw	high(0)
  3006  007DD2  6EDD               	movwf	postdec2
  3007                           opt subtitle "HI-TECH Software Omniscient Code Generator (Lite mode) build 49521"
  3008                           
  3009  007DD4                     l108:; BSR set to: 1
  3010                           opt subtitle "HI-TECH Software Omniscient Code Generator (Lite mode) build 49521"
  3011                           
  3012                           opt pagewidth 120
  3013                           
  3014  007DD4  90D8               	bcf	status,0
  3015  007DD6  0101               	movlb	1	; () banked
  3016  007DD8  0101               	movlb	1	; () banked
  3017  007DDA  35A4               	rlcf	((main@i))&0ffh,w	;volatile
  3018  007DDC  6E38               	movwf	(??_main+0+0)&0ffh,c
  3019  007DDE  0101               	movlb	1	; () banked
  3020  007DE0  0101               	movlb	1	; () banked
  3021  007DE2  35A5               	rlcf	((main@i+1))&0ffh,w	;volatile
  3022  007DE4  6E39               	movwf	1+(??_main+0+0)&0ffh,c
  3023  007DE6  0101               	movlb	1	; () banked
  3024  007DE8  0E90               	movlw	low(main@buttonEventDown)	;volatile
  3025  007DEA  2438               	addwf	(??_main+0+0),c,w
  3026  007DEC  6ED9               	movwf	c:fsr2l
  3027  007DEE  0101               	movlb	1	; () banked
  3028  007DF0  0E01               	movlw	high(main@buttonEventDown)	;volatile
  3029  007DF2  2039               	addwfc	(??_main+0+1),c,w
  3030  007DF4  6EDA               	movwf	1+c:fsr2l
  3031  007DF6  0E00               	movlw	low(0)
  3032  007DF8  6EDE               	movwf	postinc2
  3033  007DFA  0E00               	movlw	high(0)
  3034  007DFC  6EDD               	movwf	postdec2
  3035  007DFE  D087               	goto	l1521
  3036                           opt subtitle "HI-TECH Software Omniscient Code Generator (Lite mode) build 49521"
  3037                           
  3038  007E00                     l106:; BSR set to: 1
  3039                           opt subtitle "HI-TECH Software Omniscient Code Generator (Lite mode) build 49521"
  3040                           
  3041                           opt pagewidth 120
  3042                           
  3043  007E00  D086               	goto	l1521
  3044                           opt subtitle "HI-TECH Software Omniscient Code Generator (Lite mode) build 49521"
  3045                           
  3046  007E02                     l105:; BSR set to: 1
  3047                           opt subtitle "HI-TECH Software Omniscient Code Generator (Lite mode) build 49521"
  3048                           
  3049                           opt pagewidth 120
  3050  007E02                     l1515:; BSR set to: 1
  3051                           opt subtitle "HI-TECH Software Omniscient Code Generator (Lite mode) build 49521"
  3052                           
  3053                           opt pagewidth 120
  3054                           
  3055  007E02  90D8               	bcf	status,0
  3056  007E04  0101               	movlb	1	; () banked
  3057  007E06  0101               	movlb	1	; () banked
  3058  007E08  35A4               	rlcf	((main@i))&0ffh,w	;volatile
  3059  007E0A  6E38               	movwf	(??_main+0+0)&0ffh,c
  3060  007E0C  0101               	movlb	1	; () banked
  3061  007E0E  0101               	movlb	1	; () banked
  3062  007E10  35A5               	rlcf	((main@i+1))&0ffh,w	;volatile
  3063  007E12  6E39               	movwf	1+(??_main+0+0)&0ffh,c
  3064  007E14  0101               	movlb	1	; () banked
  3065  007E16  0E90               	movlw	low(main@buttonEventDown)	;volatile
  3066  007E18  2438               	addwf	(??_main+0+0),c,w
  3067  007E1A  6ED9               	movwf	c:fsr2l
  3068  007E1C  0101               	movlb	1	; () banked
  3069  007E1E  0E01               	movlw	high(main@buttonEventDown)	;volatile
  3070  007E20  2039               	addwfc	(??_main+0+1),c,w
  3071  007E22  6EDA               	movwf	1+c:fsr2l
  3072  007E24  50DE               	movf	postinc2,w
  3073  007E26  0A01               	xorlw	01h
  3074  007E28  10DD               	iorwf	postdec2,w
  3075  007E2A  A4D8               	btfss	status,2
  3076  007E2C  D001               	goto	u1081
  3077  007E2E  D001               	goto	u1080
  3078  007E30                     u1081:
  3079  007E30  D02A               	goto	l110
  3080  007E32                     u1080:
  3081                           opt subtitle "HI-TECH Software Omniscient Code Generator (Lite mode) build 49521"
  3082                           
  3083  007E32                     l1517:; BSR set to: 1
  3084                           opt subtitle "HI-TECH Software Omniscient Code Generator (Lite mode) build 49521"
  3085                           
  3086                           opt pagewidth 120
  3087  007E32  90D8               	bcf	status,0
  3088  007E34  0101               	movlb	1	; () banked
  3089  007E36  0101               	movlb	1	; () banked
  3090  007E38  35A4               	rlcf	((main@i))&0ffh,w	;volatile
  3091  007E3A  6E38               	movwf	(??_main+0+0)&0ffh,c
  3092  007E3C  0101               	movlb	1	; () banked
  3093  007E3E  0101               	movlb	1	; () banked
  3094  007E40  35A5               	rlcf	((main@i+1))&0ffh,w	;volatile
  3095  007E42  6E39               	movwf	1+(??_main+0+0)&0ffh,c
  3096  007E44  0101               	movlb	1	; () banked
  3097  007E46  0E6C               	movlw	low(main@buttonState)	;volatile
  3098  007E48  2438               	addwf	(??_main+0+0),c,w
  3099  007E4A  6ED9               	movwf	c:fsr2l
  3100  007E4C  0101               	movlb	1	; () banked
  3101  007E4E  0E01               	movlw	high(main@buttonState)	;volatile
  3102  007E50  2039               	addwfc	(??_main+0+1),c,w
  3103  007E52  6EDA               	movwf	1+c:fsr2l
  3104  007E54  0E01               	movlw	low(01h)
  3105  007E56  6EDE               	movwf	postinc2
  3106  007E58  0E00               	movlw	high(01h)
  3107  007E5A  6EDD               	movwf	postdec2
  3108                           opt subtitle "HI-TECH Software Omniscient Code Generator (Lite mode) build 49521"
  3109                           
  3110  007E5C  90D8               	bcf	status,0
  3111  007E5E  0101               	movlb	1	; () banked
  3112  007E60  0101               	movlb	1	; () banked
  3113  007E62  35A4               	rlcf	((main@i))&0ffh,w	;volatile
  3114  007E64  6E38               	movwf	(??_main+0+0)&0ffh,c
  3115  007E66  0101               	movlb	1	; () banked
  3116  007E68  0101               	movlb	1	; () banked
  3117  007E6A  35A5               	rlcf	((main@i+1))&0ffh,w	;volatile
  3118  007E6C  6E39               	movwf	1+(??_main+0+0)&0ffh,c
  3119  007E6E  0101               	movlb	1	; () banked
  3120  007E70  0E90               	movlw	low(main@buttonEventDown)	;volatile
  3121  007E72  2438               	addwf	(??_main+0+0),c,w
  3122  007E74  6ED9               	movwf	c:fsr2l
  3123  007E76  0101               	movlb	1	; () banked
  3124  007E78  0E01               	movlw	high(main@buttonEventDown)	;volatile
  3125  007E7A  2039               	addwfc	(??_main+0+1),c,w
  3126  007E7C  6EDA               	movwf	1+c:fsr2l
  3127  007E7E  0E00               	movlw	low(0)
  3128  007E80  6EDE               	movwf	postinc2
  3129  007E82  0E00               	movlw	high(0)
  3130  007E84  6EDD               	movwf	postdec2
  3131                           opt subtitle "HI-TECH Software Omniscient Code Generator (Lite mode) build 49521"
  3132                           
  3133  007E86                     l110:; BSR set to: 1
  3134                           opt subtitle "HI-TECH Software Omniscient Code Generator (Lite mode) build 49521"
  3135                           
  3136                           opt pagewidth 120
  3137                           
  3138  007E86  90D8               	bcf	status,0
  3139  007E88  0101               	movlb	1	; () banked
  3140  007E8A  0101               	movlb	1	; () banked
  3141  007E8C  35A4               	rlcf	((main@i))&0ffh,w	;volatile
  3142  007E8E  6E38               	movwf	(??_main+0+0)&0ffh,c
  3143  007E90  0101               	movlb	1	; () banked
  3144  007E92  0101               	movlb	1	; () banked
  3145  007E94  35A5               	rlcf	((main@i+1))&0ffh,w	;volatile
  3146  007E96  6E39               	movwf	1+(??_main+0+0)&0ffh,c
  3147  007E98  0101               	movlb	1	; () banked
  3148  007E9A  0E5A               	movlw	low(main@buttonEventUp)	;volatile
  3149  007E9C  2438               	addwf	(??_main+0+0),c,w
  3150  007E9E  6ED9               	movwf	c:fsr2l
  3151  007EA0  0101               	movlb	1	; () banked
  3152  007EA2  0E01               	movlw	high(main@buttonEventUp)	;volatile
  3153  007EA4  2039               	addwfc	(??_main+0+1),c,w
  3154  007EA6  6EDA               	movwf	1+c:fsr2l
  3155  007EA8  50DE               	movf	postinc2,w
  3156  007EAA  0A01               	xorlw	01h
  3157  007EAC  10DD               	iorwf	postdec2,w
  3158  007EAE  A4D8               	btfss	status,2
  3159  007EB0  D001               	goto	u1091
  3160  007EB2  D001               	goto	u1090
  3161  007EB4                     u1091:
  3162  007EB4  D02C               	goto	l1521
  3163  007EB6                     u1090:
  3164                           opt subtitle "HI-TECH Software Omniscient Code Generator (Lite mode) build 49521"
  3165                           
  3166  007EB6                     l1519:; BSR set to: 1
  3167                           opt subtitle "HI-TECH Software Omniscient Code Generator (Lite mode) build 49521"
  3168                           
  3169                           opt pagewidth 120
  3170  007EB6  90D8               	bcf	status,0
  3171  007EB8  0101               	movlb	1	; () banked
  3172  007EBA  0101               	movlb	1	; () banked
  3173  007EBC  35A4               	rlcf	((main@i))&0ffh,w	;volatile
  3174  007EBE  6E38               	movwf	(??_main+0+0)&0ffh,c
  3175  007EC0  0101               	movlb	1	; () banked
  3176  007EC2  0101               	movlb	1	; () banked
  3177  007EC4  35A5               	rlcf	((main@i+1))&0ffh,w	;volatile
  3178  007EC6  6E39               	movwf	1+(??_main+0+0)&0ffh,c
  3179  007EC8  0101               	movlb	1	; () banked
  3180  007ECA  0E6C               	movlw	low(main@buttonState)	;volatile
  3181  007ECC  2438               	addwf	(??_main+0+0),c,w
  3182  007ECE  6ED9               	movwf	c:fsr2l
  3183  007ED0  0101               	movlb	1	; () banked
  3184  007ED2  0E01               	movlw	high(main@buttonState)	;volatile
  3185  007ED4  2039               	addwfc	(??_main+0+1),c,w
  3186  007ED6  6EDA               	movwf	1+c:fsr2l
  3187  007ED8  0E00               	movlw	low(0)
  3188  007EDA  6EDE               	movwf	postinc2
  3189  007EDC  0E00               	movlw	high(0)
  3190  007EDE  6EDD               	movwf	postdec2
  3191                           opt subtitle "HI-TECH Software Omniscient Code Generator (Lite mode) build 49521"
  3192                           
  3193  007EE0  90D8               	bcf	status,0
  3194  007EE2  0101               	movlb	1	; () banked
  3195  007EE4  0101               	movlb	1	; () banked
  3196  007EE6  35A4               	rlcf	((main@i))&0ffh,w	;volatile
  3197  007EE8  6E38               	movwf	(??_main+0+0)&0ffh,c
  3198  007EEA  0101               	movlb	1	; () banked
  3199  007EEC  0101               	movlb	1	; () banked
  3200  007EEE  35A5               	rlcf	((main@i+1))&0ffh,w	;volatile
  3201  007EF0  6E39               	movwf	1+(??_main+0+0)&0ffh,c
  3202  007EF2  0101               	movlb	1	; () banked
  3203  007EF4  0E5A               	movlw	low(main@buttonEventUp)	;volatile
  3204  007EF6  2438               	addwf	(??_main+0+0),c,w
  3205  007EF8  6ED9               	movwf	c:fsr2l
  3206  007EFA  0101               	movlb	1	; () banked
  3207  007EFC  0E01               	movlw	high(main@buttonEventUp)	;volatile
  3208  007EFE  2039               	addwfc	(??_main+0+1),c,w
  3209  007F00  6EDA               	movwf	1+c:fsr2l
  3210  007F02  0E00               	movlw	low(0)
  3211  007F04  6EDE               	movwf	postinc2
  3212  007F06  0E00               	movlw	high(0)
  3213  007F08  6EDD               	movwf	postdec2
  3214  007F0A  D001               	goto	l1521
  3215                           opt subtitle "HI-TECH Software Omniscient Code Generator (Lite mode) build 49521"
  3216                           
  3217  007F0C                     l111:; BSR set to: 1
  3218                           opt subtitle "HI-TECH Software Omniscient Code Generator (Lite mode) build 49521"
  3219  007F0C  D000               	goto	l1521
  3220                           opt subtitle "HI-TECH Software Omniscient Code Generator (Lite mode) build 49521"
  3221                           
  3222  007F0E                     l109:; BSR set to: 1
  3223                           opt subtitle "HI-TECH Software Omniscient Code Generator (Lite mode) build 49521"
  3224                           
  3225                           opt pagewidth 120
  3226  007F0E                     l1521:; BSR set to: 1
  3227                           opt subtitle "HI-TECH Software Omniscient Code Generator (Lite mode) build 49521"
  3228                           
  3229                           opt pagewidth 120
  3230                           
  3231  007F0E  0E05               	movlw	high(0520h)
  3232  007F10  6E26               	movwf	((c:?_checkButton+1)),c
  3233  007F12  0E20               	movlw	low(0520h)
  3234  007F14  6E25               	movwf	((c:?_checkButton)),c
  3235  007F16  EC5E  F038         	call	_checkButton	;wreg free
  3236  007F1A  0900               	iorlw	0
  3237  007F1C  0E00               	movlw	0
  3238  007F1E  B4D8               	btfsc	status,2
  3239  007F20  0E01               	movlw	1
  3240  007F22  6E2E               	movwf	((c:?_setOutputs)),c
  3241  007F24  6A2F               	clrf	((c:?_setOutputs+1)),c
  3242  007F26  90D8               	bcf	status,0
  3243  007F28  0101               	movlb	1	; () banked
  3244  007F2A  0101               	movlb	1	; () banked
  3245  007F2C  35A4               	rlcf	((main@i))&0ffh,w	;volatile
  3246  007F2E  6E38               	movwf	(??_main+0+0)&0ffh,c
  3247  007F30  0101               	movlb	1	; () banked
  3248  007F32  0101               	movlb	1	; () banked
  3249  007F34  35A5               	rlcf	((main@i+1))&0ffh,w	;volatile
  3250  007F36  6E39               	movwf	1+(??_main+0+0)&0ffh,c
  3251  007F38  0101               	movlb	1	; () banked
  3252  007F3A  0E36               	movlw	low(main@leftLEDMask)	;volatile
  3253  007F3C  2438               	addwf	(??_main+0+0),c,w
  3254  007F3E  6ED9               	movwf	c:fsr2l
  3255  007F40  0101               	movlb	1	; () banked
  3256  007F42  0E01               	movlw	high(main@leftLEDMask)	;volatile
  3257  007F44  2039               	addwfc	(??_main+0+1),c,w
  3258  007F46  6EDA               	movwf	1+c:fsr2l
  3259  007F48  CFDE F030          	movff	postinc2,0+((c:?_setOutputs)+02h)
  3260  007F4C  CFDD F031          	movff	postdec2,1+((c:?_setOutputs)+02h)
  3261  007F50  90D8               	bcf	status,0
  3262  007F52  0101               	movlb	1	; () banked
  3263  007F54  0101               	movlb	1	; () banked
  3264  007F56  35A4               	rlcf	((main@i))&0ffh,w	;volatile
  3265  007F58  6E3A               	movwf	(??_main+2+0)&0ffh,c
  3266  007F5A  0101               	movlb	1	; () banked
  3267  007F5C  0101               	movlb	1	; () banked
  3268  007F5E  35A5               	rlcf	((main@i+1))&0ffh,w	;volatile
  3269  007F60  6E3B               	movwf	1+(??_main+2+0)&0ffh,c
  3270  007F62  0101               	movlb	1	; () banked
  3271  007F64  0E48               	movlw	low(main@rightLEDMask)	;volatile
  3272  007F66  243A               	addwf	(??_main+2+0),c,w
  3273  007F68  6ED9               	movwf	c:fsr2l
  3274  007F6A  0101               	movlb	1	; () banked
  3275  007F6C  0E01               	movlw	high(main@rightLEDMask)	;volatile
  3276  007F6E  203B               	addwfc	(??_main+2+1),c,w
  3277  007F70  6EDA               	movwf	1+c:fsr2l
  3278  007F72  CFDE F032          	movff	postinc2,0+((c:?_setOutputs)+04h)
  3279  007F76  CFDD F033          	movff	postdec2,1+((c:?_setOutputs)+04h)
  3280  007F7A  90D8               	bcf	status,0
  3281  007F7C  0101               	movlb	1	; () banked
  3282  007F7E  0101               	movlb	1	; () banked
  3283  007F80  35A4               	rlcf	((main@i))&0ffh,w	;volatile
  3284  007F82  6E3C               	movwf	(??_main+4+0)&0ffh,c
  3285  007F84  0101               	movlb	1	; () banked
  3286  007F86  0101               	movlb	1	; () banked
  3287  007F88  35A5               	rlcf	((main@i+1))&0ffh,w	;volatile
  3288  007F8A  6E3D               	movwf	1+(??_main+4+0)&0ffh,c
  3289  007F8C  0101               	movlb	1	; () banked
  3290  007F8E  0E12               	movlw	low(main@relayMask)	;volatile
  3291  007F90  243C               	addwf	(??_main+4+0),c,w
  3292  007F92  6ED9               	movwf	c:fsr2l
  3293  007F94  0101               	movlb	1	; () banked
  3294  007F96  0E01               	movlw	high(main@relayMask)	;volatile
  3295  007F98  203D               	addwfc	(??_main+4+1),c,w
  3296  007F9A  6EDA               	movwf	1+c:fsr2l
  3297  007F9C  CFDE F034          	movff	postinc2,0+((c:?_setOutputs)+06h)
  3298  007FA0  CFDD F035          	movff	postdec2,1+((c:?_setOutputs)+06h)
  3299  007FA4  90D8               	bcf	status,0
  3300  007FA6  0101               	movlb	1	; () banked
  3301  007FA8  0101               	movlb	1	; () banked
  3302  007FAA  35A4               	rlcf	((main@i))&0ffh,w	;volatile
  3303  007FAC  6E3E               	movwf	(??_main+6+0)&0ffh,c
  3304  007FAE  0101               	movlb	1	; () banked
  3305  007FB0  0101               	movlb	1	; () banked
  3306  007FB2  35A5               	rlcf	((main@i+1))&0ffh,w	;volatile
  3307  007FB4  6E3F               	movwf	1+(??_main+6+0)&0ffh,c
  3308  007FB6  0101               	movlb	1	; () banked
  3309  007FB8  0E6C               	movlw	low(main@buttonState)	;volatile
  3310  007FBA  243E               	addwf	(??_main+6+0),c,w
  3311  007FBC  6ED9               	movwf	c:fsr2l
  3312  007FBE  0101               	movlb	1	; () banked
  3313  007FC0  0E01               	movlw	high(main@buttonState)	;volatile
  3314  007FC2  203F               	addwfc	(??_main+6+1),c,w
  3315  007FC4  6EDA               	movwf	1+c:fsr2l
  3316  007FC6  CFDE F036          	movff	postinc2,0+((c:?_setOutputs)+08h)
  3317  007FCA  CFDD F037          	movff	postdec2,1+((c:?_setOutputs)+08h)
  3318  007FCE  EC24  F038         	call	_setOutputs	;wreg free
  3319                           opt subtitle "HI-TECH Software Omniscient Code Generator (Lite mode) build 49521"
  3320                           
  3321  007FD2                     l1523:
  3322  007FD2  0101               	movlb	1	; () banked
  3323  007FD4  0101               	movlb	1	; () banked
  3324  007FD6  4BA4               	infsnz	((main@i))&0ffh	;volatile
  3325  007FD8  2BA5               	incf	((main@i+1))&0ffh	;volatile
  3326                           opt subtitle "HI-TECH Software Omniscient Code Generator (Lite mode) build 49521"
  3327  007FDA                     l1525:; BSR set to: 1
  3328                           opt subtitle "HI-TECH Software Omniscient Code Generator (Lite mode) build 49521"
  3329  007FDA  0E09               	movlw	09h
  3330  007FDC  0101               	movlb	1	; () banked
  3331  007FDE  0101               	movlb	1	; () banked
  3332  007FE0  5DA4               	subwf	((main@i))&0ffh,w	;volatile
  3333  007FE2  0E00               	movlw	0
  3334  007FE4  0101               	movlb	1	; () banked
  3335  007FE6  59A5               	subwfb	((main@i+1))&0ffh,w	;volatile
  3336  007FE8  A0D8               	btfss	status,0
  3337  007FEA  D001               	goto	u1101
  3338  007FEC  D001               	goto	u1100
  3339  007FEE                     u1101:
  3340  007FEE  D680               	goto	l1505
  3341  007FF0                     u1100:
  3342  007FF0  EF12  F03B         	goto	l1411
  3343                           opt subtitle "HI-TECH Software Omniscient Code Generator (Lite mode) build 49521"
  3344  007FF4                     l104:; BSR set to: 1
  3345                           opt subtitle "HI-TECH Software Omniscient Code Generator (Lite mode) build 49521"
  3346  007FF4  EF12  F03B         	goto	l1411
  3347                           opt subtitle "HI-TECH Software Omniscient Code Generator (Lite mode) build 49521"
  3348                           
  3349  007FF8                     l99:; BSR set to: 1
  3350                           opt subtitle "HI-TECH Software Omniscient Code Generator (Lite mode) build 49521"
  3351                           
  3352                           opt pagewidth 120
  3353                           
  3354                           	opt lm
  3355  007FF8  EF12  F03B         	goto	l1411
  3356                           opt subtitle "HI-TECH Software Omniscient Code Generator (Lite mode) build 49521"
  3357  007FFC                     l112:; BSR set to: 1
  3358                           opt subtitle "HI-TECH Software Omniscient Code Generator (Lite mode) build 49521"
  3359                           
  3360                           opt pagewidth 120
  3361  007FFC                     l113:; BSR set to: 1
  3362                           opt subtitle "HI-TECH Software Omniscient Code Generator (Lite mode) build 49521"
  3363                           
  3364  007FFC  EF00  F000         	goto	start
  3365                           opt subtitle "HI-TECH Software Omniscient Code Generator (Lite mode) build 49521"
  3366                           
  3367  008000                     	__end_of_main:
  3368                           opt subtitle "HI-TECH Software Omniscient Code Generator (Lite mode) build 49521"
  3369                           
  3370                           opt pagewidth 120
  3371                           
  3372                           	opt lm
  3373                           
  3374                           	processor	18F65K22
  3375                           porta	equ	0F80h
  3376                           portb	equ	0F81h
  3377                           portc	equ	0F82h
  3378                           portd	equ	0F83h
  3379                           porte	equ	0F84h
  3380                           lata	equ	0F89h
  3381                           latb	equ	0F8Ah
  3382                           latc	equ	0F8Bh
  3383                           latd	equ	0F8Ch
  3384                           late	equ	0F8Dh
  3385                           trisa	equ	0F92h
  3386                           trisb	equ	0F93h
  3387                           trisc	equ	0F94h
  3388                           trisd	equ	0F95h
  3389                           trise	equ	0F96h
  3390                           pie1	equ	0F9Dh
  3391                           pir1	equ	0F9Eh
  3392                           ipr1	equ	0F9Fh
  3393                           pie2	equ	0FA0h
  3394                           pir2	equ	0FA1h
  3395                           ipr2	equ	0FA2h
  3396                           t3con	equ	0FB1h
  3397                           tmr3l	equ	0FB2h
  3398                           tmr3h	equ	0FB3h
  3399                           ccp1con	equ	0FBDh
  3400                           ccpr1l	equ	0FBEh
  3401                           ccpr1h	equ	0FBFh
  3402                           adcon1	equ	0FC1h
  3403                           adcon0	equ	0FC2h
  3404  0072AE                     __ptext1:
  3405                           opt subtitle "HI-TECH Software Omniscient Code Generator (Lite mode) build 49521"
  3406                           
  3407                           opt pagewidth 120
  3408                           
  3409  0000                     	__size_of_setupIO	equ	__end_of_setupIO-_setupIO
  3410                           opt subtitle "HI-TECH Software Omniscient Code Generator (Lite mode) build 49521"
  3411  0072AE                     _setupIO:; BSR set to: 1
  3412                           opt subtitle "HI-TECH Software Omniscient Code Generator (Lite mode) build 49521"
  3413                           
  3414                           opt pagewidth 120
  3415                           
  3416  0072AE                     l1191:
  3417                           opt subtitle "HI-TECH Software Omniscient Code Generator (Lite mode) build 49521"
  3418                           
  3419                           opt pagewidth 120
  3420  0072AE  0E00               	movlw	high(0)
  3421  0072B0  6E2C               	movwf	((c:setupIO@state+1)),c	;volatile
  3422  0072B2  0E00               	movlw	low(0)
  3423  0072B4  6E2B               	movwf	((c:setupIO@state)),c	;volatile
  3424                           opt subtitle "HI-TECH Software Omniscient Code Generator (Lite mode) build 49521"
  3425                           
  3426  0072B6  5026               	movf	((c:setupIO@row+1)),c,w
  3427  0072B8  6E2D               	movwf	((c:setupIO@port)),c	;volatile
  3428  0072BA  6A2E               	clrf	((c:setupIO@port+1)),c	;volatile
  3429                           opt subtitle "HI-TECH Software Omniscient Code Generator (Lite mode) build 49521"
  3430                           
  3431  0072BC                     l1193:
  3432                           opt subtitle "HI-TECH Software Omniscient Code Generator (Lite mode) build 49521"
  3433  0072BC  C025  F02F         	movff	(c:setupIO@row),(c:setupIO@mask)	;volatile
  3434                           opt subtitle "HI-TECH Software Omniscient Code Generator (Lite mode) build 49521"
  3435                           
  3436  0072C0  D064               	goto	l1239
  3437                           opt subtitle "HI-TECH Software Omniscient Code Generator (Lite mode) build 49521"
  3438                           
  3439                           opt pagewidth 120
  3440                           
  3441  0072C2                     l125:
  3442                           opt subtitle "HI-TECH Software Omniscient Code Generator (Lite mode) build 49521"
  3443                           
  3444  0072C2                     l1195:
  3445                           opt subtitle "HI-TECH Software Omniscient Code Generator (Lite mode) build 49521"
  3446  0072C2  0427               	decf	((c:setupIO@direction)),c,w
  3447  0072C4  1028               	iorwf ((c:setupIO@direction+1)),c,w
  3448                           opt subtitle "HI-TECH Software Omniscient Code Generator (Lite mode) build 49521"
  3449  0072C6  A4D8               	btfss	status,2
  3450  0072C8  D001               	goto	u561
  3451  0072CA  D001               	goto	u560
  3452  0072CC                     u561:
  3453  0072CC  D003               	goto	l1199
  3454  0072CE                     u560:
  3455                           opt subtitle "HI-TECH Software Omniscient Code Generator (Lite mode) build 49521"
  3456  0072CE                     l1197:
  3457  0072CE  502F               	movf	((c:setupIO@mask)),c,w	;volatile
  3458  0072D0  1292               	iorwf	((c:3986)),c	;volatile
  3459  0072D2  D07B               	goto	l148
  3460                           opt subtitle "HI-TECH Software Omniscient Code Generator (Lite mode) build 49521"
  3461  0072D4                     l126:
  3462                           opt subtitle "HI-TECH Software Omniscient Code Generator (Lite mode) build 49521"
  3463  0072D4                     l1199:
  3464  0072D4  502F               	movf	((c:setupIO@mask)),c,w	;volatile
  3465  0072D6  0AFF               	xorlw	0ffh
  3466  0072D8  1692               	andwf	((c:3986)),c	;volatile
  3467  0072DA  D077               	goto	l148
  3468                           opt subtitle "HI-TECH Software Omniscient Code Generator (Lite mode) build 49521"
  3469  0072DC                     l127:
  3470                           opt subtitle "HI-TECH Software Omniscient Code Generator (Lite mode) build 49521"
  3471                           
  3472  0072DC  D076               	goto	l148
  3473                           opt subtitle "HI-TECH Software Omniscient Code Generator (Lite mode) build 49521"
  3474                           
  3475                           opt pagewidth 120
  3476  0072DE                     l129:
  3477                           opt subtitle "HI-TECH Software Omniscient Code Generator (Lite mode) build 49521"
  3478                           
  3479  0072DE                     l1201:
  3480                           opt subtitle "HI-TECH Software Omniscient Code Generator (Lite mode) build 49521"
  3481  0072DE  0427               	decf	((c:setupIO@direction)),c,w
  3482  0072E0  1028               	iorwf ((c:setupIO@direction+1)),c,w
  3483                           opt subtitle "HI-TECH Software Omniscient Code Generator (Lite mode) build 49521"
  3484  0072E2  A4D8               	btfss	status,2
  3485  0072E4  D001               	goto	u571
  3486  0072E6  D001               	goto	u570
  3487  0072E8                     u571:
  3488  0072E8  D003               	goto	l1205
  3489  0072EA                     u570:
  3490                           opt subtitle "HI-TECH Software Omniscient Code Generator (Lite mode) build 49521"
  3491  0072EA                     l1203:
  3492  0072EA  502F               	movf	((c:setupIO@mask)),c,w	;volatile
  3493  0072EC  1293               	iorwf	((c:3987)),c	;volatile
  3494  0072EE  D06D               	goto	l148
  3495                           opt subtitle "HI-TECH Software Omniscient Code Generator (Lite mode) build 49521"
  3496  0072F0                     l130:
  3497                           opt subtitle "HI-TECH Software Omniscient Code Generator (Lite mode) build 49521"
  3498  0072F0                     l1205:
  3499  0072F0  502F               	movf	((c:setupIO@mask)),c,w	;volatile
  3500  0072F2  0AFF               	xorlw	0ffh
  3501  0072F4  1693               	andwf	((c:3987)),c	;volatile
  3502  0072F6  D069               	goto	l148
  3503                           opt subtitle "HI-TECH Software Omniscient Code Generator (Lite mode) build 49521"
  3504  0072F8                     l131:
  3505                           opt subtitle "HI-TECH Software Omniscient Code Generator (Lite mode) build 49521"
  3506                           
  3507  0072F8  D068               	goto	l148
  3508                           opt subtitle "HI-TECH Software Omniscient Code Generator (Lite mode) build 49521"
  3509                           
  3510                           opt pagewidth 120
  3511  0072FA                     l132:
  3512                           opt subtitle "HI-TECH Software Omniscient Code Generator (Lite mode) build 49521"
  3513                           
  3514  0072FA                     l1207:
  3515                           opt subtitle "HI-TECH Software Omniscient Code Generator (Lite mode) build 49521"
  3516  0072FA  0427               	decf	((c:setupIO@direction)),c,w
  3517  0072FC  1028               	iorwf ((c:setupIO@direction+1)),c,w
  3518                           opt subtitle "HI-TECH Software Omniscient Code Generator (Lite mode) build 49521"
  3519  0072FE  A4D8               	btfss	status,2
  3520  007300  D001               	goto	u581
  3521  007302  D001               	goto	u580
  3522  007304                     u581:
  3523  007304  D003               	goto	l1211
  3524  007306                     u580:
  3525                           opt subtitle "HI-TECH Software Omniscient Code Generator (Lite mode) build 49521"
  3526  007306                     l1209:
  3527  007306  502F               	movf	((c:setupIO@mask)),c,w	;volatile
  3528  007308  1294               	iorwf	((c:3988)),c	;volatile
  3529  00730A  D05F               	goto	l148
  3530                           opt subtitle "HI-TECH Software Omniscient Code Generator (Lite mode) build 49521"
  3531  00730C                     l133:
  3532                           opt subtitle "HI-TECH Software Omniscient Code Generator (Lite mode) build 49521"
  3533  00730C                     l1211:
  3534  00730C  502F               	movf	((c:setupIO@mask)),c,w	;volatile
  3535  00730E  0AFF               	xorlw	0ffh
  3536  007310  1694               	andwf	((c:3988)),c	;volatile
  3537  007312  D05B               	goto	l148
  3538                           opt subtitle "HI-TECH Software Omniscient Code Generator (Lite mode) build 49521"
  3539  007314                     l134:
  3540                           opt subtitle "HI-TECH Software Omniscient Code Generator (Lite mode) build 49521"
  3541                           
  3542  007314  D05A               	goto	l148
  3543                           opt subtitle "HI-TECH Software Omniscient Code Generator (Lite mode) build 49521"
  3544                           
  3545                           opt pagewidth 120
  3546  007316                     l135:
  3547                           opt subtitle "HI-TECH Software Omniscient Code Generator (Lite mode) build 49521"
  3548                           
  3549  007316                     l1213:
  3550                           opt subtitle "HI-TECH Software Omniscient Code Generator (Lite mode) build 49521"
  3551  007316  0427               	decf	((c:setupIO@direction)),c,w
  3552  007318  1028               	iorwf ((c:setupIO@direction+1)),c,w
  3553                           opt subtitle "HI-TECH Software Omniscient Code Generator (Lite mode) build 49521"
  3554  00731A  A4D8               	btfss	status,2
  3555  00731C  D001               	goto	u591
  3556  00731E  D001               	goto	u590
  3557  007320                     u591:
  3558  007320  D003               	goto	l1217
  3559  007322                     u590:
  3560                           opt subtitle "HI-TECH Software Omniscient Code Generator (Lite mode) build 49521"
  3561  007322                     l1215:
  3562  007322  502F               	movf	((c:setupIO@mask)),c,w	;volatile
  3563  007324  1295               	iorwf	((c:3989)),c	;volatile
  3564  007326  D051               	goto	l148
  3565                           opt subtitle "HI-TECH Software Omniscient Code Generator (Lite mode) build 49521"
  3566  007328                     l136:
  3567                           opt subtitle "HI-TECH Software Omniscient Code Generator (Lite mode) build 49521"
  3568  007328                     l1217:
  3569  007328  502F               	movf	((c:setupIO@mask)),c,w	;volatile
  3570  00732A  0AFF               	xorlw	0ffh
  3571  00732C  1695               	andwf	((c:3989)),c	;volatile
  3572  00732E  D04D               	goto	l148
  3573                           opt subtitle "HI-TECH Software Omniscient Code Generator (Lite mode) build 49521"
  3574  007330                     l137:
  3575                           opt subtitle "HI-TECH Software Omniscient Code Generator (Lite mode) build 49521"
  3576                           
  3577  007330  D04C               	goto	l148
  3578                           opt subtitle "HI-TECH Software Omniscient Code Generator (Lite mode) build 49521"
  3579                           
  3580                           opt pagewidth 120
  3581  007332                     l138:
  3582                           opt subtitle "HI-TECH Software Omniscient Code Generator (Lite mode) build 49521"
  3583                           
  3584  007332                     l1219:
  3585                           opt subtitle "HI-TECH Software Omniscient Code Generator (Lite mode) build 49521"
  3586  007332  0427               	decf	((c:setupIO@direction)),c,w
  3587  007334  1028               	iorwf ((c:setupIO@direction+1)),c,w
  3588                           opt subtitle "HI-TECH Software Omniscient Code Generator (Lite mode) build 49521"
  3589  007336  A4D8               	btfss	status,2
  3590  007338  D001               	goto	u601
  3591  00733A  D001               	goto	u600
  3592  00733C                     u601:
  3593  00733C  D003               	goto	l1223
  3594  00733E                     u600:
  3595                           opt subtitle "HI-TECH Software Omniscient Code Generator (Lite mode) build 49521"
  3596  00733E                     l1221:
  3597  00733E  502F               	movf	((c:setupIO@mask)),c,w	;volatile
  3598  007340  1296               	iorwf	((c:3990)),c	;volatile
  3599  007342  D043               	goto	l148
  3600                           opt subtitle "HI-TECH Software Omniscient Code Generator (Lite mode) build 49521"
  3601  007344                     l139:
  3602                           opt subtitle "HI-TECH Software Omniscient Code Generator (Lite mode) build 49521"
  3603  007344                     l1223:
  3604  007344  502F               	movf	((c:setupIO@mask)),c,w	;volatile
  3605  007346  0AFF               	xorlw	0ffh
  3606  007348  1696               	andwf	((c:3990)),c	;volatile
  3607  00734A  D03F               	goto	l148
  3608                           opt subtitle "HI-TECH Software Omniscient Code Generator (Lite mode) build 49521"
  3609  00734C                     l140:
  3610                           opt subtitle "HI-TECH Software Omniscient Code Generator (Lite mode) build 49521"
  3611                           
  3612  00734C  D03E               	goto	l148
  3613                           opt subtitle "HI-TECH Software Omniscient Code Generator (Lite mode) build 49521"
  3614                           
  3615                           opt pagewidth 120
  3616  00734E                     l141:
  3617                           opt subtitle "HI-TECH Software Omniscient Code Generator (Lite mode) build 49521"
  3618                           
  3619  00734E                     l1225:
  3620                           opt subtitle "HI-TECH Software Omniscient Code Generator (Lite mode) build 49521"
  3621  00734E  0427               	decf	((c:setupIO@direction)),c,w
  3622  007350  1028               	iorwf ((c:setupIO@direction+1)),c,w
  3623                           opt subtitle "HI-TECH Software Omniscient Code Generator (Lite mode) build 49521"
  3624  007352  A4D8               	btfss	status,2
  3625  007354  D001               	goto	u611
  3626  007356  D001               	goto	u610
  3627  007358                     u611:
  3628  007358  D003               	goto	l1229
  3629  00735A                     u610:
  3630                           opt subtitle "HI-TECH Software Omniscient Code Generator (Lite mode) build 49521"
  3631  00735A                     l1227:
  3632  00735A  502F               	movf	((c:setupIO@mask)),c,w	;volatile
  3633  00735C  1297               	iorwf	((c:3991)),c	;volatile
  3634  00735E  D035               	goto	l148
  3635                           opt subtitle "HI-TECH Software Omniscient Code Generator (Lite mode) build 49521"
  3636  007360                     l142:
  3637                           opt subtitle "HI-TECH Software Omniscient Code Generator (Lite mode) build 49521"
  3638  007360                     l1229:
  3639  007360  502F               	movf	((c:setupIO@mask)),c,w	;volatile
  3640  007362  0AFF               	xorlw	0ffh
  3641  007364  1697               	andwf	((c:3991)),c	;volatile
  3642  007366  D031               	goto	l148
  3643                           opt subtitle "HI-TECH Software Omniscient Code Generator (Lite mode) build 49521"
  3644  007368                     l143:
  3645                           opt subtitle "HI-TECH Software Omniscient Code Generator (Lite mode) build 49521"
  3646                           
  3647  007368  D030               	goto	l148
  3648                           opt subtitle "HI-TECH Software Omniscient Code Generator (Lite mode) build 49521"
  3649                           
  3650                           opt pagewidth 120
  3651  00736A                     l144:
  3652                           opt subtitle "HI-TECH Software Omniscient Code Generator (Lite mode) build 49521"
  3653                           
  3654  00736A                     l1231:
  3655                           opt subtitle "HI-TECH Software Omniscient Code Generator (Lite mode) build 49521"
  3656  00736A  0427               	decf	((c:setupIO@direction)),c,w
  3657  00736C  1028               	iorwf ((c:setupIO@direction+1)),c,w
  3658                           opt subtitle "HI-TECH Software Omniscient Code Generator (Lite mode) build 49521"
  3659  00736E  A4D8               	btfss	status,2
  3660  007370  D001               	goto	u621
  3661  007372  D001               	goto	u620
  3662  007374                     u621:
  3663  007374  D003               	goto	l1235
  3664  007376                     u620:
  3665                           opt subtitle "HI-TECH Software Omniscient Code Generator (Lite mode) build 49521"
  3666  007376                     l1233:
  3667  007376  502F               	movf	((c:setupIO@mask)),c,w	;volatile
  3668  007378  1298               	iorwf	((c:3992)),c	;volatile
  3669  00737A  D027               	goto	l148
  3670                           opt subtitle "HI-TECH Software Omniscient Code Generator (Lite mode) build 49521"
  3671  00737C                     l145:
  3672                           opt subtitle "HI-TECH Software Omniscient Code Generator (Lite mode) build 49521"
  3673  00737C                     l1235:
  3674  00737C  502F               	movf	((c:setupIO@mask)),c,w	;volatile
  3675  00737E  0AFF               	xorlw	0ffh
  3676  007380  1698               	andwf	((c:3992)),c	;volatile
  3677  007382  D023               	goto	l148
  3678                           opt subtitle "HI-TECH Software Omniscient Code Generator (Lite mode) build 49521"
  3679  007384                     l146:
  3680                           opt subtitle "HI-TECH Software Omniscient Code Generator (Lite mode) build 49521"
  3681                           
  3682  007384  D022               	goto	l148
  3683                           opt subtitle "HI-TECH Software Omniscient Code Generator (Lite mode) build 49521"
  3684                           
  3685                           opt pagewidth 120
  3686  007386                     l147:
  3687                           opt subtitle "HI-TECH Software Omniscient Code Generator (Lite mode) build 49521"
  3688                           
  3689  007386  D021               	goto	l148
  3690                           opt subtitle "HI-TECH Software Omniscient Code Generator (Lite mode) build 49521"
  3691                           
  3692  007388                     l1237:
  3693                           opt subtitle "HI-TECH Software Omniscient Code Generator (Lite mode) build 49521"
  3694  007388  D020               	goto	l148
  3695                           opt subtitle "HI-TECH Software Omniscient Code Generator (Lite mode) build 49521"
  3696                           
  3697  00738A                     l124:
  3698                           opt subtitle "HI-TECH Software Omniscient Code Generator (Lite mode) build 49521"
  3699  00738A                     l1239:
  3700  00738A  C02D  F029         	movff	(c:setupIO@port),??_setupIO+0+0	;volatile
  3701  00738E  C02E  F02A         	movff	(c:setupIO@port+1),??_setupIO+0+0+1	;volatile
  3702                           opt subtitle "HI-TECH Software Omniscient Code Generator (Lite mode) build 49521"
  3703                           
  3704                           opt pagewidth 120
  3705                           
  3706                           	opt lm
  3707                           
  3708                           	processor	18F65K22
  3709                           porta	equ	0F80h
  3710  007392  502A               	movf ??_setupIO+0+1,c,w
  3711  007394  0A00               	xorlw	0^0	; case 0
  3712  007396  B4D8               	skipnz
  3713  007398  D001               	goto	l1557
  3714  00739A  D017               	goto	l148
  3715                           opt subtitle "HI-TECH Software Omniscient Code Generator (Lite mode) build 49521"
  3716  00739C                     l1557:
  3717                           opt subtitle "HI-TECH Software Omniscient Code Generator (Lite mode) build 49521"
  3718                           
  3719                           opt pagewidth 120
  3720                           
  3721                           	opt lm
  3722                           
  3723                           	processor	18F65K22
  3724  00739C  5029               	movf ??_setupIO+0+0,c,w
  3725  00739E  0A00               	xorlw	0^0	; case 0
  3726  0073A0  B4D8               	skipnz
  3727  0073A2  D78F               	goto	l1195
  3728  0073A4  0A01               	xorlw	1^0	; case 1
  3729  0073A6  B4D8               	skipnz
  3730  0073A8  D79A               	goto	l1201
  3731  0073AA  0A03               	xorlw	2^1	; case 2
  3732  0073AC  B4D8               	skipnz
  3733  0073AE  D7A5               	goto	l1207
  3734  0073B0  0A01               	xorlw	3^2	; case 3
  3735  0073B2  B4D8               	skipnz
  3736  0073B4  D7B0               	goto	l1213
  3737  0073B6  0A07               	xorlw	4^3	; case 4
  3738  0073B8  B4D8               	skipnz
  3739  0073BA  D7BB               	goto	l1219
  3740  0073BC  0A01               	xorlw	5^4	; case 5
  3741  0073BE  B4D8               	skipnz
  3742  0073C0  D7C6               	goto	l1225
  3743  0073C2  0A03               	xorlw	6^5	; case 6
  3744  0073C4  B4D8               	skipnz
  3745  0073C6  D7D1               	goto	l1231
  3746  0073C8  D000               	goto	l148
  3747                           opt subtitle "HI-TECH Software Omniscient Code Generator (Lite mode) build 49521"
  3748                           
  3749                           opt pagewidth 120
  3750  0073CA                     l128:
  3751                           opt subtitle "HI-TECH Software Omniscient Code Generator (Lite mode) build 49521"
  3752                           
  3753  0073CA                     l148:
  3754  0073CA  0012               	return
  3755                           opt subtitle "HI-TECH Software Omniscient Code Generator (Lite mode) build 49521"
  3756                           
  3757  0073CC                     	__end_of_setupIO:
  3758                           opt subtitle "HI-TECH Software Omniscient Code Generator (Lite mode) build 49521"
  3759                           
  3760                           opt pagewidth 120
  3761                           
  3762                           	opt lm
  3763                           
  3764                           	processor	18F65K22
  3765                           porta	equ	0F80h
  3766                           portb	equ	0F81h
  3767                           portc	equ	0F82h
  3768                           portd	equ	0F83h
  3769                           porte	equ	0F84h
  3770                           lata	equ	0F89h
  3771                           latb	equ	0F8Ah
  3772                           latc	equ	0F8Bh
  3773                           latd	equ	0F8Ch
  3774                           late	equ	0F8Dh
  3775                           trisa	equ	0F92h
  3776                           trisb	equ	0F93h
  3777                           trisc	equ	0F94h
  3778                           trisd	equ	0F95h
  3779                           trise	equ	0F96h
  3780                           pie1	equ	0F9Dh
  3781                           pir1	equ	0F9Eh
  3782                           ipr1	equ	0F9Fh
  3783                           pie2	equ	0FA0h
  3784                           pir2	equ	0FA1h
  3785                           ipr2	equ	0FA2h
  3786                           t3con	equ	0FB1h
  3787                           tmr3l	equ	0FB2h
  3788                           tmr3h	equ	0FB3h
  3789                           ccp1con	equ	0FBDh
  3790                           ccpr1l	equ	0FBEh
  3791  006ED6                     __ptext2:
  3792                           opt subtitle "HI-TECH Software Omniscient Code Generator (Lite mode) build 49521"
  3793                           
  3794                           opt pagewidth 120
  3795                           
  3796  0000                     	__size_of_Read_b_eep	equ	__end_of_Read_b_eep-_Read_b_eep
  3797                           opt subtitle "HI-TECH Software Omniscient Code Generator (Lite mode) build 49521"
  3798  006ED6                     _Read_b_eep:
  3799                           opt subtitle "HI-TECH Software Omniscient Code Generator (Lite mode) build 49521"
  3800                           
  3801                           opt pagewidth 120
  3802  006ED6                     l1243:
  3803  006ED6  5026               	movf	((c:Read_b_eep@badd+1)),c,w
  3804  006ED8  0B03               	andlw	low(03h)
  3805  006EDA  6E63               	movwf	((c:3939)),c	;volatile
  3806                           opt subtitle "HI-TECH Software Omniscient Code Generator (Lite mode) build 49521"
  3807                           
  3808  006EDC                     l1245:
  3809  006EDC  C025  FF62         	movff	(c:Read_b_eep@badd),(c:3938)	;volatile
  3810                           opt subtitle "HI-TECH Software Omniscient Code Generator (Lite mode) build 49521"
  3811                           
  3812  006EE0                     l1247:
  3813  006EE0  9C7F               	bcf	((c:3967)),c,6	;volatile
  3814                           opt subtitle "HI-TECH Software Omniscient Code Generator (Lite mode) build 49521"
  3815                           
  3816  006EE2                     l1249:
  3817  006EE2  9E7F               	bcf	((c:3967)),c,7	;volatile
  3818                           opt subtitle "HI-TECH Software Omniscient Code Generator (Lite mode) build 49521"
  3819                           
  3820  006EE4                     l1251:
  3821  006EE4  807F               	bsf	((c:3967)),c,0	;volatile
  3822                           opt subtitle "HI-TECH Software Omniscient Code Generator (Lite mode) build 49521"
  3823                           
  3824  006EE6  F000               nop ;# 
  3825                           opt subtitle "HI-TECH Software Omniscient Code Generator (Lite mode) build 49521"
  3826                           
  3827  006EE8  F000               nop ;# 
  3828                           opt subtitle "HI-TECH Software Omniscient Code Generator (Lite mode) build 49521"
  3829                           
  3830                           opt pagewidth 120
  3831  006EEA                     l1253:
  3832  006EEA  5061               	movf	((c:3937)),c,w	;volatile
  3833  006EEC  D000               	goto	l212
  3834                           opt subtitle "HI-TECH Software Omniscient Code Generator (Lite mode) build 49521"
  3835  006EEE                     l1255:
  3836                           opt subtitle "HI-TECH Software Omniscient Code Generator (Lite mode) build 49521"
  3837                           
  3838  006EEE                     l212:
  3839  006EEE  0012               	return
  3840                           opt subtitle "HI-TECH Software Omniscient Code Generator (Lite mode) build 49521"
  3841                           
  3842  006EF0                     	__end_of_Read_b_eep:
  3843                           opt subtitle "HI-TECH Software Omniscient Code Generator (Lite mode) build 49521"
  3844                           
  3845                           opt pagewidth 120
  3846                           
  3847                           	opt lm
  3848                           
  3849                           	processor	18F65K22
  3850                           porta	equ	0F80h
  3851                           portb	equ	0F81h
  3852                           portc	equ	0F82h
  3853                           portd	equ	0F83h
  3854                           porte	equ	0F84h
  3855                           lata	equ	0F89h
  3856                           latb	equ	0F8Ah
  3857                           latc	equ	0F8Bh
  3858                           latd	equ	0F8Ch
  3859                           late	equ	0F8Dh
  3860                           trisa	equ	0F92h
  3861                           trisb	equ	0F93h
  3862                           trisc	equ	0F94h
  3863                           trisd	equ	0F95h
  3864                           trise	equ	0F96h
  3865                           pie1	equ	0F9Dh
  3866                           pir1	equ	0F9Eh
  3867                           ipr1	equ	0F9Fh
  3868                           pie2	equ	0FA0h
  3869                           pir2	equ	0FA1h
  3870                           ipr2	equ	0FA2h
  3871                           t3con	equ	0FB1h
  3872                           tmr3l	equ	0FB2h
  3873                           tmr3h	equ	0FB3h
  3874                           ccp1con	equ	0FBDh
  3875                           ccpr1l	equ	0FBEh
  3876                           ccpr1h	equ	0FBFh
  3877  006F80                     __ptext3:
  3878                           opt subtitle "HI-TECH Software Omniscient Code Generator (Lite mode) build 49521"
  3879                           
  3880                           opt pagewidth 120
  3881                           
  3882  0000                     	__size_of__delay_ms	equ	__end_of__delay_ms-__delay_ms
  3883                           opt subtitle "HI-TECH Software Omniscient Code Generator (Lite mode) build 49521"
  3884  006F80                     __delay_ms:
  3885                           opt subtitle "HI-TECH Software Omniscient Code Generator (Lite mode) build 49521"
  3886                           
  3887                           opt pagewidth 120
  3888  006F80                     l1257:
  3889                           opt subtitle "HI-TECH Software Omniscient Code Generator (Lite mode) build 49521"
  3890  006F80  0E00               	movlw	high(0)
  3891  006F82  6E28               	movwf	((c:__delay_ms@i+1)),c
  3892  006F84  0E00               	movlw	low(0)
  3893  006F86  6E27               	movwf	((c:__delay_ms@i)),c
  3894  006F88  D020               	goto	l1271
  3895                           opt subtitle "HI-TECH Software Omniscient Code Generator (Lite mode) build 49521"
  3896                           
  3897  006F8A                     l117:
  3898                           opt subtitle "HI-TECH Software Omniscient Code Generator (Lite mode) build 49521"
  3899                           
  3900  006F8A                     l1259:
  3901                           opt subtitle "HI-TECH Software Omniscient Code Generator (Lite mode) build 49521"
  3902                           
  3903  006F8A  0E00               	movlw	high(0)
  3904  006F8C  6E2A               	movwf	((c:__delay_ms@j+1)),c
  3905  006F8E  0E00               	movlw	low(0)
  3906  006F90  6E29               	movwf	((c:__delay_ms@j)),c
  3907                           opt subtitle "HI-TECH Software Omniscient Code Generator (Lite mode) build 49521"
  3908  006F92                     l1261:
  3909  006F92  502A               	movf	((c:__delay_ms@j+1)),c,w
  3910  006F94  0A80               	xorlw	80h
  3911  006F96  0F80               	addlw	-((0)^80h)
  3912  006F98  0E91               	movlw	091h
  3913  006F9A  B4D8               	btfsc	status,2
  3914  006F9C  5C29               	subwf	((c:__delay_ms@j)),c,w
  3915  006F9E  A0D8               	btfss	status,0
  3916  006FA0  D001               	goto	u631
  3917  006FA2  D001               	goto	u630
  3918  006FA4                     u631:
  3919  006FA4  D002               	goto	l1265
  3920  006FA6                     u630:
  3921  006FA6  D00E               	goto	l1269
  3922                           opt subtitle "HI-TECH Software Omniscient Code Generator (Lite mode) build 49521"
  3923  006FA8                     l1263:
  3924  006FA8  D00D               	goto	l1269
  3925                           opt subtitle "HI-TECH Software Omniscient Code Generator (Lite mode) build 49521"
  3926  006FAA                     l118:
  3927                           opt subtitle "HI-TECH Software Omniscient Code Generator (Lite mode) build 49521"
  3928  006FAA                     l1265:
  3929  006FAA  4A29               	infsnz	((c:__delay_ms@j)),c
  3930  006FAC  2A2A               	incf	((c:__delay_ms@j+1)),c
  3931                           opt subtitle "HI-TECH Software Omniscient Code Generator (Lite mode) build 49521"
  3932  006FAE                     l1267:
  3933  006FAE  502A               	movf	((c:__delay_ms@j+1)),c,w
  3934  006FB0  0A80               	xorlw	80h
  3935  006FB2  0F80               	addlw	-((0)^80h)
  3936  006FB4  0E91               	movlw	091h
  3937  006FB6  B4D8               	btfsc	status,2
  3938  006FB8  5C29               	subwf	((c:__delay_ms@j)),c,w
  3939  006FBA  A0D8               	btfss	status,0
  3940  006FBC  D001               	goto	u641
  3941  006FBE  D001               	goto	u640
  3942  006FC0                     u641:
  3943  006FC0  D7F4               	goto	l1265
  3944  006FC2                     u640:
  3945  006FC2  D000               	goto	l1269
  3946                           opt subtitle "HI-TECH Software Omniscient Code Generator (Lite mode) build 49521"
  3947  006FC4                     l119:
  3948                           opt subtitle "HI-TECH Software Omniscient Code Generator (Lite mode) build 49521"
  3949                           
  3950  006FC4                     l1269:
  3951  006FC4  4A27               	infsnz	((c:__delay_ms@i)),c
  3952  006FC6  2A28               	incf	((c:__delay_ms@i+1)),c
  3953  006FC8  D000               	goto	l1271
  3954                           opt subtitle "HI-TECH Software Omniscient Code Generator (Lite mode) build 49521"
  3955  006FCA                     l116:
  3956                           opt subtitle "HI-TECH Software Omniscient Code Generator (Lite mode) build 49521"
  3957  006FCA                     l1271:
  3958  006FCA  5025               	movf	((c:__delay_ms@ms)),c,w
  3959  006FCC  5C27               	subwf	((c:__delay_ms@i)),c,w
  3960  006FCE  5026               	movf	((c:__delay_ms@ms+1)),c,w
  3961  006FD0  5828               	subwfb	((c:__delay_ms@i+1)),c,w
  3962  006FD2  A0D8               	btfss	status,0
  3963  006FD4  D001               	goto	u651
  3964  006FD6  D001               	goto	u650
  3965  006FD8                     u651:
  3966  006FD8  D7D8               	goto	l1259
  3967  006FDA                     u650:
  3968  006FDA  D000               	goto	l121
  3969                           opt subtitle "HI-TECH Software Omniscient Code Generator (Lite mode) build 49521"
  3970  006FDC                     l120:
  3971                           opt subtitle "HI-TECH Software Omniscient Code Generator (Lite mode) build 49521"
  3972                           
  3973  006FDC                     l121:
  3974  006FDC  0012               	return
  3975                           opt subtitle "HI-TECH Software Omniscient Code Generator (Lite mode) build 49521"
  3976                           
  3977  006FDE                     	__end_of__delay_ms:
  3978                           opt subtitle "HI-TECH Software Omniscient Code Generator (Lite mode) build 49521"
  3979                           
  3980                           opt pagewidth 120
  3981                           
  3982                           	opt lm
  3983                           
  3984                           	processor	18F65K22
  3985                           porta	equ	0F80h
  3986                           portb	equ	0F81h
  3987                           portc	equ	0F82h
  3988                           portd	equ	0F83h
  3989                           porte	equ	0F84h
  3990                           lata	equ	0F89h
  3991                           latb	equ	0F8Ah
  3992                           latc	equ	0F8Bh
  3993                           latd	equ	0F8Ch
  3994                           late	equ	0F8Dh
  3995                           trisa	equ	0F92h
  3996                           trisb	equ	0F93h
  3997                           trisc	equ	0F94h
  3998                           trisd	equ	0F95h
  3999                           trise	equ	0F96h
  4000                           pie1	equ	0F9Dh
  4001                           pir1	equ	0F9Eh
  4002                           ipr1	equ	0F9Fh
  4003                           pie2	equ	0FA0h
  4004                           pir2	equ	0FA1h
  4005                           ipr2	equ	0FA2h
  4006                           t3con	equ	0FB1h
  4007                           tmr3l	equ	0FB2h
  4008                           tmr3h	equ	0FB3h
  4009                           ccp1con	equ	0FBDh
  4010                           ccpr1l	equ	0FBEh
  4011                           ccpr1h	equ	0FBFh
  4012                           adcon1	equ	0FC1h
  4013  0070BC                     __ptext4:
  4014                           opt subtitle "HI-TECH Software Omniscient Code Generator (Lite mode) build 49521"
  4015                           
  4016                           opt pagewidth 120
  4017                           
  4018  0000                     	__size_of_checkButton	equ	__end_of_checkButton-_checkButton
  4019                           opt subtitle "HI-TECH Software Omniscient Code Generator (Lite mode) build 49521"
  4020  0070BC                     _checkButton:
  4021                           opt subtitle "HI-TECH Software Omniscient Code Generator (Lite mode) build 49521"
  4022                           
  4023                           opt pagewidth 120
  4024  0070BC                     l1273:
  4025                           opt subtitle "HI-TECH Software Omniscient Code Generator (Lite mode) build 49521"
  4026                           
  4027                           opt pagewidth 120
  4028  0070BC  0E00               	movlw	high(0)
  4029  0070BE  6E2C               	movwf	((c:checkButton@state+1)),c	;volatile
  4030  0070C0  0E00               	movlw	low(0)
  4031  0070C2  6E2B               	movwf	((c:checkButton@state)),c	;volatile
  4032                           opt subtitle "HI-TECH Software Omniscient Code Generator (Lite mode) build 49521"
  4033                           
  4034  0070C4  5026               	movf	((c:checkButton@row+1)),c,w
  4035  0070C6  6E29               	movwf	((c:checkButton@port)),c	;volatile
  4036  0070C8  6A2A               	clrf	((c:checkButton@port+1)),c	;volatile
  4037                           opt subtitle "HI-TECH Software Omniscient Code Generator (Lite mode) build 49521"
  4038                           
  4039  0070CA                     l1275:
  4040                           opt subtitle "HI-TECH Software Omniscient Code Generator (Lite mode) build 49521"
  4041  0070CA  C025  F02D         	movff	(c:checkButton@row),(c:checkButton@mask)	;volatile
  4042                           opt subtitle "HI-TECH Software Omniscient Code Generator (Lite mode) build 49521"
  4043                           
  4044  0070CE  D041               	goto	l1293
  4045                           opt subtitle "HI-TECH Software Omniscient Code Generator (Lite mode) build 49521"
  4046                           
  4047                           opt pagewidth 120
  4048                           
  4049  0070D0                     l152:
  4050                           opt subtitle "HI-TECH Software Omniscient Code Generator (Lite mode) build 49521"
  4051                           
  4052  0070D0                     l1277:
  4053                           opt subtitle "HI-TECH Software Omniscient Code Generator (Lite mode) build 49521"
  4054  0070D0  5080               	movf	((c:3968)),c,w	;volatile
  4055  0070D2  142D               	andwf	((c:checkButton@mask)),c,w	;volatile
  4056  0070D4  0900               	iorlw	0
  4057  0070D6  0E00               	movlw	0
  4058  0070D8  B4D8               	btfsc	status,2
  4059  0070DA  0E01               	movlw	1
  4060  0070DC  6E2B               	movwf	((c:checkButton@state)),c	;volatile
  4061  0070DE  6A2C               	clrf	((c:checkButton@state+1)),c	;volatile
  4062                           opt subtitle "HI-TECH Software Omniscient Code Generator (Lite mode) build 49521"
  4063                           
  4064  0070E0  D058               	goto	l1295
  4065                           opt subtitle "HI-TECH Software Omniscient Code Generator (Lite mode) build 49521"
  4066                           
  4067                           opt pagewidth 120
  4068  0070E2                     l154:
  4069                           opt subtitle "HI-TECH Software Omniscient Code Generator (Lite mode) build 49521"
  4070                           
  4071  0070E2                     l1279:
  4072                           opt subtitle "HI-TECH Software Omniscient Code Generator (Lite mode) build 49521"
  4073  0070E2  5081               	movf	((c:3969)),c,w	;volatile
  4074  0070E4  142D               	andwf	((c:checkButton@mask)),c,w	;volatile
  4075  0070E6  0900               	iorlw	0
  4076  0070E8  0E00               	movlw	0
  4077  0070EA  B4D8               	btfsc	status,2
  4078  0070EC  0E01               	movlw	1
  4079  0070EE  6E2B               	movwf	((c:checkButton@state)),c	;volatile
  4080  0070F0  6A2C               	clrf	((c:checkButton@state+1)),c	;volatile
  4081                           opt subtitle "HI-TECH Software Omniscient Code Generator (Lite mode) build 49521"
  4082                           
  4083  0070F2  D04F               	goto	l1295
  4084                           opt subtitle "HI-TECH Software Omniscient Code Generator (Lite mode) build 49521"
  4085                           
  4086                           opt pagewidth 120
  4087  0070F4                     l155:
  4088                           opt subtitle "HI-TECH Software Omniscient Code Generator (Lite mode) build 49521"
  4089                           
  4090  0070F4                     l1281:
  4091                           opt subtitle "HI-TECH Software Omniscient Code Generator (Lite mode) build 49521"
  4092  0070F4  5082               	movf	((c:3970)),c,w	;volatile
  4093  0070F6  142D               	andwf	((c:checkButton@mask)),c,w	;volatile
  4094  0070F8  0900               	iorlw	0
  4095  0070FA  0E00               	movlw	0
  4096  0070FC  B4D8               	btfsc	status,2
  4097  0070FE  0E01               	movlw	1
  4098  007100  6E2B               	movwf	((c:checkButton@state)),c	;volatile
  4099  007102  6A2C               	clrf	((c:checkButton@state+1)),c	;volatile
  4100                           opt subtitle "HI-TECH Software Omniscient Code Generator (Lite mode) build 49521"
  4101                           
  4102  007104  D046               	goto	l1295
  4103                           opt subtitle "HI-TECH Software Omniscient Code Generator (Lite mode) build 49521"
  4104                           
  4105                           opt pagewidth 120
  4106  007106                     l156:
  4107                           opt subtitle "HI-TECH Software Omniscient Code Generator (Lite mode) build 49521"
  4108                           
  4109  007106                     l1283:
  4110                           opt subtitle "HI-TECH Software Omniscient Code Generator (Lite mode) build 49521"
  4111  007106  5083               	movf	((c:3971)),c,w	;volatile
  4112  007108  142D               	andwf	((c:checkButton@mask)),c,w	;volatile
  4113  00710A  0900               	iorlw	0
  4114  00710C  0E00               	movlw	0
  4115  00710E  B4D8               	btfsc	status,2
  4116  007110  0E01               	movlw	1
  4117  007112  6E2B               	movwf	((c:checkButton@state)),c	;volatile
  4118  007114  6A2C               	clrf	((c:checkButton@state+1)),c	;volatile
  4119                           opt subtitle "HI-TECH Software Omniscient Code Generator (Lite mode) build 49521"
  4120                           
  4121  007116  D03D               	goto	l1295
  4122                           opt subtitle "HI-TECH Software Omniscient Code Generator (Lite mode) build 49521"
  4123                           
  4124                           opt pagewidth 120
  4125  007118                     l157:
  4126                           opt subtitle "HI-TECH Software Omniscient Code Generator (Lite mode) build 49521"
  4127                           
  4128  007118                     l1285:
  4129                           opt subtitle "HI-TECH Software Omniscient Code Generator (Lite mode) build 49521"
  4130  007118  5084               	movf	((c:3972)),c,w	;volatile
  4131  00711A  142D               	andwf	((c:checkButton@mask)),c,w	;volatile
  4132  00711C  0900               	iorlw	0
  4133  00711E  0E00               	movlw	0
  4134  007120  B4D8               	btfsc	status,2
  4135  007122  0E01               	movlw	1
  4136  007124  6E2B               	movwf	((c:checkButton@state)),c	;volatile
  4137  007126  6A2C               	clrf	((c:checkButton@state+1)),c	;volatile
  4138                           opt subtitle "HI-TECH Software Omniscient Code Generator (Lite mode) build 49521"
  4139                           
  4140  007128  D034               	goto	l1295
  4141                           opt subtitle "HI-TECH Software Omniscient Code Generator (Lite mode) build 49521"
  4142                           
  4143                           opt pagewidth 120
  4144  00712A                     l158:
  4145                           opt subtitle "HI-TECH Software Omniscient Code Generator (Lite mode) build 49521"
  4146                           
  4147  00712A                     l1287:
  4148                           opt subtitle "HI-TECH Software Omniscient Code Generator (Lite mode) build 49521"
  4149  00712A  5085               	movf	((c:3973)),c,w	;volatile
  4150  00712C  142D               	andwf	((c:checkButton@mask)),c,w	;volatile
  4151  00712E  0900               	iorlw	0
  4152  007130  0E00               	movlw	0
  4153  007132  B4D8               	btfsc	status,2
  4154  007134  0E01               	movlw	1
  4155  007136  6E2B               	movwf	((c:checkButton@state)),c	;volatile
  4156  007138  6A2C               	clrf	((c:checkButton@state+1)),c	;volatile
  4157                           opt subtitle "HI-TECH Software Omniscient Code Generator (Lite mode) build 49521"
  4158                           
  4159  00713A  D02B               	goto	l1295
  4160                           opt subtitle "HI-TECH Software Omniscient Code Generator (Lite mode) build 49521"
  4161                           
  4162                           opt pagewidth 120
  4163  00713C                     l159:
  4164                           opt subtitle "HI-TECH Software Omniscient Code Generator (Lite mode) build 49521"
  4165                           
  4166  00713C                     l1289:
  4167                           opt subtitle "HI-TECH Software Omniscient Code Generator (Lite mode) build 49521"
  4168  00713C  5086               	movf	((c:3974)),c,w	;volatile
  4169  00713E  142D               	andwf	((c:checkButton@mask)),c,w	;volatile
  4170  007140  0900               	iorlw	0
  4171  007142  0E00               	movlw	0
  4172  007144  B4D8               	btfsc	status,2
  4173  007146  0E01               	movlw	1
  4174  007148  6E2B               	movwf	((c:checkButton@state)),c	;volatile
  4175  00714A  6A2C               	clrf	((c:checkButton@state+1)),c	;volatile
  4176                           opt subtitle "HI-TECH Software Omniscient Code Generator (Lite mode) build 49521"
  4177                           
  4178  00714C  D022               	goto	l1295
  4179                           opt subtitle "HI-TECH Software Omniscient Code Generator (Lite mode) build 49521"
  4180                           
  4181                           opt pagewidth 120
  4182  00714E                     l160:
  4183                           opt subtitle "HI-TECH Software Omniscient Code Generator (Lite mode) build 49521"
  4184                           
  4185  00714E  D021               	goto	l1295
  4186                           opt subtitle "HI-TECH Software Omniscient Code Generator (Lite mode) build 49521"
  4187                           
  4188  007150                     l1291:
  4189                           opt subtitle "HI-TECH Software Omniscient Code Generator (Lite mode) build 49521"
  4190  007150  D020               	goto	l1295
  4191                           opt subtitle "HI-TECH Software Omniscient Code Generator (Lite mode) build 49521"
  4192                           
  4193  007152                     l151:
  4194                           opt subtitle "HI-TECH Software Omniscient Code Generator (Lite mode) build 49521"
  4195  007152                     l1293:
  4196  007152  C029  F027         	movff	(c:checkButton@port),??_checkButton+0+0	;volatile
  4197  007156  C02A  F028         	movff	(c:checkButton@port+1),??_checkButton+0+0+1	;volatile
  4198                           opt subtitle "HI-TECH Software Omniscient Code Generator (Lite mode) build 49521"
  4199                           
  4200                           opt pagewidth 120
  4201                           
  4202                           	opt lm
  4203                           
  4204                           	processor	18F65K22
  4205                           porta	equ	0F80h
  4206  00715A  5028               	movf ??_checkButton+0+1,c,w
  4207  00715C  0A00               	xorlw	0^0	; case 0
  4208  00715E  B4D8               	skipnz
  4209  007160  D001               	goto	l1559
  4210  007162  D017               	goto	l1295
  4211                           opt subtitle "HI-TECH Software Omniscient Code Generator (Lite mode) build 49521"
  4212  007164                     l1559:
  4213                           opt subtitle "HI-TECH Software Omniscient Code Generator (Lite mode) build 49521"
  4214                           
  4215                           opt pagewidth 120
  4216                           
  4217                           	opt lm
  4218                           
  4219                           	processor	18F65K22
  4220  007164  5027               	movf ??_checkButton+0+0,c,w
  4221  007166  0A00               	xorlw	0^0	; case 0
  4222  007168  B4D8               	skipnz
  4223  00716A  D7B2               	goto	l1277
  4224  00716C  0A01               	xorlw	1^0	; case 1
  4225  00716E  B4D8               	skipnz
  4226  007170  D7B8               	goto	l1279
  4227  007172  0A03               	xorlw	2^1	; case 2
  4228  007174  B4D8               	skipnz
  4229  007176  D7BE               	goto	l1281
  4230  007178  0A01               	xorlw	3^2	; case 3
  4231  00717A  B4D8               	skipnz
  4232  00717C  D7C4               	goto	l1283
  4233  00717E  0A07               	xorlw	4^3	; case 4
  4234  007180  B4D8               	skipnz
  4235  007182  D7CA               	goto	l1285
  4236  007184  0A01               	xorlw	5^4	; case 5
  4237  007186  B4D8               	skipnz
  4238  007188  D7D0               	goto	l1287
  4239  00718A  0A03               	xorlw	6^5	; case 6
  4240  00718C  B4D8               	skipnz
  4241  00718E  D7D6               	goto	l1289
  4242  007190  D000               	goto	l1295
  4243                           opt subtitle "HI-TECH Software Omniscient Code Generator (Lite mode) build 49521"
  4244                           
  4245                           opt pagewidth 120
  4246  007192                     l153:
  4247                           opt subtitle "HI-TECH Software Omniscient Code Generator (Lite mode) build 49521"
  4248                           
  4249  007192                     l1295:
  4250                           opt subtitle "HI-TECH Software Omniscient Code Generator (Lite mode) build 49521"
  4251  007192  502B               	movf	((c:checkButton@state)),c,w	;volatile
  4252  007194  D000               	goto	l161
  4253                           opt subtitle "HI-TECH Software Omniscient Code Generator (Lite mode) build 49521"
  4254  007196                     l1297:
  4255                           opt subtitle "HI-TECH Software Omniscient Code Generator (Lite mode) build 49521"
  4256                           
  4257  007196                     l161:
  4258  007196  0012               	return
  4259                           opt subtitle "HI-TECH Software Omniscient Code Generator (Lite mode) build 49521"
  4260                           
  4261  007198                     	__end_of_checkButton:
  4262                           opt subtitle "HI-TECH Software Omniscient Code Generator (Lite mode) build 49521"
  4263                           
  4264                           opt pagewidth 120
  4265                           
  4266                           	opt lm
  4267                           
  4268                           	processor	18F65K22
  4269                           porta	equ	0F80h
  4270                           portb	equ	0F81h
  4271                           portc	equ	0F82h
  4272                           portd	equ	0F83h
  4273                           porte	equ	0F84h
  4274                           lata	equ	0F89h
  4275                           latb	equ	0F8Ah
  4276                           latc	equ	0F8Bh
  4277                           latd	equ	0F8Ch
  4278                           late	equ	0F8Dh
  4279                           trisa	equ	0F92h
  4280                           trisb	equ	0F93h
  4281                           trisc	equ	0F94h
  4282                           trisd	equ	0F95h
  4283                           trise	equ	0F96h
  4284                           pie1	equ	0F9Dh
  4285                           pir1	equ	0F9Eh
  4286                           ipr1	equ	0F9Fh
  4287                           pie2	equ	0FA0h
  4288                           pir2	equ	0FA1h
  4289                           ipr2	equ	0FA2h
  4290                           t3con	equ	0FB1h
  4291                           tmr3l	equ	0FB2h
  4292                           tmr3h	equ	0FB3h
  4293                           ccp1con	equ	0FBDh
  4294                           ccpr1l	equ	0FBEh
  4295                           ccpr1h	equ	0FBFh
  4296                           adcon1	equ	0FC1h
  4297                           adcon0	equ	0FC2h
  4298                           adresl	equ	0FC3h
  4299                           adresh	equ	0FC4h
  4300  007048                     __ptext5:
  4301                           opt subtitle "HI-TECH Software Omniscient Code Generator (Lite mode) build 49521"
  4302                           
  4303                           opt pagewidth 120
  4304                           
  4305  0000                     	__size_of_setOutputs	equ	__end_of_setOutputs-_setOutputs
  4306                           opt subtitle "HI-TECH Software Omniscient Code Generator (Lite mode) build 49521"
  4307  007048                     _setOutputs:
  4308                           opt subtitle "HI-TECH Software Omniscient Code Generator (Lite mode) build 49521"
  4309                           
  4310                           opt pagewidth 120
  4311  007048                     l1379:
  4312                           opt subtitle "HI-TECH Software Omniscient Code Generator (Lite mode) build 49521"
  4313  007048  502F               	movf	((c:setOutputs@alwayson+1)),c,w
  4314  00704A  102E               	iorwf ((c:setOutputs@alwayson)),c,w
  4315                           opt subtitle "HI-TECH Software Omniscient Code Generator (Lite mode) build 49521"
  4316  00704C  A4D8               	btfss	status,2
  4317  00704E  D001               	goto	u761
  4318  007050  D001               	goto	u760
  4319  007052                     u761:
  4320  007052  D015               	goto	l1383
  4321  007054                     u760:
  4322                           opt subtitle "HI-TECH Software Omniscient Code Generator (Lite mode) build 49521"
  4323                           
  4324  007054                     l1381:
  4325                           opt subtitle "HI-TECH Software Omniscient Code Generator (Lite mode) build 49521"
  4326                           
  4327  007054  C030  F025         	movff	(c:setOutputs@leftled),(c:?_setOutput)
  4328  007058  C031  F026         	movff	(c:setOutputs@leftled+1),(c:?_setOutput+1)
  4329  00705C  0E00               	movlw	high(01h)
  4330  00705E  6E28               	movwf	(1+((c:?_setOutput)+02h)),c
  4331  007060  0E01               	movlw	low(01h)
  4332  007062  6E27               	movwf	(0+((c:?_setOutput)+02h)),c
  4333  007064  ECCC  F038         	call	_setOutput	;wreg free
  4334                           opt subtitle "HI-TECH Software Omniscient Code Generator (Lite mode) build 49521"
  4335                           
  4336  007068  C032  F025         	movff	(c:setOutputs@rightled),(c:?_setOutput)
  4337  00706C  C033  F026         	movff	(c:setOutputs@rightled+1),(c:?_setOutput+1)
  4338  007070  C036  F027         	movff	(c:setOutputs@value),0+((c:?_setOutput)+02h)
  4339  007074  C037  F028         	movff	(c:setOutputs@value+1),1+((c:?_setOutput)+02h)
  4340  007078  ECCC  F038         	call	_setOutput	;wreg free
  4341                           opt subtitle "HI-TECH Software Omniscient Code Generator (Lite mode) build 49521"
  4342                           
  4343  00707C  D014               	goto	l192
  4344                           opt subtitle "HI-TECH Software Omniscient Code Generator (Lite mode) build 49521"
  4345                           
  4346  00707E                     l191:
  4347                           opt subtitle "HI-TECH Software Omniscient Code Generator (Lite mode) build 49521"
  4348                           
  4349  00707E                     l1383:
  4350                           opt subtitle "HI-TECH Software Omniscient Code Generator (Lite mode) build 49521"
  4351                           
  4352                           opt pagewidth 120
  4353  00707E  C030  F025         	movff	(c:setOutputs@leftled),(c:?_setOutput)
  4354  007082  C031  F026         	movff	(c:setOutputs@leftled+1),(c:?_setOutput+1)
  4355  007086  C036  F027         	movff	(c:setOutputs@value),0+((c:?_setOutput)+02h)
  4356  00708A  C037  F028         	movff	(c:setOutputs@value+1),1+((c:?_setOutput)+02h)
  4357  00708E  ECCC  F038         	call	_setOutput	;wreg free
  4358                           opt subtitle "HI-TECH Software Omniscient Code Generator (Lite mode) build 49521"
  4359                           
  4360  007092  C032  F025         	movff	(c:setOutputs@rightled),(c:?_setOutput)
  4361  007096  C033  F026         	movff	(c:setOutputs@rightled+1),(c:?_setOutput+1)
  4362  00709A  0E00               	movlw	high(01h)
  4363  00709C  6E28               	movwf	(1+((c:?_setOutput)+02h)),c
  4364  00709E  0E01               	movlw	low(01h)
  4365  0070A0  6E27               	movwf	(0+((c:?_setOutput)+02h)),c
  4366  0070A2  ECCC  F038         	call	_setOutput	;wreg free
  4367                           opt subtitle "HI-TECH Software Omniscient Code Generator (Lite mode) build 49521"
  4368                           
  4369  0070A6                     l192:
  4370                           opt subtitle "HI-TECH Software Omniscient Code Generator (Lite mode) build 49521"
  4371                           
  4372                           opt pagewidth 120
  4373  0070A6  C034  F025         	movff	(c:setOutputs@relay),(c:?_setOutput)
  4374  0070AA  C035  F026         	movff	(c:setOutputs@relay+1),(c:?_setOutput+1)
  4375  0070AE  C036  F027         	movff	(c:setOutputs@value),0+((c:?_setOutput)+02h)
  4376  0070B2  C037  F028         	movff	(c:setOutputs@value+1),1+((c:?_setOutput)+02h)
  4377  0070B6  ECCC  F038         	call	_setOutput	;wreg free
  4378                           opt subtitle "HI-TECH Software Omniscient Code Generator (Lite mode) build 49521"
  4379                           
  4380  0070BA                     l193:
  4381  0070BA  0012               	return
  4382                           opt subtitle "HI-TECH Software Omniscient Code Generator (Lite mode) build 49521"
  4383                           
  4384  0070BC                     	__end_of_setOutputs:
  4385                           opt subtitle "HI-TECH Software Omniscient Code Generator (Lite mode) build 49521"
  4386                           
  4387                           opt pagewidth 120
  4388                           
  4389                           	opt lm
  4390                           
  4391                           	processor	18F65K22
  4392                           porta	equ	0F80h
  4393                           portb	equ	0F81h
  4394                           portc	equ	0F82h
  4395                           portd	equ	0F83h
  4396                           porte	equ	0F84h
  4397                           lata	equ	0F89h
  4398                           latb	equ	0F8Ah
  4399                           latc	equ	0F8Bh
  4400                           latd	equ	0F8Ch
  4401                           late	equ	0F8Dh
  4402                           trisa	equ	0F92h
  4403                           trisb	equ	0F93h
  4404                           trisc	equ	0F94h
  4405                           trisd	equ	0F95h
  4406                           trise	equ	0F96h
  4407                           pie1	equ	0F9Dh
  4408                           pir1	equ	0F9Eh
  4409                           ipr1	equ	0F9Fh
  4410                           pie2	equ	0FA0h
  4411                           pir2	equ	0FA1h
  4412                           ipr2	equ	0FA2h
  4413                           t3con	equ	0FB1h
  4414                           tmr3l	equ	0FB2h
  4415                           tmr3h	equ	0FB3h
  4416                           ccp1con	equ	0FBDh
  4417                           ccpr1l	equ	0FBEh
  4418                           ccpr1h	equ	0FBFh
  4419  006EF0                     __ptext6:
  4420                           opt subtitle "HI-TECH Software Omniscient Code Generator (Lite mode) build 49521"
  4421                           
  4422                           opt pagewidth 120
  4423                           
  4424  0000                     	__size_of_Write_b_eep	equ	__end_of_Write_b_eep-_Write_b_eep
  4425                           opt subtitle "HI-TECH Software Omniscient Code Generator (Lite mode) build 49521"
  4426  006EF0                     _Write_b_eep:
  4427                           opt subtitle "HI-TECH Software Omniscient Code Generator (Lite mode) build 49521"
  4428                           
  4429                           opt pagewidth 120
  4430  006EF0                     l1301:
  4431  006EF0  6E28               	movwf	(??_Write_b_eep+0+0)&0ffh,c
  4432  006EF2  0E00               	movlw	low(0)
  4433  006EF4  6E29               	movwf	((c:Write_b_eep@GIE_BIT_VAL)),c
  4434  006EF6  5028               	movf	(??_Write_b_eep+0+0)&0ffh,c,w
  4435                           opt subtitle "HI-TECH Software Omniscient Code Generator (Lite mode) build 49521"
  4436                           
  4437  006EF8                     l1303:
  4438  006EF8  5026               	movf	((c:Write_b_eep@badd+1)),c,w
  4439  006EFA  0B03               	andlw	low(03h)
  4440  006EFC  6E63               	movwf	((c:3939)),c	;volatile
  4441                           opt subtitle "HI-TECH Software Omniscient Code Generator (Lite mode) build 49521"
  4442                           
  4443  006EFE                     l1305:
  4444  006EFE  C025  FF62         	movff	(c:Write_b_eep@badd),(c:3938)	;volatile
  4445                           opt subtitle "HI-TECH Software Omniscient Code Generator (Lite mode) build 49521"
  4446                           
  4447  006F02                     l1307:
  4448  006F02  C027  FF61         	movff	(c:Write_b_eep@bdat),(c:3937)	;volatile
  4449                           opt subtitle "HI-TECH Software Omniscient Code Generator (Lite mode) build 49521"
  4450                           
  4451  006F06                     l1309:
  4452  006F06  9E7F               	bcf	((c:3967)),c,7	;volatile
  4453                           opt subtitle "HI-TECH Software Omniscient Code Generator (Lite mode) build 49521"
  4454                           
  4455  006F08                     l1311:
  4456  006F08  9C7F               	bcf	((c:3967)),c,6	;volatile
  4457                           opt subtitle "HI-TECH Software Omniscient Code Generator (Lite mode) build 49521"
  4458                           
  4459  006F0A                     l1313:
  4460  006F0A  847F               	bsf	((c:3967)),c,2	;volatile
  4461                           opt subtitle "HI-TECH Software Omniscient Code Generator (Lite mode) build 49521"
  4462                           
  4463  006F0C                     l1315:
  4464  006F0C  0E00               	movlw	0
  4465  006F0E  BEF2               	btfsc	((c:4082)),c,7	;volatile
  4466  006F10  0E01               	movlw	1
  4467  006F12  6E29               	movwf	((c:Write_b_eep@GIE_BIT_VAL)),c
  4468                           opt subtitle "HI-TECH Software Omniscient Code Generator (Lite mode) build 49521"
  4469                           
  4470  006F14                     l1317:
  4471  006F14  9EF2               	bcf	((c:4082)),c,7	;volatile
  4472                           opt subtitle "HI-TECH Software Omniscient Code Generator (Lite mode) build 49521"
  4473                           
  4474  006F16                     l1319:
  4475  006F16  0E55               	movlw	low(055h)
  4476  006F18  6E7E               	movwf	((c:3966)),c	;volatile
  4477                           opt subtitle "HI-TECH Software Omniscient Code Generator (Lite mode) build 49521"
  4478                           
  4479  006F1A                     l1321:
  4480  006F1A  0EAA               	movlw	low(0AAh)
  4481  006F1C  6E7E               	movwf	((c:3966)),c	;volatile
  4482                           opt subtitle "HI-TECH Software Omniscient Code Generator (Lite mode) build 49521"
  4483                           
  4484  006F1E                     l1323:
  4485  006F1E  827F               	bsf	((c:3967)),c,1	;volatile
  4486                           opt subtitle "HI-TECH Software Omniscient Code Generator (Lite mode) build 49521"
  4487  006F20  D000               	goto	l227
  4488                           opt subtitle "HI-TECH Software Omniscient Code Generator (Lite mode) build 49521"
  4489  006F22                     l228:
  4490                           opt subtitle "HI-TECH Software Omniscient Code Generator (Lite mode) build 49521"
  4491  006F22                     l227:
  4492                           opt subtitle "HI-TECH Software Omniscient Code Generator (Lite mode) build 49521"
  4493  006F22  B27F               	btfsc	((c:3967)),c,1	;volatile
  4494  006F24  D001               	goto	u661
  4495  006F26  D001               	goto	u660
  4496  006F28                     u661:
  4497  006F28  D7FC               	goto	l227
  4498  006F2A                     u660:
  4499                           opt subtitle "HI-TECH Software Omniscient Code Generator (Lite mode) build 49521"
  4500  006F2A                     l229:
  4501                           opt subtitle "HI-TECH Software Omniscient Code Generator (Lite mode) build 49521"
  4502  006F2A  B029               	btfsc	(c:Write_b_eep@GIE_BIT_VAL),c,0
  4503  006F2C  D002               	bra	u675
  4504  006F2E  9EF2               	bcf	((c:4082)),c,7	;volatile
  4505  006F30  D001               	bra	u676
  4506  006F32                     	u675:
  4507  006F32  8EF2               	bsf	((c:4082)),c,7	;volatile
  4508  006F34                     	u676:
  4509                           opt subtitle "HI-TECH Software Omniscient Code Generator (Lite mode) build 49521"
  4510                           
  4511  006F34  947F               	bcf	((c:3967)),c,2	;volatile
  4512                           opt subtitle "HI-TECH Software Omniscient Code Generator (Lite mode) build 49521"
  4513                           
  4514  006F36                     l230:
  4515  006F36  0012               	return
  4516                           opt subtitle "HI-TECH Software Omniscient Code Generator (Lite mode) build 49521"
  4517                           
  4518  006F38                     	__end_of_Write_b_eep:
  4519                           opt subtitle "HI-TECH Software Omniscient Code Generator (Lite mode) build 49521"
  4520                           
  4521                           opt pagewidth 120
  4522                           
  4523                           	opt lm
  4524                           
  4525                           	processor	18F65K22
  4526                           porta	equ	0F80h
  4527                           portb	equ	0F81h
  4528                           portc	equ	0F82h
  4529                           portd	equ	0F83h
  4530                           porte	equ	0F84h
  4531                           lata	equ	0F89h
  4532                           latb	equ	0F8Ah
  4533                           latc	equ	0F8Bh
  4534                           latd	equ	0F8Ch
  4535                           late	equ	0F8Dh
  4536                           trisa	equ	0F92h
  4537                           trisb	equ	0F93h
  4538                           trisc	equ	0F94h
  4539                           trisd	equ	0F95h
  4540                           trise	equ	0F96h
  4541                           pie1	equ	0F9Dh
  4542                           pir1	equ	0F9Eh
  4543                           ipr1	equ	0F9Fh
  4544                           pie2	equ	0FA0h
  4545                           pir2	equ	0FA1h
  4546                           ipr2	equ	0FA2h
  4547                           t3con	equ	0FB1h
  4548                           tmr3l	equ	0FB2h
  4549                           tmr3h	equ	0FB3h
  4550                           ccp1con	equ	0FBDh
  4551                           ccpr1l	equ	0FBEh
  4552  006EB6                     __ptext7:
  4553                           opt subtitle "HI-TECH Software Omniscient Code Generator (Lite mode) build 49521"
  4554                           
  4555                           opt pagewidth 120
  4556                           
  4557  0000                     	__size_of_Busy_eep	equ	__end_of_Busy_eep-_Busy_eep
  4558                           opt subtitle "HI-TECH Software Omniscient Code Generator (Lite mode) build 49521"
  4559  006EB6                     _Busy_eep:
  4560                           opt subtitle "HI-TECH Software Omniscient Code Generator (Lite mode) build 49521"
  4561                           
  4562                           opt pagewidth 120
  4563  006EB6                     l1325:
  4564  006EB6  D000               	goto	l198
  4565                           opt subtitle "HI-TECH Software Omniscient Code Generator (Lite mode) build 49521"
  4566  006EB8                     l199:
  4567                           opt subtitle "HI-TECH Software Omniscient Code Generator (Lite mode) build 49521"
  4568  006EB8                     l198:
  4569                           opt subtitle "HI-TECH Software Omniscient Code Generator (Lite mode) build 49521"
  4570  006EB8  B27F               	btfsc	((c:3967)),c,1	;volatile
  4571  006EBA  D001               	goto	u681
  4572  006EBC  D001               	goto	u680
  4573  006EBE                     u681:
  4574  006EBE  D7FC               	goto	l198
  4575  006EC0                     u680:
  4576  006EC0  D000               	goto	l201
  4577                           opt subtitle "HI-TECH Software Omniscient Code Generator (Lite mode) build 49521"
  4578  006EC2                     l200:
  4579                           opt subtitle "HI-TECH Software Omniscient Code Generator (Lite mode) build 49521"
  4580                           
  4581  006EC2                     l201:
  4582  006EC2  0012               	return
  4583                           opt subtitle "HI-TECH Software Omniscient Code Generator (Lite mode) build 49521"
  4584                           
  4585  006EC4                     	__end_of_Busy_eep:
  4586                           opt subtitle "HI-TECH Software Omniscient Code Generator (Lite mode) build 49521"
  4587                           
  4588                           opt pagewidth 120
  4589                           
  4590                           	opt lm
  4591                           
  4592                           	processor	18F65K22
  4593                           porta	equ	0F80h
  4594                           portb	equ	0F81h
  4595                           portc	equ	0F82h
  4596                           portd	equ	0F83h
  4597                           porte	equ	0F84h
  4598                           lata	equ	0F89h
  4599                           latb	equ	0F8Ah
  4600                           latc	equ	0F8Bh
  4601                           latd	equ	0F8Ch
  4602                           late	equ	0F8Dh
  4603                           trisa	equ	0F92h
  4604                           trisb	equ	0F93h
  4605                           trisc	equ	0F94h
  4606                           trisd	equ	0F95h
  4607                           trise	equ	0F96h
  4608                           pie1	equ	0F9Dh
  4609                           pir1	equ	0F9Eh
  4610                           ipr1	equ	0F9Fh
  4611                           pie2	equ	0FA0h
  4612                           pir2	equ	0FA1h
  4613                           ipr2	equ	0FA2h
  4614                           t3con	equ	0FB1h
  4615                           tmr3l	equ	0FB2h
  4616                           tmr3h	equ	0FB3h
  4617                           ccp1con	equ	0FBDh
  4618                           ccpr1l	equ	0FBEh
  4619                           ccpr1h	equ	0FBFh
  4620                           adcon1	equ	0FC1h
  4621  007198                     __ptext8:
  4622                           opt subtitle "HI-TECH Software Omniscient Code Generator (Lite mode) build 49521"
  4623                           
  4624                           opt pagewidth 120
  4625                           
  4626  0000                     	__size_of_setOutput	equ	__end_of_setOutput-_setOutput
  4627                           opt subtitle "HI-TECH Software Omniscient Code Generator (Lite mode) build 49521"
  4628  007198                     _setOutput:
  4629                           opt subtitle "HI-TECH Software Omniscient Code Generator (Lite mode) build 49521"
  4630                           
  4631                           opt pagewidth 120
  4632  007198                     l1327:
  4633                           opt subtitle "HI-TECH Software Omniscient Code Generator (Lite mode) build 49521"
  4634                           
  4635                           opt pagewidth 120
  4636  007198  5026               	movf	((c:setOutput@row+1)),c,w
  4637  00719A  6E2B               	movwf	((c:setOutput@port)),c	;volatile
  4638  00719C  6A2C               	clrf	((c:setOutput@port+1)),c	;volatile
  4639                           opt subtitle "HI-TECH Software Omniscient Code Generator (Lite mode) build 49521"
  4640                           
  4641  00719E                     l1329:
  4642                           opt subtitle "HI-TECH Software Omniscient Code Generator (Lite mode) build 49521"
  4643  00719E  C025  F02D         	movff	(c:setOutput@row),(c:setOutput@mask)	;volatile
  4644                           opt subtitle "HI-TECH Software Omniscient Code Generator (Lite mode) build 49521"
  4645                           
  4646  0071A2  D064               	goto	l1375
  4647                           opt subtitle "HI-TECH Software Omniscient Code Generator (Lite mode) build 49521"
  4648                           
  4649                           opt pagewidth 120
  4650                           
  4651  0071A4                     l165:
  4652                           opt subtitle "HI-TECH Software Omniscient Code Generator (Lite mode) build 49521"
  4653                           
  4654  0071A4                     l1331:
  4655                           opt subtitle "HI-TECH Software Omniscient Code Generator (Lite mode) build 49521"
  4656  0071A4  0427               	decf	((c:setOutput@value)),c,w
  4657  0071A6  1028               	iorwf ((c:setOutput@value+1)),c,w
  4658                           opt subtitle "HI-TECH Software Omniscient Code Generator (Lite mode) build 49521"
  4659  0071A8  A4D8               	btfss	status,2
  4660  0071AA  D001               	goto	u691
  4661  0071AC  D001               	goto	u690
  4662  0071AE                     u691:
  4663  0071AE  D003               	goto	l1335
  4664  0071B0                     u690:
  4665                           opt subtitle "HI-TECH Software Omniscient Code Generator (Lite mode) build 49521"
  4666  0071B0                     l1333:
  4667  0071B0  502D               	movf	((c:setOutput@mask)),c,w	;volatile
  4668  0071B2  1289               	iorwf	((c:3977)),c	;volatile
  4669  0071B4  D07B               	goto	l188
  4670                           opt subtitle "HI-TECH Software Omniscient Code Generator (Lite mode) build 49521"
  4671  0071B6                     l166:
  4672                           opt subtitle "HI-TECH Software Omniscient Code Generator (Lite mode) build 49521"
  4673  0071B6                     l1335:
  4674  0071B6  502D               	movf	((c:setOutput@mask)),c,w	;volatile
  4675  0071B8  0AFF               	xorlw	0ffh
  4676  0071BA  1689               	andwf	((c:3977)),c	;volatile
  4677  0071BC  D077               	goto	l188
  4678                           opt subtitle "HI-TECH Software Omniscient Code Generator (Lite mode) build 49521"
  4679  0071BE                     l167:
  4680                           opt subtitle "HI-TECH Software Omniscient Code Generator (Lite mode) build 49521"
  4681                           
  4682  0071BE  D076               	goto	l188
  4683                           opt subtitle "HI-TECH Software Omniscient Code Generator (Lite mode) build 49521"
  4684                           
  4685                           opt pagewidth 120
  4686  0071C0                     l169:
  4687                           opt subtitle "HI-TECH Software Omniscient Code Generator (Lite mode) build 49521"
  4688                           
  4689  0071C0                     l1337:
  4690                           opt subtitle "HI-TECH Software Omniscient Code Generator (Lite mode) build 49521"
  4691  0071C0  0427               	decf	((c:setOutput@value)),c,w
  4692  0071C2  1028               	iorwf ((c:setOutput@value+1)),c,w
  4693                           opt subtitle "HI-TECH Software Omniscient Code Generator (Lite mode) build 49521"
  4694  0071C4  A4D8               	btfss	status,2
  4695  0071C6  D001               	goto	u701
  4696  0071C8  D001               	goto	u700
  4697  0071CA                     u701:
  4698  0071CA  D003               	goto	l1341
  4699  0071CC                     u700:
  4700                           opt subtitle "HI-TECH Software Omniscient Code Generator (Lite mode) build 49521"
  4701  0071CC                     l1339:
  4702  0071CC  502D               	movf	((c:setOutput@mask)),c,w	;volatile
  4703  0071CE  128A               	iorwf	((c:3978)),c	;volatile
  4704  0071D0  D06D               	goto	l188
  4705                           opt subtitle "HI-TECH Software Omniscient Code Generator (Lite mode) build 49521"
  4706  0071D2                     l170:
  4707                           opt subtitle "HI-TECH Software Omniscient Code Generator (Lite mode) build 49521"
  4708  0071D2                     l1341:
  4709  0071D2  502D               	movf	((c:setOutput@mask)),c,w	;volatile
  4710  0071D4  0AFF               	xorlw	0ffh
  4711  0071D6  168A               	andwf	((c:3978)),c	;volatile
  4712  0071D8  D069               	goto	l188
  4713                           opt subtitle "HI-TECH Software Omniscient Code Generator (Lite mode) build 49521"
  4714  0071DA                     l171:
  4715                           opt subtitle "HI-TECH Software Omniscient Code Generator (Lite mode) build 49521"
  4716                           
  4717  0071DA  D068               	goto	l188
  4718                           opt subtitle "HI-TECH Software Omniscient Code Generator (Lite mode) build 49521"
  4719                           
  4720                           opt pagewidth 120
  4721  0071DC                     l172:
  4722                           opt subtitle "HI-TECH Software Omniscient Code Generator (Lite mode) build 49521"
  4723                           
  4724  0071DC                     l1343:
  4725                           opt subtitle "HI-TECH Software Omniscient Code Generator (Lite mode) build 49521"
  4726  0071DC  0427               	decf	((c:setOutput@value)),c,w
  4727  0071DE  1028               	iorwf ((c:setOutput@value+1)),c,w
  4728                           opt subtitle "HI-TECH Software Omniscient Code Generator (Lite mode) build 49521"
  4729  0071E0  A4D8               	btfss	status,2
  4730  0071E2  D001               	goto	u711
  4731  0071E4  D001               	goto	u710
  4732  0071E6                     u711:
  4733  0071E6  D003               	goto	l1347
  4734  0071E8                     u710:
  4735                           opt subtitle "HI-TECH Software Omniscient Code Generator (Lite mode) build 49521"
  4736  0071E8                     l1345:
  4737  0071E8  502D               	movf	((c:setOutput@mask)),c,w	;volatile
  4738  0071EA  128B               	iorwf	((c:3979)),c	;volatile
  4739  0071EC  D05F               	goto	l188
  4740                           opt subtitle "HI-TECH Software Omniscient Code Generator (Lite mode) build 49521"
  4741  0071EE                     l173:
  4742                           opt subtitle "HI-TECH Software Omniscient Code Generator (Lite mode) build 49521"
  4743  0071EE                     l1347:
  4744  0071EE  502D               	movf	((c:setOutput@mask)),c,w	;volatile
  4745  0071F0  0AFF               	xorlw	0ffh
  4746  0071F2  168B               	andwf	((c:3979)),c	;volatile
  4747  0071F4  D05B               	goto	l188
  4748                           opt subtitle "HI-TECH Software Omniscient Code Generator (Lite mode) build 49521"
  4749  0071F6                     l174:
  4750                           opt subtitle "HI-TECH Software Omniscient Code Generator (Lite mode) build 49521"
  4751                           
  4752  0071F6  D05A               	goto	l188
  4753                           opt subtitle "HI-TECH Software Omniscient Code Generator (Lite mode) build 49521"
  4754                           
  4755                           opt pagewidth 120
  4756  0071F8                     l175:
  4757                           opt subtitle "HI-TECH Software Omniscient Code Generator (Lite mode) build 49521"
  4758                           
  4759  0071F8                     l1349:
  4760                           opt subtitle "HI-TECH Software Omniscient Code Generator (Lite mode) build 49521"
  4761  0071F8  0427               	decf	((c:setOutput@value)),c,w
  4762  0071FA  1028               	iorwf ((c:setOutput@value+1)),c,w
  4763                           opt subtitle "HI-TECH Software Omniscient Code Generator (Lite mode) build 49521"
  4764  0071FC  A4D8               	btfss	status,2
  4765  0071FE  D001               	goto	u721
  4766  007200  D001               	goto	u720
  4767  007202                     u721:
  4768  007202  D003               	goto	l1353
  4769  007204                     u720:
  4770                           opt subtitle "HI-TECH Software Omniscient Code Generator (Lite mode) build 49521"
  4771  007204                     l1351:
  4772  007204  502D               	movf	((c:setOutput@mask)),c,w	;volatile
  4773  007206  128C               	iorwf	((c:3980)),c	;volatile
  4774  007208  D051               	goto	l188
  4775                           opt subtitle "HI-TECH Software Omniscient Code Generator (Lite mode) build 49521"
  4776  00720A                     l176:
  4777                           opt subtitle "HI-TECH Software Omniscient Code Generator (Lite mode) build 49521"
  4778  00720A                     l1353:
  4779  00720A  502D               	movf	((c:setOutput@mask)),c,w	;volatile
  4780  00720C  0AFF               	xorlw	0ffh
  4781  00720E  168C               	andwf	((c:3980)),c	;volatile
  4782  007210  D04D               	goto	l188
  4783                           opt subtitle "HI-TECH Software Omniscient Code Generator (Lite mode) build 49521"
  4784  007212                     l177:
  4785                           opt subtitle "HI-TECH Software Omniscient Code Generator (Lite mode) build 49521"
  4786                           
  4787  007212  D04C               	goto	l188
  4788                           opt subtitle "HI-TECH Software Omniscient Code Generator (Lite mode) build 49521"
  4789                           
  4790                           opt pagewidth 120
  4791  007214                     l178:
  4792                           opt subtitle "HI-TECH Software Omniscient Code Generator (Lite mode) build 49521"
  4793                           
  4794  007214                     l1355:
  4795                           opt subtitle "HI-TECH Software Omniscient Code Generator (Lite mode) build 49521"
  4796  007214  0427               	decf	((c:setOutput@value)),c,w
  4797  007216  1028               	iorwf ((c:setOutput@value+1)),c,w
  4798                           opt subtitle "HI-TECH Software Omniscient Code Generator (Lite mode) build 49521"
  4799  007218  A4D8               	btfss	status,2
  4800  00721A  D001               	goto	u731
  4801  00721C  D001               	goto	u730
  4802  00721E                     u731:
  4803  00721E  D003               	goto	l1359
  4804  007220                     u730:
  4805                           opt subtitle "HI-TECH Software Omniscient Code Generator (Lite mode) build 49521"
  4806  007220                     l1357:
  4807  007220  502D               	movf	((c:setOutput@mask)),c,w	;volatile
  4808  007222  128D               	iorwf	((c:3981)),c	;volatile
  4809  007224  D043               	goto	l188
  4810                           opt subtitle "HI-TECH Software Omniscient Code Generator (Lite mode) build 49521"
  4811  007226                     l179:
  4812                           opt subtitle "HI-TECH Software Omniscient Code Generator (Lite mode) build 49521"
  4813  007226                     l1359:
  4814  007226  502D               	movf	((c:setOutput@mask)),c,w	;volatile
  4815  007228  0AFF               	xorlw	0ffh
  4816  00722A  168D               	andwf	((c:3981)),c	;volatile
  4817  00722C  D03F               	goto	l188
  4818                           opt subtitle "HI-TECH Software Omniscient Code Generator (Lite mode) build 49521"
  4819  00722E                     l180:
  4820                           opt subtitle "HI-TECH Software Omniscient Code Generator (Lite mode) build 49521"
  4821                           
  4822  00722E  D03E               	goto	l188
  4823                           opt subtitle "HI-TECH Software Omniscient Code Generator (Lite mode) build 49521"
  4824                           
  4825                           opt pagewidth 120
  4826  007230                     l181:
  4827                           opt subtitle "HI-TECH Software Omniscient Code Generator (Lite mode) build 49521"
  4828                           
  4829  007230                     l1361:
  4830                           opt subtitle "HI-TECH Software Omniscient Code Generator (Lite mode) build 49521"
  4831  007230  0427               	decf	((c:setOutput@value)),c,w
  4832  007232  1028               	iorwf ((c:setOutput@value+1)),c,w
  4833                           opt subtitle "HI-TECH Software Omniscient Code Generator (Lite mode) build 49521"
  4834  007234  A4D8               	btfss	status,2
  4835  007236  D001               	goto	u741
  4836  007238  D001               	goto	u740
  4837  00723A                     u741:
  4838  00723A  D003               	goto	l1365
  4839  00723C                     u740:
  4840                           opt subtitle "HI-TECH Software Omniscient Code Generator (Lite mode) build 49521"
  4841  00723C                     l1363:
  4842  00723C  502D               	movf	((c:setOutput@mask)),c,w	;volatile
  4843  00723E  128E               	iorwf	((c:3982)),c	;volatile
  4844  007240  D035               	goto	l188
  4845                           opt subtitle "HI-TECH Software Omniscient Code Generator (Lite mode) build 49521"
  4846  007242                     l182:
  4847                           opt subtitle "HI-TECH Software Omniscient Code Generator (Lite mode) build 49521"
  4848  007242                     l1365:
  4849  007242  502D               	movf	((c:setOutput@mask)),c,w	;volatile
  4850  007244  0AFF               	xorlw	0ffh
  4851  007246  168E               	andwf	((c:3982)),c	;volatile
  4852  007248  D031               	goto	l188
  4853                           opt subtitle "HI-TECH Software Omniscient Code Generator (Lite mode) build 49521"
  4854  00724A                     l183:
  4855                           opt subtitle "HI-TECH Software Omniscient Code Generator (Lite mode) build 49521"
  4856                           
  4857  00724A  D030               	goto	l188
  4858                           opt subtitle "HI-TECH Software Omniscient Code Generator (Lite mode) build 49521"
  4859                           
  4860                           opt pagewidth 120
  4861  00724C                     l184:
  4862                           opt subtitle "HI-TECH Software Omniscient Code Generator (Lite mode) build 49521"
  4863                           
  4864  00724C                     l1367:
  4865                           opt subtitle "HI-TECH Software Omniscient Code Generator (Lite mode) build 49521"
  4866  00724C  0427               	decf	((c:setOutput@value)),c,w
  4867  00724E  1028               	iorwf ((c:setOutput@value+1)),c,w
  4868                           opt subtitle "HI-TECH Software Omniscient Code Generator (Lite mode) build 49521"
  4869  007250  A4D8               	btfss	status,2
  4870  007252  D001               	goto	u751
  4871  007254  D001               	goto	u750
  4872  007256                     u751:
  4873  007256  D003               	goto	l1371
  4874  007258                     u750:
  4875                           opt subtitle "HI-TECH Software Omniscient Code Generator (Lite mode) build 49521"
  4876  007258                     l1369:
  4877  007258  502D               	movf	((c:setOutput@mask)),c,w	;volatile
  4878  00725A  128F               	iorwf	((c:3983)),c	;volatile
  4879  00725C  D027               	goto	l188
  4880                           opt subtitle "HI-TECH Software Omniscient Code Generator (Lite mode) build 49521"
  4881  00725E                     l185:
  4882                           opt subtitle "HI-TECH Software Omniscient Code Generator (Lite mode) build 49521"
  4883  00725E                     l1371:
  4884  00725E  502D               	movf	((c:setOutput@mask)),c,w	;volatile
  4885  007260  0AFF               	xorlw	0ffh
  4886  007262  168F               	andwf	((c:3983)),c	;volatile
  4887  007264  D023               	goto	l188
  4888                           opt subtitle "HI-TECH Software Omniscient Code Generator (Lite mode) build 49521"
  4889  007266                     l186:
  4890                           opt subtitle "HI-TECH Software Omniscient Code Generator (Lite mode) build 49521"
  4891                           
  4892  007266  D022               	goto	l188
  4893                           opt subtitle "HI-TECH Software Omniscient Code Generator (Lite mode) build 49521"
  4894                           
  4895                           opt pagewidth 120
  4896  007268                     l187:
  4897                           opt subtitle "HI-TECH Software Omniscient Code Generator (Lite mode) build 49521"
  4898                           
  4899  007268  D021               	goto	l188
  4900                           opt subtitle "HI-TECH Software Omniscient Code Generator (Lite mode) build 49521"
  4901                           
  4902  00726A                     l1373:
  4903                           opt subtitle "HI-TECH Software Omniscient Code Generator (Lite mode) build 49521"
  4904  00726A  D020               	goto	l188
  4905                           opt subtitle "HI-TECH Software Omniscient Code Generator (Lite mode) build 49521"
  4906                           
  4907  00726C                     l164:
  4908                           opt subtitle "HI-TECH Software Omniscient Code Generator (Lite mode) build 49521"
  4909  00726C                     l1375:
  4910  00726C  C02B  F029         	movff	(c:setOutput@port),??_setOutput+0+0	;volatile
  4911  007270  C02C  F02A         	movff	(c:setOutput@port+1),??_setOutput+0+0+1	;volatile
  4912                           opt subtitle "HI-TECH Software Omniscient Code Generator (Lite mode) build 49521"
  4913                           
  4914                           opt pagewidth 120
  4915                           
  4916                           	opt lm
  4917                           
  4918                           	processor	18F65K22
  4919                           porta	equ	0F80h
  4920  007274  502A               	movf ??_setOutput+0+1,c,w
  4921  007276  0A00               	xorlw	0^0	; case 0
  4922  007278  B4D8               	skipnz
  4923  00727A  D001               	goto	l1561
  4924  00727C  D017               	goto	l188
  4925                           opt subtitle "HI-TECH Software Omniscient Code Generator (Lite mode) build 49521"
  4926  00727E                     l1561:
  4927                           opt subtitle "HI-TECH Software Omniscient Code Generator (Lite mode) build 49521"
  4928                           
  4929                           opt pagewidth 120
  4930                           
  4931                           	opt lm
  4932                           
  4933                           	processor	18F65K22
  4934  00727E  5029               	movf ??_setOutput+0+0,c,w
  4935  007280  0A00               	xorlw	0^0	; case 0
  4936  007282  B4D8               	skipnz
  4937  007284  D78F               	goto	l1331
  4938  007286  0A01               	xorlw	1^0	; case 1
  4939  007288  B4D8               	skipnz
  4940  00728A  D79A               	goto	l1337
  4941  00728C  0A03               	xorlw	2^1	; case 2
  4942  00728E  B4D8               	skipnz
  4943  007290  D7A5               	goto	l1343
  4944  007292  0A01               	xorlw	3^2	; case 3
  4945  007294  B4D8               	skipnz
  4946  007296  D7B0               	goto	l1349
  4947  007298  0A07               	xorlw	4^3	; case 4
  4948  00729A  B4D8               	skipnz
  4949  00729C  D7BB               	goto	l1355
  4950  00729E  0A01               	xorlw	5^4	; case 5
  4951  0072A0  B4D8               	skipnz
  4952  0072A2  D7C6               	goto	l1361
  4953  0072A4  0A03               	xorlw	6^5	; case 6
  4954  0072A6  B4D8               	skipnz
  4955  0072A8  D7D1               	goto	l1367
  4956  0072AA  D000               	goto	l188
  4957                           opt subtitle "HI-TECH Software Omniscient Code Generator (Lite mode) build 49521"
  4958                           
  4959                           opt pagewidth 120
  4960  0072AC                     l168:
  4961                           opt subtitle "HI-TECH Software Omniscient Code Generator (Lite mode) build 49521"
  4962                           
  4963  0072AC                     l188:
  4964  0072AC  0012               	return
  4965                           opt subtitle "HI-TECH Software Omniscient Code Generator (Lite mode) build 49521"
  4966                           
  4967  0072AE                     	__end_of_setOutput:
  4968                           opt subtitle "HI-TECH Software Omniscient Code Generator (Lite mode) build 49521"
  4969                           
  4970  0000                     __activetblptr	EQU	0
  4971                           opt subtitle "HI-TECH Software Omniscient Code Generator (Lite mode) build 49521"
  4972                           
  4973                           opt pagewidth 120
  4974                           
  4975                           	opt lm
  4976  000000                     __ptext9:
  4977  000000                     fp__Read_b_eep:
  4978                           opt subtitle "HI-TECH Software Omniscient Code Generator (Lite mode) build 49521"
  4979                           
  4980                           opt pagewidth 120
  4981                           
  4982                           	opt lm
  4983  0000                     __Lparam	EQU	__Lrparam
  4984  0000                     __Hparam	EQU	__Hrparam


Data Sizes:
    Strings     0
    Constant    0
    Data        90
    BSS         72
    Persistent  0
    Stack       0

Auto Spaces:
    Space          Size  Autos    Used
    COMRAM           95     27      81
    BANK0           160      0      18
    BANK1           256    166     256
    BANK2           256      0       0
    BANK3           256      0       0
    BANK4           256      0       0
    BANK5           256      0       0
    BANK6           256      0       0
    BANK7           256      0       0

Pointer List with Targets:

    None.

Critical Paths under _main in COMRAM

    _main->_setOutputs
    _setOutputs->_setOutput
    _setOutputs->_checkButton

Critical Paths under _main in BANK0

    None.

Critical Paths under _main in BANK1

    None.

Critical Paths under _main in BANK2

    None.

Critical Paths under _main in BANK3

    None.

Critical Paths under _main in BANK4

    None.

Critical Paths under _main in BANK5

    None.

Critical Paths under _main in BANK6

    None.

Critical Paths under _main in BANK7

    None.

Call Graph Tables:

 ---------------------------------------------------------------------------------
 (Depth) Function   	        Calls       Base Space   Used Autos Params    Refs
 ---------------------------------------------------------------------------------
 (0) _main                                               174   174      0    4292
                                             19 COMRAM     8     8      0
                                              0 BANK1    166   166      0
                            _setupIO
                         _Read_b_eep
                          __delay_ms
                        _checkButton
                         _setOutputs
                        _Write_b_eep
                           _Busy_eep
 ---------------------------------------------------------------------------------
 (1) _setupIO                                             11     7      4     531
                                              0 COMRAM    11     7      4
 ---------------------------------------------------------------------------------
 (1) _Read_b_eep                                           2     0      2      44
                                              0 COMRAM     2     0      2
 ---------------------------------------------------------------------------------
 (1) __delay_ms                                            6     4      2      92
                                              0 COMRAM     6     4      2
 ---------------------------------------------------------------------------------
 (1) _checkButton                                          9     7      2     252
                                              0 COMRAM     9     7      2
 ---------------------------------------------------------------------------------
 (1) _setOutputs                                          10     0     10     728
                                              9 COMRAM    10     0     10
                          _setOutput
                        _checkButton (ARG)
 ---------------------------------------------------------------------------------
 (1) _Write_b_eep                                          5     2      3      90
                                              0 COMRAM     5     2      3
 ---------------------------------------------------------------------------------
 (1) _Busy_eep                                             0     0      0       0
 ---------------------------------------------------------------------------------
 (2) _setOutput                                            9     5      4     530
                                              0 COMRAM     9     5      4
 ---------------------------------------------------------------------------------
 Estimated maximum stack depth 2
 ---------------------------------------------------------------------------------

 Call Graph Graphs:

 _main (ROOT)
   _setupIO
   _Read_b_eep
   __delay_ms
   _checkButton
   _setOutputs
     _setOutput
     _checkButton (ARG)
   _Write_b_eep
   _Busy_eep

 Address spaces:
Name               Size   Autos  Total    Cost      Usage
BIGRAM             7FF      0       0      21        0.0%
EEDATA             400      0       0       0        0.0%
BITBANK7           100      0       0      19        0.0%
BANK7              100      0       0      20        0.0%
BITBANK6           100      0       0      17        0.0%
BANK6              100      0       0      18        0.0%
BITBANK5           100      0       0      15        0.0%
BANK5              100      0       0      16        0.0%
BITBANK4           100      0       0      13        0.0%
BANK4              100      0       0      14        0.0%
BITBANK3           100      0       0      11        0.0%
BANK3              100      0       0      12        0.0%
BITBANK2           100      0       0       9        0.0%
BANK2              100      0       0      10        0.0%
BITBANK1           100      0       0       7        0.0%
BANK1              100     A6     100       8      100.0%
BITBANK0            A0      0       0       4        0.0%
BANK0               A0      0      12       5       11.2%
BITCOMRAM           5F      0       0       0        0.0%
COMRAM              5F     1B      51       1       85.3%
BITSFR_1             0      0       0      40        0.0%
SFR_1                0      0       0      40        0.0%
BITSFR               0      0       0      40        0.0%
SFR                  0      0       0      40        0.0%
STACK                0      0       2       2        0.0%
NULL                 0      0       0       0        0.0%
ABS                  0      0     163       6        0.0%
DATA                 0      0     165       3        0.0%
CODE                 0      0       0       0        0.0%


Microchip Technology PIC18 Macro Assembler V1.12 build 49521 
Symbol Table                                                                                   Tue Apr  9 00:51:30 2013

                     l81 74F0                       l90 7B08                       l82 7622  
                     l91 793C                       l83 7624                       l92 7818  
                     l84 7658                       l93 792E                       l85 77BC  
                     l94 7964                       l86 7716                       l95 7B06  
                     l87 76EA                       l96 7A44                       l88 779C  
                     l97 79EE                       l89 7770                       l98 7A18  
                     l99 7FF8              __CFG_BORV$0 000000             __CFG_CP0$OFF 000000  
           __CFG_CP1$OFF 000000             __CFG_CP2$OFF 000000             __CFG_CP3$OFF 000000  
                    l100 7CC8                      l101 7B4C                      l110 7E86  
                    l102 7CBA                      l111 7F0C                      l103 7CF0  
                    l200 6EC2                      l120 6FDC                      l112 7FFC  
                    l104 7FF4                      l201 6EC2                      l121 6FDC  
                    l113 7FFC                      l105 7E02                      l130 72F0  
                    l106 7E00                      l131 72F8                      l107 7DAA  
                    l116 6FCA                      l212 6EEE                      l124 738A  
                    l140 734C                      l132 72FA                      l108 7DD4  
                    l117 6F8A                      l141 734E                      l133 730C  
                    l125 72C2                      l109 7F0E                      l230 6F36  
                    l118 6FAA                      l142 7360                      l134 7314  
                    l126 72D4                      l151 7152                      l119 6FC4  
                    l143 7368                      l135 7316                      l127 72DC  
                    l160 714E                      l152 70D0                      l128 73CA  
                    l144 736A                      l136 7328                      l161 7196  
                    l153 7192                      l145 737C                      l137 7330  
                    l129 72DE                      l170 71D2                      l154 70E2  
                    l146 7384                      l138 7332                      l171 71DA  
                    l227 6F22                      l155 70F4                      l147 7386  
                    l139 7344                      l164 726C                      l180 722E  
                    l172 71DC                      l228 6F22                      l156 7106  
                    l148 73CA                      l181 7230                      l173 71EE  
                    l165 71A4                      l229 6F2A                      l157 7118  
                    l182 7242                      l174 71F6                      l166 71B6  
                    l158 712A                      l183 724A                      l175 71F8  
                    l167 71BE                      l191 707E                      l159 713C  
                    l168 72AC                      l184 724C                      l176 720A  
                    l192 70A6                      l185 725E                      l177 7212  
                    l169 71C0                      l193 70BA                      l186 7266  
                    l178 7214                      l187 7268                      l179 7226  
                    l188 72AC                      l198 6EB8                      l199 6EB8  
           __CFG_CPB$OFF 000000                      u600 733E                      u601 733C  
                    u610 735A             __CFG_CPD$OFF 000000                      u611 7358  
                    u700 71CC                      u620 7376                      u701 71CA  
                    u621 7374                      u710 71E8                      u630 6FA6  
                    u711 71E6                      u631 6FA4                      u720 7204  
                    u640 6FC2                      u560 72CE                      u721 7202  
                    u641 6FC0                      u561 72CC                      u801 740C  
                    u730 7220                      u650 6FDA                      u570 72EA  
                    u731 721E                      u651 6FD8                      u571 72E8  
                    u811 741E                      u740 723C                      u660 6F2A  
                    u580 7306                      u900 76C0                      u741 723A  
                    u661 6F28                      u581 7304                      u901 76BE  
                    u821 7430                      u750 7258                      u590 7322  
                    u910 7746                      u751 7256                      u591 7320  
                    u911 7744                      u831 7442                      u680 6EC0  
                    u760 7054                      u920 77BA                      u681 6EBE  
                    u761 7052                      u921 77B8                      u841 7454  
                    u690 71B0                      u930 77D4                      u691 71AE  
                    u675 6F32                      u931 77D2                      u851 7466  
                    u771 73D6                      u676 6F34                      u940 77E4  
                    u860 74EC                      u941 77E2                      u861 74EA  
                    u781 73E8                      u950 7814                      u870 7620  
                    u951 7812                      u871 761E                      u791 73FA  
                    u960 792C                      u880 7654                      u961 792A  
                    u881 7652                      u970 7960                      u890 7692  
                    u971 795E                      u891 7690                      u980 7994  
                    u981 7992                      u990 79C2                      u991 79C0  
   __size_of_Write_b_eep 0048                      wreg 000FE8        main@buttonEventUp 015A  
                   l1201 72DE                     l1211 730C                     l1203 72EA  
                   l1301 6EF0                     l1221 733E                     l1213 7316  
                   l1205 72F0                     l1311 6F08                     l1303 6EF8  
                   l1231 736A                     l1223 7344                     l1215 7322  
                   l1207 72FA                     l1321 6F1A                     l1313 6F0A  
                   l1305 6EFE                     l1233 7376                     l1225 734E  
                   l1217 7328                     l1209 7306                     l1401 74D6  
                   l1331 71A4                     l1323 6F1E                     l1315 6F0C  
                   l1307 6F02                     l1251 6EE4                     l1243 6ED6  
                   l1235 737C                     l1227 735A                     l1219 7332  
                   l1403 74EE                     l1411 7624                     l1341 71D2  
                   l1333 71B0                     l1325 6EB6                     l1317 6F14  
                   l1309 6F06                     l1261 6F92                     l1253 6EEA  
                   l1245 6EDC                     l1237 7388                     l1229 7360  
                   l1501 7CD6                     l1421 7692                     l1413 7630  
                   l1405 74F0                     l1351 7204                     l1343 71DC  
                   l1335 71B6                     l1327 7198                     l1319 6F16  
                   l1263 6FA8                     l1271 6FCA                     l1255 6EEE  
                   l1247 6EE0                     l1239 738A                     l1191 72AE  
                   l1511 7D7E                     l1503 7CEE                     l1431 77A4  
                   l1423 76C0                     l1415 763E                     l1407 7602  
                   l1361 7230                     l1353 720A                     l1345 71E8  
                   l1337 71C0                     l1329 719E                     l1281 70F4  
                   l1273 70BC                     l1265 6FAA                     l1257 6F80  
                   l1249 6EE2                     l1193 72BC                     l1513 7DAA  
                   l1521 7F0E                     l1505 7CF0                     l1441 77FE  
                   l1425 7716                     l1417 7656                     l1433 77BC  
                   l1409 760A                     l1371 725E                     l1363 723C  
                   l1355 7214                     l1347 71EE                     l1339 71CC  
                   l1291 7150                     l1283 7106                     l1275 70CA  
                   l1267 6FAE                     l1259 6F8A                     l1195 72C2  
                   l1523 7FD2                     l1507 7D20                     l1515 7E02  
                   l1451 790E                     l1443 7816                     l1435 77D4  
                   l1427 7746                     l1419 7658                     l1373 726A  
                   l1365 7242                     l1357 7220                     l1349 71F8  
                   l1381 7054                     l1285 7118                     l1277 70D0  
                   l1293 7152                     l1269 6FC4                     l1197 72CE  
                   l1525 7FDA                     l1517 7E32                     l1509 7D50  
                   l1461 7964                     l1453 7916                     l1445 7818  
                   l1437 77E4                     l1429 779C                     l1367 724C  
                   l1359 7226                     l1375 726C                     l1383 707E  
                   l1287 712A                     l1279 70E2                     l1295 7192  
                   l1199 72D4                     l1519 7EB6                     l1471 7AE6  
                   l1463 7994                     l1447 78BA                     l1455 792E  
                   l1439 77F0                     l1391 7484                     l1561 727E  
                   l1369 7258                     l1297 7196                     l1289 713C  
                   l1481 7B32                     l1473 7AEE                     l1465 79C2  
                   l1457 794A                     l1449 78E4                     l1393 748C  
                   l1385 73CC                     l1379 7048                     l1491 7C46  
                   l1483 7B4A                     l1467 79EE                     l1459 7962  
                   l1475 7B08                     l1395 74A0                     l1387 746E  
                   l1557 739C                     l1493 7C70                     l1485 7B4C  
                   l1477 7B18                     l1469 7A44                     l1397 74B4  
                   l1389 747C                     l1559 7164                     l1495 7C9A  
                   l1487 7B7E                     l1479 7B24                     l1399 74C8  
                   l1497 7CA2                     l1489 7B82                     l1499 7CBA  
                   u1000 7B04                     u1001 7B02                     u1010 7B18  
                   u1011 7B16                     u1100 7FF0                     u1020 7B48  
                   u1101 7FEE                     u1021 7B46                     u1030 7CB8  
                   u1031 7CB6                     u1040 7CEC                     u1041 7CEA  
                   u1050 7D20                     u1051 7D1E                     u1060 7D50  
                   u1061 7D4E                     u1070 7D7E                     u1071 7D7C  
                   u1080 7E32                     u1081 7E30                     u1090 7EB6  
                   u1091 7EB4                     _LATA 000F89                     _LATB 000F8A  
                   _LATC 000F8B                     _LATD 000F8C                     _LATE 000F8D  
                   _LATF 000F8E                     _LATG 000F8F                     _main 73CC  
                   fsr1l 000FE1                     indf2 000FDF                     fsr2l 000FD9  
                   start 0000            __CFG_IESO$OFF 000000            __CFG_MCLRE$ON 000000  
          __CFG_RETEN$ON 000000                    ?_main 0025                    _EEADR 000F62  
           __delay_ms@ms 0025                    _PORTA 000F80                    _PORTB 000F81  
                  _PORTC 000F82                    _PORTD 000F83                    _PORTE 000F84  
                  _PORTF 000F85                    _PORTG 000F86                    _TRISA 000F92  
                  _TRISB 000F93                    _TRISC 000F94                    _TRISD 000F95  
                  _TRISE 000F96                    _TRISF 000F97                    _TRISG 000F98  
   __size_of_checkButton 00DC            __CFG_WRT0$OFF 000000            __CFG_WRT1$OFF 000000  
          __CFG_WRT2$OFF 000000            __CFG_WRT3$OFF 000000           __CFG_EBRT0$OFF 000000  
         __CFG_EBRT1$OFF 000000           __CFG_EBRT2$OFF 000000           __CFG_EBRT3$OFF 000000  
         __CFG_FCMEN$OFF 000000            __CFG_WRTB$OFF 000000            __CFG_WRTC$OFF 000000  
          __CFG_WRTD$OFF 000000           Read_b_eep@badd 0025           __CFG_EBRTB$OFF 000000  
 Write_b_eep@GIE_BIT_VAL 0029                    main@i 01A4                    tablat 000FF5  
        __end_of_setupIO 73CC                    status 000FD8      main@buttonEventDown 0190  
      setOutputs@leftled 0030          __initialization 6FDE             __end_of_main 8000  
             _Read_b_eep 6ED6         __end_of_Busy_eep 6EC4                   ??_main 0038  
          __activetblptr 000000                   _EEADRH 000F63                   _EEDATA 000F61  
                 _EECON2 000F7E                   _ANCON0 000F25                   _ANCON1 000F24  
        __CFG_BBSIZ$BB2K 000000           __CFG_WDTEN$OFF 000000           __CFG_XINST$OFF 000000  
          main@relayMask 0112           __CFG_STVREN$ON 000000                   clear_0 6FE4  
                 clear_1 6FF0                   clear_2 6FFC             __pdataCOMRAM 0040  
                 tblptrh 000FF7                   tblptrl 000FF6                   tblptru 000FF8  
              ??_setupIO 0029       setOutputs@alwayson 002E               __accesstop 0060  
__end_of__initialization 7042           setOutput@value 0027       __size_of__delay_ms 005E  
     setOutputs@rightled 0032           __pcstackCOMRAM 0025             __pidataBANK1 6F38  
            ?_Read_b_eep 0025               __pbssBANK0 0060               __pbssBANK1 01EE  
        __CFG_PLLCFG$OFF 000000                ?_Busy_eep 0025       __size_of_setOutput 0116  
          ??_Write_b_eep 0028        __end_of__delay_ms 6FDE         setupIO@direction 0027  
         main@buttonDown 0124           main@buttonMask 0100      __size_of_Read_b_eep 001A  
             ??_Busy_eep 0025          __CFG_PWRTEN$OFF 000000                  __Hparam 0000  
                __Lparam 0000                  __pcinit 6FDE            ??_checkButton 0027  
                __ramtop 0800                  __ptext0 73CC                  __ptext1 72AE  
                __ptext2 6ED6                  __ptext3 6F80                  __ptext4 70BC  
                __ptext5 7048                  __ptext6 6EF0                  __ptext7 6EB6  
                __ptext8 7198                  __ptext9 0000        __CFG_MSSPMSK$MSK7 000000  
         checkButton@row 0025      __end_of_Write_b_eep 6F38                  _setupIO 72AE  
   end_of_initialization 7042        __end_of_setOutput 72AE               _setOutputs 7048  
                postdec1 000FE5                  postdec2 000FDD                  postinc0 000FEE  
                postinc1 000FE6                  postinc2 000FDE              setupIO@mask 002F  
            setupIO@port 002D         __CFG_FOSC$INTIO2 000000      __end_of_checkButton 7198  
        setOutputs@relay 0034          setOutputs@value 0036             ??_Read_b_eep 0027  
            __delay_ms@i 0027              __delay_ms@j 0029            __pidataCOMRAM 6EC4  
            _Write_b_eep 6EF0      start_initialization 6FDE       __end_of_Read_b_eep 6EF0  
            ?_setOutputs 002E        __size_of_Busy_eep 000E              __pdataBANK1 01A6  
            _checkButton 70BC            setOutput@mask 002D            setOutput@port 002B  
            __pbssCOMRAM 0001            __pcstackBANK1 0100                __delay_ms 6F80  
       main@rightLEDMask 0148        __CFG_CCP2MX$PORTC 000000          main@leftLEDMask 0136  
    __size_of_setOutputs 0074                 ?_setupIO 0025               ?__delay_ms 0025  
       checkButton@state 002B                _setOutput 7198                main@F7910 01B8  
              main@F7920 0013                main@F7912 01CA                main@F7914 01DC  
              main@F7922 0040                main@F7916 01EE                main@F7924 0060  
              main@F7908 01A6                main@F7918 0001               setupIO@row 0025  
       __CFG_SOSCSEL$DIG 000000            fp__Read_b_eep 0000          main@buttonLatch 017E  
        Write_b_eep@badd 0025          Write_b_eep@bdat 0027          main@buttonState 016C  
              copy_data0 7016                copy_data1 7036                 _Busy_eep 6EB6  
             _EECON1bits 000F7F                 __Hrparam 0000               ?_setOutput 0025  
               __Lrparam 0000       __CFG_BOREN$SBORDIS 000000             setOutput@row 0025  
           ?_Write_b_eep 0025              ??__delay_ms 0027         __size_of_setupIO 011E  
       main@programState 01A2            __size_of_main 0C34             ??_setOutputs 0038  
        checkButton@mask 002D      __CFG_RTCOSC$SOSCREF 000000          checkButton@port 0029  
    __CFG_INTOSCSEL$HIGH 000000             ?_checkButton 0025               _INTCONbits 000FF2  
     __end_of_setOutputs 70BC              ??_setOutput 0029       __CFG_WDTPS$1048576 000000  
           setupIO@state 002B      __CFG_BORPWR$ZPBORMV 000000  
